ARM GAS  C:\Users\ENESDU~1\AppData\Local\Temp\ccm5rt1g.s 			page 1


   1              		.cpu cortex-m0
   2              		.fpu softvfp
   3              		.eabi_attribute 20, 1
   4              		.eabi_attribute 21, 1
   5              		.eabi_attribute 23, 3
   6              		.eabi_attribute 24, 1
   7              		.eabi_attribute 25, 1
   8              		.eabi_attribute 26, 1
   9              		.eabi_attribute 30, 6
  10              		.eabi_attribute 34, 0
  11              		.eabi_attribute 18, 4
  12              		.code	16
  13              		.file	"BLE_1_gatt.c"
  14              		.text
  15              	.Ltext0:
  16              		.cfi_sections	.debug_frame
  17              		.comm	cyBle_state,1,1
  18              		.global	cyBle_gatts
  19              		.section	.rodata
  20              		.align	2
  21              		.type	cyBle_gatts, %object
  22              		.size	cyBle_gatts, 6
  23              	cyBle_gatts:
  24 0000 0800     		.short	8
  25 0002 0A00     		.short	10
  26 0004 0B00     		.short	11
  27              		.data
  28              		.align	2
  29              		.type	cyBle_attValues, %object
  30              		.size	cyBle_attValues, 94
  31              	cyBle_attValues:
  32 0000 42       		.byte	66
  33 0001 4C       		.byte	76
  34 0002 45       		.byte	69
  35 0003 20       		.byte	32
  36 0004 4C       		.byte	76
  37 0005 61       		.byte	97
  38 0006 62       		.byte	98
  39 0007 20       		.byte	32
  40 0008 33       		.byte	51
  41 0009 20       		.byte	32
  42 000a 47       		.byte	71
  43 000b 72       		.byte	114
  44 000c 6F       		.byte	111
  45 000d 75       		.byte	117
  46 000e 70       		.byte	112
  47 000f 20       		.byte	32
  48 0010 31       		.byte	49
  49 0011 30       		.byte	48
  50 0012 40       		.byte	64
  51 0013 03       		.byte	3
  52 0014 20       		.byte	32
  53 0015 03       		.byte	3
  54 0016 20       		.byte	32
  55 0017 03       		.byte	3
  56 0018 00       		.byte	0
  57 0019 00       		.byte	0
ARM GAS  C:\Users\ENESDU~1\AppData\Local\Temp\ccm5rt1g.s 			page 2


  58 001a E8       		.byte	-24
  59 001b 03       		.byte	3
  60 001c 00       		.byte	0
  61 001d 00       		.byte	0
  62 001e 00       		.byte	0
  63 001f 00       		.byte	0
  64 0020 00       		.byte	0
  65 0021 00       		.byte	0
  66 0022 00       		.byte	0
  67 0023 01       		.byte	1
  68 0024 43       		.byte	67
  69 0025 79       		.byte	121
  70 0026 70       		.byte	112
  71 0027 72       		.byte	114
  72 0028 65       		.byte	101
  73 0029 73       		.byte	115
  74 002a 73       		.byte	115
  75 002b 20       		.byte	32
  76 002c 53       		.byte	83
  77 002d 65       		.byte	101
  78 002e 6D       		.byte	109
  79 002f 69       		.byte	105
  80 0030 63       		.byte	99
  81 0031 6F       		.byte	111
  82 0032 6E       		.byte	110
  83 0033 64       		.byte	100
  84 0034 75       		.byte	117
  85 0035 63       		.byte	99
  86 0036 74       		.byte	116
  87 0037 6F       		.byte	111
  88 0038 72       		.byte	114
  89 0039 42       		.byte	66
  90 003a 4C       		.byte	76
  91 003b 45       		.byte	69
  92 003c 20       		.byte	32
  93 003d 50       		.byte	80
  94 003e 69       		.byte	105
  95 003f 6F       		.byte	111
  96 0040 6E       		.byte	110
  97 0041 65       		.byte	101
  98 0042 65       		.byte	101
  99 0043 72       		.byte	114
 100 0044 20       		.byte	32
 101 0045 4B       		.byte	75
 102 0046 69       		.byte	105
 103 0047 74       		.byte	116
 104 0048 31       		.byte	49
 105 0049 2A       		.byte	42
 106 004a 2A       		.byte	42
 107 004b 31       		.byte	49
 108 004c 2E       		.byte	46
 109 004d 30       		.byte	48
 110 004e 00       		.byte	0
 111 004f 00       		.byte	0
 112 0050 00       		.byte	0
 113 0051 00       		.byte	0
 114 0052 00       		.byte	0
ARM GAS  C:\Users\ENESDU~1\AppData\Local\Temp\ccm5rt1g.s 			page 3


 115 0053 00       		.byte	0
 116 0054 00       		.byte	0
 117 0055 00       		.byte	0
 118 0056 00       		.byte	0
 119 0057 01       		.byte	1
 120 0058 00       		.byte	0
 121 0059 00       		.byte	0
 122 005a 00       		.byte	0
 123 005b 00       		.byte	0
 124 005c 00       		.byte	0
 125 005d 00       		.byte	0
 126              		.global	cyBle_attValuesCCCDFlashMemory
 127 005e 0000     		.section	.rodata
 128 0006 00000000 		.align	7
 128      00000000 
 128      00000000 
 128      00000000 
 128      00000000 
 129              		.type	cyBle_attValuesCCCDFlashMemory, %object
 130              		.size	cyBle_attValuesCCCDFlashMemory, 20
 131              	cyBle_attValuesCCCDFlashMemory:
 132 0080 00000000 		.space	20
 132      00000000 
 132      00000000 
 132      00000000 
 132      00000000 
 133              		.comm	cyBle_attValuesCCCD,4,4
 134              		.global	cyBle_gattDB
 135              		.align	2
 136              		.type	cyBle_gattDB, %object
 137              		.size	cyBle_gattDB, 760
 138              	cyBle_gattDB:
 139 0094 0100     		.short	1
 140 0096 0028     		.short	10240
 141 0098 01000000 		.word	1
 142 009c 0700     		.short	7
 143 009e 0000     		.space	2
 144 00a0 0018     		.short	6144
 145 00a2 0000     		.space	2
 146 00a4 00000000 		.word	0
 147 00a8 0200     		.short	2
 148 00aa 0328     		.short	10243
 149 00ac 01020000 		.word	513
 150 00b0 0300     		.short	3
 151 00b2 0000     		.space	2
 152 00b4 002A     		.short	10752
 153 00b6 0000     		.space	2
 154 00b8 00000000 		.word	0
 155 00bc 0300     		.short	3
 156 00be 002A     		.short	10752
 157 00c0 01020000 		.word	513
 158 00c4 0300     		.short	3
 159 00c6 0000     		.space	2
 160 00c8 1200     		.short	18
 161 00ca 0000     		.space	2
 162 00cc 00000000 		.word	cyBle_attValues
 163 00d0 0400     		.short	4
ARM GAS  C:\Users\ENESDU~1\AppData\Local\Temp\ccm5rt1g.s 			page 4


 164 00d2 0328     		.short	10243
 165 00d4 01020000 		.word	513
 166 00d8 0500     		.short	5
 167 00da 0000     		.space	2
 168 00dc 012A     		.short	10753
 169 00de 0000     		.space	2
 170 00e0 00000000 		.word	0
 171 00e4 0500     		.short	5
 172 00e6 012A     		.short	10753
 173 00e8 01020000 		.word	513
 174 00ec 0500     		.short	5
 175 00ee 0000     		.space	2
 176 00f0 0200     		.short	2
 177 00f2 0000     		.space	2
 178 00f4 12000000 		.word	cyBle_attValues+18
 179 00f8 0600     		.short	6
 180 00fa 0328     		.short	10243
 181 00fc 01020000 		.word	513
 182 0100 0700     		.short	7
 183 0102 0000     		.space	2
 184 0104 042A     		.short	10756
 185 0106 0000     		.space	2
 186 0108 00000000 		.word	0
 187 010c 0700     		.short	7
 188 010e 042A     		.short	10756
 189 0110 01020000 		.word	513
 190 0114 0700     		.short	7
 191 0116 0000     		.space	2
 192 0118 0800     		.short	8
 193 011a 0000     		.space	2
 194 011c 14000000 		.word	cyBle_attValues+20
 195 0120 0800     		.short	8
 196 0122 0028     		.short	10240
 197 0124 01000000 		.word	1
 198 0128 0B00     		.short	11
 199 012a 0000     		.space	2
 200 012c 0118     		.short	6145
 201 012e 0000     		.space	2
 202 0130 00000000 		.word	0
 203 0134 0900     		.short	9
 204 0136 0328     		.short	10243
 205 0138 01220000 		.word	8705
 206 013c 0B00     		.short	11
 207 013e 0000     		.space	2
 208 0140 052A     		.short	10757
 209 0142 0000     		.space	2
 210 0144 00000000 		.word	0
 211 0148 0A00     		.short	10
 212 014a 052A     		.short	10757
 213 014c 01220000 		.word	8705
 214 0150 0B00     		.short	11
 215 0152 0000     		.space	2
 216 0154 0400     		.short	4
 217 0156 0000     		.space	2
 218 0158 1C000000 		.word	cyBle_attValues+28
 219 015c 0B00     		.short	11
 220 015e 0229     		.short	10498
ARM GAS  C:\Users\ENESDU~1\AppData\Local\Temp\ccm5rt1g.s 			page 5


 221 0160 040A0000 		.word	2564
 222 0164 0B00     		.short	11
 223 0166 0000     		.space	2
 224 0168 0200     		.short	2
 225 016a 0000     		.space	2
 226 016c 00000000 		.word	cyBle_attValuesCCCD
 227 0170 0C00     		.short	12
 228 0172 0028     		.short	10240
 229 0174 01000000 		.word	1
 230 0178 1300     		.short	19
 231 017a 0000     		.space	2
 232 017c 0D18     		.short	6157
 233 017e 0000     		.space	2
 234 0180 00000000 		.word	0
 235 0184 0D00     		.short	13
 236 0186 0328     		.short	10243
 237 0188 01100000 		.word	4097
 238 018c 0F00     		.short	15
 239 018e 0000     		.space	2
 240 0190 372A     		.short	10807
 241 0192 0000     		.space	2
 242 0194 00000000 		.word	0
 243 0198 0E00     		.short	14
 244 019a 372A     		.short	10807
 245 019c 00100000 		.word	4096
 246 01a0 0F00     		.short	15
 247 01a2 0000     		.space	2
 248 01a4 0200     		.short	2
 249 01a6 0000     		.space	2
 250 01a8 20000000 		.word	cyBle_attValues+32
 251 01ac 0F00     		.short	15
 252 01ae 0229     		.short	10498
 253 01b0 040A0000 		.word	2564
 254 01b4 0F00     		.short	15
 255 01b6 0000     		.space	2
 256 01b8 0200     		.short	2
 257 01ba 0000     		.space	2
 258 01bc 02000000 		.word	cyBle_attValuesCCCD+2
 259 01c0 1000     		.short	16
 260 01c2 0328     		.short	10243
 261 01c4 01020000 		.word	513
 262 01c8 1100     		.short	17
 263 01ca 0000     		.space	2
 264 01cc 382A     		.short	10808
 265 01ce 0000     		.space	2
 266 01d0 00000000 		.word	0
 267 01d4 1100     		.short	17
 268 01d6 382A     		.short	10808
 269 01d8 01020000 		.word	513
 270 01dc 1100     		.short	17
 271 01de 0000     		.space	2
 272 01e0 0100     		.short	1
 273 01e2 0000     		.space	2
 274 01e4 22000000 		.word	cyBle_attValues+34
 275 01e8 1200     		.short	18
 276 01ea 0328     		.short	10243
 277 01ec 01080000 		.word	2049
ARM GAS  C:\Users\ENESDU~1\AppData\Local\Temp\ccm5rt1g.s 			page 6


 278 01f0 1300     		.short	19
 279 01f2 0000     		.space	2
 280 01f4 392A     		.short	10809
 281 01f6 0000     		.space	2
 282 01f8 00000000 		.word	0
 283 01fc 1300     		.short	19
 284 01fe 392A     		.short	10809
 285 0200 02080000 		.word	2050
 286 0204 1300     		.short	19
 287 0206 0000     		.space	2
 288 0208 0100     		.short	1
 289 020a 0000     		.space	2
 290 020c 23000000 		.word	cyBle_attValues+35
 291 0210 1400     		.short	20
 292 0212 0028     		.short	10240
 293 0214 01000000 		.word	1
 294 0218 2600     		.short	38
 295 021a 0000     		.space	2
 296 021c 0A18     		.short	6154
 297 021e 0000     		.space	2
 298 0220 00000000 		.word	0
 299 0224 1500     		.short	21
 300 0226 0328     		.short	10243
 301 0228 01020000 		.word	513
 302 022c 1600     		.short	22
 303 022e 0000     		.space	2
 304 0230 292A     		.short	10793
 305 0232 0000     		.space	2
 306 0234 00000000 		.word	0
 307 0238 1600     		.short	22
 308 023a 292A     		.short	10793
 309 023c 01020000 		.word	513
 310 0240 1600     		.short	22
 311 0242 0000     		.space	2
 312 0244 1500     		.short	21
 313 0246 0000     		.space	2
 314 0248 24000000 		.word	cyBle_attValues+36
 315 024c 1700     		.short	23
 316 024e 0328     		.short	10243
 317 0250 01020000 		.word	513
 318 0254 1800     		.short	24
 319 0256 0000     		.space	2
 320 0258 242A     		.short	10788
 321 025a 0000     		.space	2
 322 025c 00000000 		.word	0
 323 0260 1800     		.short	24
 324 0262 242A     		.short	10788
 325 0264 01020000 		.word	513
 326 0268 1800     		.short	24
 327 026a 0000     		.space	2
 328 026c 0F00     		.short	15
 329 026e 0000     		.space	2
 330 0270 39000000 		.word	cyBle_attValues+57
 331 0274 1900     		.short	25
 332 0276 0328     		.short	10243
 333 0278 01020000 		.word	513
 334 027c 1A00     		.short	26
ARM GAS  C:\Users\ENESDU~1\AppData\Local\Temp\ccm5rt1g.s 			page 7


 335 027e 0000     		.space	2
 336 0280 252A     		.short	10789
 337 0282 0000     		.space	2
 338 0284 00000000 		.word	0
 339 0288 1A00     		.short	26
 340 028a 252A     		.short	10789
 341 028c 01020000 		.word	513
 342 0290 1A00     		.short	26
 343 0292 0000     		.space	2
 344 0294 0100     		.short	1
 345 0296 0000     		.space	2
 346 0298 48000000 		.word	cyBle_attValues+72
 347 029c 1B00     		.short	27
 348 029e 0328     		.short	10243
 349 02a0 01020000 		.word	513
 350 02a4 1C00     		.short	28
 351 02a6 0000     		.space	2
 352 02a8 272A     		.short	10791
 353 02aa 0000     		.space	2
 354 02ac 00000000 		.word	0
 355 02b0 1C00     		.short	28
 356 02b2 272A     		.short	10791
 357 02b4 01020000 		.word	513
 358 02b8 1C00     		.short	28
 359 02ba 0000     		.space	2
 360 02bc 0200     		.short	2
 361 02be 0000     		.space	2
 362 02c0 49000000 		.word	cyBle_attValues+73
 363 02c4 1D00     		.short	29
 364 02c6 0328     		.short	10243
 365 02c8 01020000 		.word	513
 366 02cc 1E00     		.short	30
 367 02ce 0000     		.space	2
 368 02d0 262A     		.short	10790
 369 02d2 0000     		.space	2
 370 02d4 00000000 		.word	0
 371 02d8 1E00     		.short	30
 372 02da 262A     		.short	10790
 373 02dc 01020000 		.word	513
 374 02e0 1E00     		.short	30
 375 02e2 0000     		.space	2
 376 02e4 0300     		.short	3
 377 02e6 0000     		.space	2
 378 02e8 4B000000 		.word	cyBle_attValues+75
 379 02ec 1F00     		.short	31
 380 02ee 0328     		.short	10243
 381 02f0 01020000 		.word	513
 382 02f4 2000     		.short	32
 383 02f6 0000     		.space	2
 384 02f8 282A     		.short	10792
 385 02fa 0000     		.space	2
 386 02fc 00000000 		.word	0
 387 0300 2000     		.short	32
 388 0302 282A     		.short	10792
 389 0304 01020000 		.word	513
 390 0308 2000     		.short	32
 391 030a 0000     		.space	2
ARM GAS  C:\Users\ENESDU~1\AppData\Local\Temp\ccm5rt1g.s 			page 8


 392 030c 0000     		.short	0
 393 030e 0000     		.space	2
 394 0310 00000000 		.word	0
 395 0314 2100     		.short	33
 396 0316 0328     		.short	10243
 397 0318 01020000 		.word	513
 398 031c 2200     		.short	34
 399 031e 0000     		.space	2
 400 0320 232A     		.short	10787
 401 0322 0000     		.space	2
 402 0324 00000000 		.word	0
 403 0328 2200     		.short	34
 404 032a 232A     		.short	10787
 405 032c 01020000 		.word	513
 406 0330 2200     		.short	34
 407 0332 0000     		.space	2
 408 0334 0800     		.short	8
 409 0336 0000     		.space	2
 410 0338 4E000000 		.word	cyBle_attValues+78
 411 033c 2300     		.short	35
 412 033e 0328     		.short	10243
 413 0340 01020000 		.word	513
 414 0344 2400     		.short	36
 415 0346 0000     		.space	2
 416 0348 2A2A     		.short	10794
 417 034a 0000     		.space	2
 418 034c 00000000 		.word	0
 419 0350 2400     		.short	36
 420 0352 2A2A     		.short	10794
 421 0354 01020000 		.word	513
 422 0358 2400     		.short	36
 423 035a 0000     		.space	2
 424 035c 0100     		.short	1
 425 035e 0000     		.space	2
 426 0360 56000000 		.word	cyBle_attValues+86
 427 0364 2500     		.short	37
 428 0366 0328     		.short	10243
 429 0368 01020000 		.word	513
 430 036c 2600     		.short	38
 431 036e 0000     		.space	2
 432 0370 502A     		.short	10832
 433 0372 0000     		.space	2
 434 0374 00000000 		.word	0
 435 0378 2600     		.short	38
 436 037a 502A     		.short	10832
 437 037c 01020000 		.word	513
 438 0380 2600     		.short	38
 439 0382 0000     		.space	2
 440 0384 0700     		.short	7
 441 0386 0000     		.space	2
 442 0388 57000000 		.word	cyBle_attValues+87
 443 038c 00000000 		.section	.text.CyBle_GattsReInitGattDb,"ax",%progbits
 443      00000000 
 443      00000000 
 443      00000000 
 443      00000000 
 444              		.align	2
ARM GAS  C:\Users\ENESDU~1\AppData\Local\Temp\ccm5rt1g.s 			page 9


 445              		.global	CyBle_GattsReInitGattDb
 446              		.code	16
 447              		.thumb_func
 448              		.type	CyBle_GattsReInitGattDb, %function
 449              	CyBle_GattsReInitGattDb:
 450              	.LFB2:
 451              		.file 1 ".\\Generated_Source\\PSoC4\\BLE_1_gatt.c"
   1:.\Generated_Source\PSoC4/BLE_1_gatt.c **** /*******************************************************************************
   2:.\Generated_Source\PSoC4/BLE_1_gatt.c **** File Name: CYBLE_gatt.c
   3:.\Generated_Source\PSoC4/BLE_1_gatt.c **** Version 1.10
   4:.\Generated_Source\PSoC4/BLE_1_gatt.c **** 
   5:.\Generated_Source\PSoC4/BLE_1_gatt.c **** Description:
   6:.\Generated_Source\PSoC4/BLE_1_gatt.c ****  This file contains the source code for the GATT API of the BLE Component.
   7:.\Generated_Source\PSoC4/BLE_1_gatt.c **** 
   8:.\Generated_Source\PSoC4/BLE_1_gatt.c **** ********************************************************************************
   9:.\Generated_Source\PSoC4/BLE_1_gatt.c **** Copyright 2014, Cypress Semiconductor Corporation.  All rights reserved.
  10:.\Generated_Source\PSoC4/BLE_1_gatt.c **** You may use this file only in accordance with the license, terms, conditions,
  11:.\Generated_Source\PSoC4/BLE_1_gatt.c **** disclaimers, and limitations in the end user license agreement accompanying
  12:.\Generated_Source\PSoC4/BLE_1_gatt.c **** the software package with which this file was provided.
  13:.\Generated_Source\PSoC4/BLE_1_gatt.c **** *******************************************************************************/
  14:.\Generated_Source\PSoC4/BLE_1_gatt.c **** 
  15:.\Generated_Source\PSoC4/BLE_1_gatt.c **** 
  16:.\Generated_Source\PSoC4/BLE_1_gatt.c **** #include "BLE_1_eventHandler.h"
  17:.\Generated_Source\PSoC4/BLE_1_gatt.c **** 
  18:.\Generated_Source\PSoC4/BLE_1_gatt.c **** 
  19:.\Generated_Source\PSoC4/BLE_1_gatt.c **** /***************************************
  20:.\Generated_Source\PSoC4/BLE_1_gatt.c **** ##Global variables
  21:.\Generated_Source\PSoC4/BLE_1_gatt.c **** ***************************************/
  22:.\Generated_Source\PSoC4/BLE_1_gatt.c **** 
  23:.\Generated_Source\PSoC4/BLE_1_gatt.c **** CYBLE_STATE_T cyBle_state;
  24:.\Generated_Source\PSoC4/BLE_1_gatt.c **** 
  25:.\Generated_Source\PSoC4/BLE_1_gatt.c **** 
  26:.\Generated_Source\PSoC4/BLE_1_gatt.c **** #if(CYBLE_GATT_ROLE_SERVER)
  27:.\Generated_Source\PSoC4/BLE_1_gatt.c ****     
  28:.\Generated_Source\PSoC4/BLE_1_gatt.c ****     const CYBLE_GATTS_T cyBle_gatts =
  29:.\Generated_Source\PSoC4/BLE_1_gatt.c **** {
  30:.\Generated_Source\PSoC4/BLE_1_gatt.c ****     0x0008u,    /* Handle of the GATT service */
  31:.\Generated_Source\PSoC4/BLE_1_gatt.c ****     0x000Au,    /* Handle of the Service Changed characteristic */
  32:.\Generated_Source\PSoC4/BLE_1_gatt.c ****     0x000Bu,    /* Handle of the Client Characteristic Configuration descriptor */
  33:.\Generated_Source\PSoC4/BLE_1_gatt.c **** };
  34:.\Generated_Source\PSoC4/BLE_1_gatt.c ****     
  35:.\Generated_Source\PSoC4/BLE_1_gatt.c ****     static uint8 cyBle_attValues[0x5Eu] = {
  36:.\Generated_Source\PSoC4/BLE_1_gatt.c **** /* Device Name */
  37:.\Generated_Source\PSoC4/BLE_1_gatt.c **** (uint8)'B', (uint8)'L', (uint8)'E', (uint8)' ', (uint8)'L', (uint8)'a', (uint8)'b', (uint8)' ', (ui
  38:.\Generated_Source\PSoC4/BLE_1_gatt.c **** (uint8)'G', (uint8)'r', (uint8)'o', (uint8)'u', (uint8)'p', (uint8)' ', (uint8)'1', (uint8)'0', 
  39:.\Generated_Source\PSoC4/BLE_1_gatt.c **** 
  40:.\Generated_Source\PSoC4/BLE_1_gatt.c **** /* Appearance */
  41:.\Generated_Source\PSoC4/BLE_1_gatt.c **** 0x40u, 0x03u, 
  42:.\Generated_Source\PSoC4/BLE_1_gatt.c **** 
  43:.\Generated_Source\PSoC4/BLE_1_gatt.c **** /* Peripheral Preferred Connection Parameters */
  44:.\Generated_Source\PSoC4/BLE_1_gatt.c **** 0x20u, 0x03u, 0x20u, 0x03u, 0x00u, 0x00u, 0xE8u, 0x03u, 
  45:.\Generated_Source\PSoC4/BLE_1_gatt.c **** 
  46:.\Generated_Source\PSoC4/BLE_1_gatt.c **** /* Service Changed */
  47:.\Generated_Source\PSoC4/BLE_1_gatt.c **** 0x00u, 0x00u, 0x00u, 0x00u, 
  48:.\Generated_Source\PSoC4/BLE_1_gatt.c **** 
  49:.\Generated_Source\PSoC4/BLE_1_gatt.c **** /* Heart Rate Measurement */
  50:.\Generated_Source\PSoC4/BLE_1_gatt.c **** 0x00u, 0x00u, 
ARM GAS  C:\Users\ENESDU~1\AppData\Local\Temp\ccm5rt1g.s 			page 10


  51:.\Generated_Source\PSoC4/BLE_1_gatt.c **** 
  52:.\Generated_Source\PSoC4/BLE_1_gatt.c **** /* Body Sensor Location */
  53:.\Generated_Source\PSoC4/BLE_1_gatt.c **** 0x00u, 
  54:.\Generated_Source\PSoC4/BLE_1_gatt.c **** 
  55:.\Generated_Source\PSoC4/BLE_1_gatt.c **** /* Heart Rate Control Point */
  56:.\Generated_Source\PSoC4/BLE_1_gatt.c **** 0x01u, 
  57:.\Generated_Source\PSoC4/BLE_1_gatt.c **** 
  58:.\Generated_Source\PSoC4/BLE_1_gatt.c **** /* Manufacturer Name String */
  59:.\Generated_Source\PSoC4/BLE_1_gatt.c **** (uint8)'C', (uint8)'y', (uint8)'p', (uint8)'r', (uint8)'e', (uint8)'s', (uint8)'s', (uint8)' ', (ui
  60:.\Generated_Source\PSoC4/BLE_1_gatt.c **** (uint8)'m', (uint8)'i', (uint8)'c', (uint8)'o', (uint8)'n', (uint8)'d', (uint8)'u', (uint8)'c', (ui
  61:.\Generated_Source\PSoC4/BLE_1_gatt.c **** (uint8)'r', 
  62:.\Generated_Source\PSoC4/BLE_1_gatt.c **** 
  63:.\Generated_Source\PSoC4/BLE_1_gatt.c **** /* Model Number String */
  64:.\Generated_Source\PSoC4/BLE_1_gatt.c **** (uint8)'B', (uint8)'L', (uint8)'E', (uint8)' ', (uint8)'P', (uint8)'i', (uint8)'o', (uint8)'n', (ui
  65:.\Generated_Source\PSoC4/BLE_1_gatt.c **** (uint8)'r', (uint8)' ', (uint8)'K', (uint8)'i', (uint8)'t', 
  66:.\Generated_Source\PSoC4/BLE_1_gatt.c **** 
  67:.\Generated_Source\PSoC4/BLE_1_gatt.c **** /* Serial Number String */
  68:.\Generated_Source\PSoC4/BLE_1_gatt.c **** (uint8)'1', 
  69:.\Generated_Source\PSoC4/BLE_1_gatt.c **** 
  70:.\Generated_Source\PSoC4/BLE_1_gatt.c **** /* Hardware Revision String */
  71:.\Generated_Source\PSoC4/BLE_1_gatt.c **** (uint8)'*', (uint8)'*', 
  72:.\Generated_Source\PSoC4/BLE_1_gatt.c **** 
  73:.\Generated_Source\PSoC4/BLE_1_gatt.c **** /* Firmware Revision String */
  74:.\Generated_Source\PSoC4/BLE_1_gatt.c **** (uint8)'1', (uint8)'.', (uint8)'0', 
  75:.\Generated_Source\PSoC4/BLE_1_gatt.c **** 
  76:.\Generated_Source\PSoC4/BLE_1_gatt.c **** /* Software Revision String */
  77:.\Generated_Source\PSoC4/BLE_1_gatt.c **** 
  78:.\Generated_Source\PSoC4/BLE_1_gatt.c **** 
  79:.\Generated_Source\PSoC4/BLE_1_gatt.c **** /* System ID */
  80:.\Generated_Source\PSoC4/BLE_1_gatt.c **** 0x00u, 0x00u, 0x00u, 0x00u, 0x00u, 0x00u, 0x00u, 0x00u, 
  81:.\Generated_Source\PSoC4/BLE_1_gatt.c **** 
  82:.\Generated_Source\PSoC4/BLE_1_gatt.c **** /* IEEE 11073-20601 Regulatory Certification Data List */
  83:.\Generated_Source\PSoC4/BLE_1_gatt.c **** 0x00u, 
  84:.\Generated_Source\PSoC4/BLE_1_gatt.c **** 
  85:.\Generated_Source\PSoC4/BLE_1_gatt.c **** /* PnP ID */
  86:.\Generated_Source\PSoC4/BLE_1_gatt.c **** 0x01u, 0x00u, 0x00u, 0x00u, 0x00u, 0x00u, 0x00u, 
  87:.\Generated_Source\PSoC4/BLE_1_gatt.c **** 
  88:.\Generated_Source\PSoC4/BLE_1_gatt.c **** };
  89:.\Generated_Source\PSoC4/BLE_1_gatt.c **** 
  90:.\Generated_Source\PSoC4/BLE_1_gatt.c **** #if defined(__GNUC__) || defined(__ARMCC_VERSION)
  91:.\Generated_Source\PSoC4/BLE_1_gatt.c **** const uint8 cyBle_attValuesCCCDFlashMemory[CYBLE_GAP_MAX_BONDED_DEVICE + 1u][CYBLE_GATT_DB_CCCD_COU
  92:.\Generated_Source\PSoC4/BLE_1_gatt.c **** #elif defined(__ICCARM__)
  93:.\Generated_Source\PSoC4/BLE_1_gatt.c **** /* The cyBle_attValuesCCCDFlashMemory[] should be aligned to the size of a Flash row */
  94:.\Generated_Source\PSoC4/BLE_1_gatt.c **** #pragma data_alignment=CY_FLASH_SIZEOF_ROW
  95:.\Generated_Source\PSoC4/BLE_1_gatt.c **** const uint8 cyBle_attValuesCCCDFlashMemory[CYBLE_GAP_MAX_BONDED_DEVICE + 1u][CYBLE_GATT_DB_CCCD_COU
  96:.\Generated_Source\PSoC4/BLE_1_gatt.c **** #endif /* defined(__GNUC__) || defined(__ARMCC_VERSION) */
  97:.\Generated_Source\PSoC4/BLE_1_gatt.c **** {
  98:.\Generated_Source\PSoC4/BLE_1_gatt.c **** /* Client Characteristic Configuration */
  99:.\Generated_Source\PSoC4/BLE_1_gatt.c **** 0x00u, 0x00u, 
 100:.\Generated_Source\PSoC4/BLE_1_gatt.c **** 
 101:.\Generated_Source\PSoC4/BLE_1_gatt.c **** /* Client Characteristic Configuration */
 102:.\Generated_Source\PSoC4/BLE_1_gatt.c **** 0x00u, 0x00u, 
 103:.\Generated_Source\PSoC4/BLE_1_gatt.c **** 
 104:.\Generated_Source\PSoC4/BLE_1_gatt.c **** },
 105:.\Generated_Source\PSoC4/BLE_1_gatt.c **** {
 106:.\Generated_Source\PSoC4/BLE_1_gatt.c **** /* Client Characteristic Configuration */
 107:.\Generated_Source\PSoC4/BLE_1_gatt.c **** 0x00u, 0x00u, 
ARM GAS  C:\Users\ENESDU~1\AppData\Local\Temp\ccm5rt1g.s 			page 11


 108:.\Generated_Source\PSoC4/BLE_1_gatt.c **** 
 109:.\Generated_Source\PSoC4/BLE_1_gatt.c **** /* Client Characteristic Configuration */
 110:.\Generated_Source\PSoC4/BLE_1_gatt.c **** 0x00u, 0x00u, 
 111:.\Generated_Source\PSoC4/BLE_1_gatt.c **** 
 112:.\Generated_Source\PSoC4/BLE_1_gatt.c **** },
 113:.\Generated_Source\PSoC4/BLE_1_gatt.c **** {
 114:.\Generated_Source\PSoC4/BLE_1_gatt.c **** /* Client Characteristic Configuration */
 115:.\Generated_Source\PSoC4/BLE_1_gatt.c **** 0x00u, 0x00u, 
 116:.\Generated_Source\PSoC4/BLE_1_gatt.c **** 
 117:.\Generated_Source\PSoC4/BLE_1_gatt.c **** /* Client Characteristic Configuration */
 118:.\Generated_Source\PSoC4/BLE_1_gatt.c **** 0x00u, 0x00u, 
 119:.\Generated_Source\PSoC4/BLE_1_gatt.c **** 
 120:.\Generated_Source\PSoC4/BLE_1_gatt.c **** },
 121:.\Generated_Source\PSoC4/BLE_1_gatt.c **** {
 122:.\Generated_Source\PSoC4/BLE_1_gatt.c **** /* Client Characteristic Configuration */
 123:.\Generated_Source\PSoC4/BLE_1_gatt.c **** 0x00u, 0x00u, 
 124:.\Generated_Source\PSoC4/BLE_1_gatt.c **** 
 125:.\Generated_Source\PSoC4/BLE_1_gatt.c **** /* Client Characteristic Configuration */
 126:.\Generated_Source\PSoC4/BLE_1_gatt.c **** 0x00u, 0x00u, 
 127:.\Generated_Source\PSoC4/BLE_1_gatt.c **** 
 128:.\Generated_Source\PSoC4/BLE_1_gatt.c **** },
 129:.\Generated_Source\PSoC4/BLE_1_gatt.c **** {
 130:.\Generated_Source\PSoC4/BLE_1_gatt.c **** /* Client Characteristic Configuration */
 131:.\Generated_Source\PSoC4/BLE_1_gatt.c **** 0x00u, 0x00u, 
 132:.\Generated_Source\PSoC4/BLE_1_gatt.c **** 
 133:.\Generated_Source\PSoC4/BLE_1_gatt.c **** /* Client Characteristic Configuration */
 134:.\Generated_Source\PSoC4/BLE_1_gatt.c **** 0x00u, 0x00u, 
 135:.\Generated_Source\PSoC4/BLE_1_gatt.c **** 
 136:.\Generated_Source\PSoC4/BLE_1_gatt.c **** },
 137:.\Generated_Source\PSoC4/BLE_1_gatt.c **** };
 138:.\Generated_Source\PSoC4/BLE_1_gatt.c **** uint8 cyBle_attValuesCCCD[CYBLE_GATT_DB_CCCD_COUNT];
 139:.\Generated_Source\PSoC4/BLE_1_gatt.c **** 
 140:.\Generated_Source\PSoC4/BLE_1_gatt.c **** const CYBLE_GATTS_DB_T cyBle_gattDB[0x26u] = {
 141:.\Generated_Source\PSoC4/BLE_1_gatt.c **** { 0x0001u, 0x2800u /* Primary service                     */, 0x00000001u /*        */, 0x0007u, {{
 142:.\Generated_Source\PSoC4/BLE_1_gatt.c **** { 0x0002u, 0x2803u /* Characteristic                      */, 0x00000201u /* rd     */, 0x0003u, {{
 143:.\Generated_Source\PSoC4/BLE_1_gatt.c **** { 0x0003u, 0x2A00u /* Device Name                         */, 0x00000201u /* rd     */, 0x0003u, {{
 144:.\Generated_Source\PSoC4/BLE_1_gatt.c **** { 0x0004u, 0x2803u /* Characteristic                      */, 0x00000201u /* rd     */, 0x0005u, {{
 145:.\Generated_Source\PSoC4/BLE_1_gatt.c **** { 0x0005u, 0x2A01u /* Appearance                          */, 0x00000201u /* rd     */, 0x0005u, {{
 146:.\Generated_Source\PSoC4/BLE_1_gatt.c **** { 0x0006u, 0x2803u /* Characteristic                      */, 0x00000201u /* rd     */, 0x0007u, {{
 147:.\Generated_Source\PSoC4/BLE_1_gatt.c **** { 0x0007u, 0x2A04u /* Peripheral Preferred Connection Par */, 0x00000201u /* rd     */, 0x0007u, {{
 148:.\Generated_Source\PSoC4/BLE_1_gatt.c **** { 0x0008u, 0x2800u /* Primary service                     */, 0x00000001u /*        */, 0x000Bu, {{
 149:.\Generated_Source\PSoC4/BLE_1_gatt.c **** { 0x0009u, 0x2803u /* Characteristic                      */, 0x00002201u /* rd,ind */, 0x000Bu, {{
 150:.\Generated_Source\PSoC4/BLE_1_gatt.c **** { 0x000Au, 0x2A05u /* Service Changed                     */, 0x00002201u /* rd,ind */, 0x000Bu, {{
 151:.\Generated_Source\PSoC4/BLE_1_gatt.c **** { 0x000Bu, 0x2902u /* Client Characteristic Configuration */, 0x00000A04u /* rd,wr  */, 0x000Bu, {{
 152:.\Generated_Source\PSoC4/BLE_1_gatt.c **** { 0x000Cu, 0x2800u /* Primary service                     */, 0x00000001u /*        */, 0x0013u, {{
 153:.\Generated_Source\PSoC4/BLE_1_gatt.c **** { 0x000Du, 0x2803u /* Characteristic                      */, 0x00001001u /* ntf    */, 0x000Fu, {{
 154:.\Generated_Source\PSoC4/BLE_1_gatt.c **** { 0x000Eu, 0x2A37u /* Heart Rate Measurement              */, 0x00001000u /* ntf    */, 0x000Fu, {{
 155:.\Generated_Source\PSoC4/BLE_1_gatt.c **** { 0x000Fu, 0x2902u /* Client Characteristic Configuration */, 0x00000A04u /* rd,wr  */, 0x000Fu, {{
 156:.\Generated_Source\PSoC4/BLE_1_gatt.c **** { 0x0010u, 0x2803u /* Characteristic                      */, 0x00000201u /* rd     */, 0x0011u, {{
 157:.\Generated_Source\PSoC4/BLE_1_gatt.c **** { 0x0011u, 0x2A38u /* Body Sensor Location                */, 0x00000201u /* rd     */, 0x0011u, {{
 158:.\Generated_Source\PSoC4/BLE_1_gatt.c **** { 0x0012u, 0x2803u /* Characteristic                      */, 0x00000801u /* wr     */, 0x0013u, {{
 159:.\Generated_Source\PSoC4/BLE_1_gatt.c **** { 0x0013u, 0x2A39u /* Heart Rate Control Point            */, 0x00000802u /* wr     */, 0x0013u, {{
 160:.\Generated_Source\PSoC4/BLE_1_gatt.c **** { 0x0014u, 0x2800u /* Primary service                     */, 0x00000001u /*        */, 0x0026u, {{
 161:.\Generated_Source\PSoC4/BLE_1_gatt.c **** { 0x0015u, 0x2803u /* Characteristic                      */, 0x00000201u /* rd     */, 0x0016u, {{
 162:.\Generated_Source\PSoC4/BLE_1_gatt.c **** { 0x0016u, 0x2A29u /* Manufacturer Name String            */, 0x00000201u /* rd     */, 0x0016u, {{
 163:.\Generated_Source\PSoC4/BLE_1_gatt.c **** { 0x0017u, 0x2803u /* Characteristic                      */, 0x00000201u /* rd     */, 0x0018u, {{
 164:.\Generated_Source\PSoC4/BLE_1_gatt.c **** { 0x0018u, 0x2A24u /* Model Number String                 */, 0x00000201u /* rd     */, 0x0018u, {{
ARM GAS  C:\Users\ENESDU~1\AppData\Local\Temp\ccm5rt1g.s 			page 12


 165:.\Generated_Source\PSoC4/BLE_1_gatt.c **** { 0x0019u, 0x2803u /* Characteristic                      */, 0x00000201u /* rd     */, 0x001Au, {{
 166:.\Generated_Source\PSoC4/BLE_1_gatt.c **** { 0x001Au, 0x2A25u /* Serial Number String                */, 0x00000201u /* rd     */, 0x001Au, {{
 167:.\Generated_Source\PSoC4/BLE_1_gatt.c **** { 0x001Bu, 0x2803u /* Characteristic                      */, 0x00000201u /* rd     */, 0x001Cu, {{
 168:.\Generated_Source\PSoC4/BLE_1_gatt.c **** { 0x001Cu, 0x2A27u /* Hardware Revision String            */, 0x00000201u /* rd     */, 0x001Cu, {{
 169:.\Generated_Source\PSoC4/BLE_1_gatt.c **** { 0x001Du, 0x2803u /* Characteristic                      */, 0x00000201u /* rd     */, 0x001Eu, {{
 170:.\Generated_Source\PSoC4/BLE_1_gatt.c **** { 0x001Eu, 0x2A26u /* Firmware Revision String            */, 0x00000201u /* rd     */, 0x001Eu, {{
 171:.\Generated_Source\PSoC4/BLE_1_gatt.c **** { 0x001Fu, 0x2803u /* Characteristic                      */, 0x00000201u /* rd     */, 0x0020u, {{
 172:.\Generated_Source\PSoC4/BLE_1_gatt.c **** { 0x0020u, 0x2A28u /* Software Revision String            */, 0x00000201u /* rd     */, 0x0020u, {{
 173:.\Generated_Source\PSoC4/BLE_1_gatt.c **** { 0x0021u, 0x2803u /* Characteristic                      */, 0x00000201u /* rd     */, 0x0022u, {{
 174:.\Generated_Source\PSoC4/BLE_1_gatt.c **** { 0x0022u, 0x2A23u /* System ID                           */, 0x00000201u /* rd     */, 0x0022u, {{
 175:.\Generated_Source\PSoC4/BLE_1_gatt.c **** { 0x0023u, 0x2803u /* Characteristic                      */, 0x00000201u /* rd     */, 0x0024u, {{
 176:.\Generated_Source\PSoC4/BLE_1_gatt.c **** { 0x0024u, 0x2A2Au /* IEEE 11073-20601 Regulatory Certifi */, 0x00000201u /* rd     */, 0x0024u, {{
 177:.\Generated_Source\PSoC4/BLE_1_gatt.c **** { 0x0025u, 0x2803u /* Characteristic                      */, 0x00000201u /* rd     */, 0x0026u, {{
 178:.\Generated_Source\PSoC4/BLE_1_gatt.c **** { 0x0026u, 0x2A50u /* PnP ID                              */, 0x00000201u /* rd     */, 0x0026u, {{
 179:.\Generated_Source\PSoC4/BLE_1_gatt.c **** };
 180:.\Generated_Source\PSoC4/BLE_1_gatt.c **** 
 181:.\Generated_Source\PSoC4/BLE_1_gatt.c **** 
 182:.\Generated_Source\PSoC4/BLE_1_gatt.c **** #endif /* (CYBLE_GATT_ROLE_SERVER) */
 183:.\Generated_Source\PSoC4/BLE_1_gatt.c **** 
 184:.\Generated_Source\PSoC4/BLE_1_gatt.c **** #if(CYBLE_GATT_ROLE_CLIENT)
 185:.\Generated_Source\PSoC4/BLE_1_gatt.c ****     
 186:.\Generated_Source\PSoC4/BLE_1_gatt.c **** CYBLE_CLIENT_STATE_T cyBle_clientState;
 187:.\Generated_Source\PSoC4/BLE_1_gatt.c **** CYBLE_GATTC_T cyBle_gattc;
 188:.\Generated_Source\PSoC4/BLE_1_gatt.c ****     
 189:.\Generated_Source\PSoC4/BLE_1_gatt.c **** #endif /* (CYBLE_GATT_ROLE_CLIENT) */
 190:.\Generated_Source\PSoC4/BLE_1_gatt.c **** 
 191:.\Generated_Source\PSoC4/BLE_1_gatt.c **** 
 192:.\Generated_Source\PSoC4/BLE_1_gatt.c **** #if(CYBLE_GATT_ROLE_SERVER)
 193:.\Generated_Source\PSoC4/BLE_1_gatt.c **** 
 194:.\Generated_Source\PSoC4/BLE_1_gatt.c **** /****************************************************************************** 
 195:.\Generated_Source\PSoC4/BLE_1_gatt.c **** ##Function Name: CyBle_GattsReInitGattDb
 196:.\Generated_Source\PSoC4/BLE_1_gatt.c **** *******************************************************************************
 197:.\Generated_Source\PSoC4/BLE_1_gatt.c **** 
 198:.\Generated_Source\PSoC4/BLE_1_gatt.c **** Summary:
 199:.\Generated_Source\PSoC4/BLE_1_gatt.c ****  Reinitializes the GATT database.
 200:.\Generated_Source\PSoC4/BLE_1_gatt.c **** 
 201:.\Generated_Source\PSoC4/BLE_1_gatt.c **** Parameters:
 202:.\Generated_Source\PSoC4/BLE_1_gatt.c ****  None
 203:.\Generated_Source\PSoC4/BLE_1_gatt.c **** 
 204:.\Generated_Source\PSoC4/BLE_1_gatt.c **** Return:
 205:.\Generated_Source\PSoC4/BLE_1_gatt.c ****  CYBLE_API_RESULT_T: An API result states if the API succeeded or failed with
 206:.\Generated_Source\PSoC4/BLE_1_gatt.c ****  error codes:
 207:.\Generated_Source\PSoC4/BLE_1_gatt.c ****   * CYBLE_ERROR_OK: GATT database was reinitialized successfully
 208:.\Generated_Source\PSoC4/BLE_1_gatt.c ****   * CYBLE_ERROR_INVALID_STATE: If the function is called in any state except
 209:.\Generated_Source\PSoC4/BLE_1_gatt.c ****                                 CYBLE_STATE_DISCONNECTED.
 210:.\Generated_Source\PSoC4/BLE_1_gatt.c ****   * Any of the CyBle_GattsDbRegister() stack API function return values.
 211:.\Generated_Source\PSoC4/BLE_1_gatt.c **** 
 212:.\Generated_Source\PSoC4/BLE_1_gatt.c **** ******************************************************************************/
 213:.\Generated_Source\PSoC4/BLE_1_gatt.c **** CYBLE_API_RESULT_T CyBle_GattsReInitGattDb(void)
 214:.\Generated_Source\PSoC4/BLE_1_gatt.c **** {
 452              		.loc 1 214 0
 453              		.cfi_startproc
 454 0000 90B5     		push	{r4, r7, lr}
 455              		.cfi_def_cfa_offset 12
 456              		.cfi_offset 4, -12
 457              		.cfi_offset 7, -8
 458              		.cfi_offset 14, -4
ARM GAS  C:\Users\ENESDU~1\AppData\Local\Temp\ccm5rt1g.s 			page 13


 459 0002 83B0     		sub	sp, sp, #12
 460              		.cfi_def_cfa_offset 24
 461 0004 00AF     		add	r7, sp, #0
 462              		.cfi_def_cfa_register 7
 215:.\Generated_Source\PSoC4/BLE_1_gatt.c ****     CYBLE_API_RESULT_T apiResult;
 216:.\Generated_Source\PSoC4/BLE_1_gatt.c ****     
 217:.\Generated_Source\PSoC4/BLE_1_gatt.c ****     if(CYBLE_STATE_DISCONNECTED == CyBle_GetState())
 463              		.loc 1 217 0
 464 0006 0C4B     		ldr	r3, .L5
 465 0008 1B78     		ldrb	r3, [r3]
 466 000a 042B     		cmp	r3, #4
 467 000c 09D1     		bne	.L2
 218:.\Generated_Source\PSoC4/BLE_1_gatt.c ****     {
 219:.\Generated_Source\PSoC4/BLE_1_gatt.c ****         apiResult = CyBle_GattsDbRegister(cyBle_gattDB, CYBLE_GATT_DB_INDEX_COUNT, CYBLE_GATT_DB_MA
 468              		.loc 1 219 0
 469 000e BC1D     		add	r4, r7, #6
 470 0010 0A4B     		ldr	r3, .L5+4
 471 0012 181C     		mov	r0, r3
 472 0014 2621     		mov	r1, #38
 473 0016 1522     		mov	r2, #21
 474 0018 FFF7FEFF 		bl	CyBle_GattsDbRegister
 475 001c 031C     		mov	r3, r0
 476 001e 2380     		strh	r3, [r4]
 477 0020 03E0     		b	.L3
 478              	.L2:
 220:.\Generated_Source\PSoC4/BLE_1_gatt.c ****     }
 221:.\Generated_Source\PSoC4/BLE_1_gatt.c ****     else
 222:.\Generated_Source\PSoC4/BLE_1_gatt.c ****     {
 223:.\Generated_Source\PSoC4/BLE_1_gatt.c ****         apiResult = CYBLE_ERROR_INVALID_STATE;
 479              		.loc 1 223 0
 480 0022 BB1D     		add	r3, r7, #6
 481 0024 8322     		mov	r2, #131
 482 0026 5200     		lsl	r2, r2, #1
 483 0028 1A80     		strh	r2, [r3]
 484              	.L3:
 224:.\Generated_Source\PSoC4/BLE_1_gatt.c ****     }
 225:.\Generated_Source\PSoC4/BLE_1_gatt.c ****     
 226:.\Generated_Source\PSoC4/BLE_1_gatt.c ****     return(apiResult);
 485              		.loc 1 226 0
 486 002a BB1D     		add	r3, r7, #6
 487 002c 1B88     		ldrh	r3, [r3]
 227:.\Generated_Source\PSoC4/BLE_1_gatt.c **** }
 488              		.loc 1 227 0
 489 002e 181C     		mov	r0, r3
 490 0030 BD46     		mov	sp, r7
 491 0032 03B0     		add	sp, sp, #12
 492              		@ sp needed
 493 0034 90BD     		pop	{r4, r7, pc}
 494              	.L6:
 495 0036 C046     		.align	2
 496              	.L5:
 497 0038 00000000 		.word	cyBle_state
 498 003c 00000000 		.word	cyBle_gattDB
 499              		.cfi_endproc
 500              	.LFE2:
 501              		.size	CyBle_GattsReInitGattDb, .-CyBle_GattsReInitGattDb
 502              		.section	.text.CyBle_GattsWriteEventHandler,"ax",%progbits
ARM GAS  C:\Users\ENESDU~1\AppData\Local\Temp\ccm5rt1g.s 			page 14


 503              		.align	2
 504              		.global	CyBle_GattsWriteEventHandler
 505              		.code	16
 506              		.thumb_func
 507              		.type	CyBle_GattsWriteEventHandler, %function
 508              	CyBle_GattsWriteEventHandler:
 509              	.LFB3:
 228:.\Generated_Source\PSoC4/BLE_1_gatt.c **** 
 229:.\Generated_Source\PSoC4/BLE_1_gatt.c **** 
 230:.\Generated_Source\PSoC4/BLE_1_gatt.c **** /****************************************************************************** 
 231:.\Generated_Source\PSoC4/BLE_1_gatt.c **** ##Function Name: CyBle_GattsWriteEventHandler
 232:.\Generated_Source\PSoC4/BLE_1_gatt.c **** *******************************************************************************
 233:.\Generated_Source\PSoC4/BLE_1_gatt.c **** 
 234:.\Generated_Source\PSoC4/BLE_1_gatt.c **** Summary:
 235:.\Generated_Source\PSoC4/BLE_1_gatt.c ****  Handles the Write Request Event for GATT service.
 236:.\Generated_Source\PSoC4/BLE_1_gatt.c **** 
 237:.\Generated_Source\PSoC4/BLE_1_gatt.c **** Parameters:
 238:.\Generated_Source\PSoC4/BLE_1_gatt.c ****  *eventParam: The pointer to the data structure specified by the event.
 239:.\Generated_Source\PSoC4/BLE_1_gatt.c **** 
 240:.\Generated_Source\PSoC4/BLE_1_gatt.c **** Return:
 241:.\Generated_Source\PSoC4/BLE_1_gatt.c ****  * CYBLE_GATT_ERR_CODE_T: An API result returns one of the following status 
 242:.\Generated_Source\PSoC4/BLE_1_gatt.c ****     values
 243:.\Generated_Source\PSoC4/BLE_1_gatt.c ****  * CYBLE_GATT_ERR_NONE - Write is successful.
 244:.\Generated_Source\PSoC4/BLE_1_gatt.c **** 
 245:.\Generated_Source\PSoC4/BLE_1_gatt.c **** ******************************************************************************/
 246:.\Generated_Source\PSoC4/BLE_1_gatt.c **** CYBLE_GATT_ERR_CODE_T CyBle_GattsWriteEventHandler(CYBLE_GATTS_WRITE_REQ_PARAM_T *eventParam)
 247:.\Generated_Source\PSoC4/BLE_1_gatt.c **** {
 510              		.loc 1 247 0
 511              		.cfi_startproc
 512 0000 90B5     		push	{r4, r7, lr}
 513              		.cfi_def_cfa_offset 12
 514              		.cfi_offset 4, -12
 515              		.cfi_offset 7, -8
 516              		.cfi_offset 14, -4
 517 0002 85B0     		sub	sp, sp, #20
 518              		.cfi_def_cfa_offset 32
 519 0004 00AF     		add	r7, sp, #0
 520              		.cfi_def_cfa_register 7
 521 0006 7860     		str	r0, [r7, #4]
 248:.\Generated_Source\PSoC4/BLE_1_gatt.c ****     CYBLE_GATT_ERR_CODE_T gattErr = CYBLE_GATT_ERR_NONE;
 522              		.loc 1 248 0
 523 0008 3B1C     		mov	r3, r7
 524 000a 0F33     		add	r3, r3, #15
 525 000c 0022     		mov	r2, #0
 526 000e 1A70     		strb	r2, [r3]
 249:.\Generated_Source\PSoC4/BLE_1_gatt.c ****     
 250:.\Generated_Source\PSoC4/BLE_1_gatt.c ****     /* Client Characteristic Configuration descriptor write request */
 251:.\Generated_Source\PSoC4/BLE_1_gatt.c ****     if(eventParam->handleValPair.attrHandle == cyBle_gatts.cccdHandle)
 527              		.loc 1 251 0
 528 0010 7B68     		ldr	r3, [r7, #4]
 529 0012 9A89     		ldrh	r2, [r3, #12]
 530 0014 0B23     		mov	r3, #11
 531 0016 9A42     		cmp	r2, r3
 532 0018 37D1     		bne	.L8
 252:.\Generated_Source\PSoC4/BLE_1_gatt.c ****     {
 253:.\Generated_Source\PSoC4/BLE_1_gatt.c ****         /* Store value to database */
 254:.\Generated_Source\PSoC4/BLE_1_gatt.c ****         gattErr = CyBle_GattsWriteAttributeValue(&eventParam->handleValPair, 0u, 
ARM GAS  C:\Users\ENESDU~1\AppData\Local\Temp\ccm5rt1g.s 			page 15


 533              		.loc 1 254 0
 534 001a 7B68     		ldr	r3, [r7, #4]
 535 001c 1A1D     		add	r2, r3, #4
 536 001e 7B68     		ldr	r3, [r7, #4]
 537 0020 3C1C     		mov	r4, r7
 538 0022 0F34     		add	r4, r4, #15
 539 0024 101C     		mov	r0, r2
 540 0026 0021     		mov	r1, #0
 541 0028 1A1C     		mov	r2, r3
 542 002a 4023     		mov	r3, #64
 543 002c FFF7FEFF 		bl	CyBle_GattsWriteAttributeValue
 544 0030 031C     		mov	r3, r0
 545 0032 2370     		strb	r3, [r4]
 255:.\Generated_Source\PSoC4/BLE_1_gatt.c ****                         &eventParam->connHandle, CYBLE_GATT_DB_PEER_INITIATED);
 256:.\Generated_Source\PSoC4/BLE_1_gatt.c ****         
 257:.\Generated_Source\PSoC4/BLE_1_gatt.c ****         if(CYBLE_GATT_ERR_NONE == gattErr)
 546              		.loc 1 257 0
 547 0034 3B1C     		mov	r3, r7
 548 0036 0F33     		add	r3, r3, #15
 549 0038 1B78     		ldrb	r3, [r3]
 550 003a 002B     		cmp	r3, #0
 551 003c 1DD1     		bne	.L9
 258:.\Generated_Source\PSoC4/BLE_1_gatt.c ****         {
 259:.\Generated_Source\PSoC4/BLE_1_gatt.c ****             if(CYBLE_IS_INDICATION_ENABLED_IN_PTR(eventParam->handleValPair.value.val))
 552              		.loc 1 259 0
 553 003e 7B68     		ldr	r3, [r7, #4]
 554 0040 5B68     		ldr	r3, [r3, #4]
 555 0042 181C     		mov	r0, r3
 556 0044 FFF7FEFF 		bl	CyBle_Get16ByPtr
 557 0048 031C     		mov	r3, r0
 558 004a 1A1C     		mov	r2, r3
 559 004c 0223     		mov	r3, #2
 560 004e 1340     		and	r3, r2
 561 0050 9BB2     		uxth	r3, r3
 562 0052 002B     		cmp	r3, #0
 563 0054 08D0     		beq	.L10
 260:.\Generated_Source\PSoC4/BLE_1_gatt.c ****             {
 261:.\Generated_Source\PSoC4/BLE_1_gatt.c ****                 CyBle_ApplCallback((uint32)CYBLE_EVT_GATTS_INDICATION_ENABLED, eventParam);
 564              		.loc 1 261 0
 565 0056 104B     		ldr	r3, .L12
 566 0058 1B68     		ldr	r3, [r3]
 567 005a 8222     		mov	r2, #130
 568 005c 5100     		lsl	r1, r2, #1
 569 005e 7A68     		ldr	r2, [r7, #4]
 570 0060 081C     		mov	r0, r1
 571 0062 111C     		mov	r1, r2
 572 0064 9847     		blx	r3
 573 0066 08E0     		b	.L9
 574              	.L10:
 262:.\Generated_Source\PSoC4/BLE_1_gatt.c ****             }
 263:.\Generated_Source\PSoC4/BLE_1_gatt.c ****             else
 264:.\Generated_Source\PSoC4/BLE_1_gatt.c ****             {
 265:.\Generated_Source\PSoC4/BLE_1_gatt.c ****                 CyBle_ApplCallback((uint32)CYBLE_EVT_GATTS_INDICATION_DISABLED, eventParam);
 575              		.loc 1 265 0
 576 0068 0B4B     		ldr	r3, .L12
 577 006a 1B68     		ldr	r3, [r3]
 578 006c 0622     		mov	r2, #6
ARM GAS  C:\Users\ENESDU~1\AppData\Local\Temp\ccm5rt1g.s 			page 16


 579 006e 111C     		mov	r1, r2
 580 0070 FF31     		add	r1, r1, #255
 581 0072 7A68     		ldr	r2, [r7, #4]
 582 0074 081C     		mov	r0, r1
 583 0076 111C     		mov	r1, r2
 584 0078 9847     		blx	r3
 585              	.L9:
 266:.\Generated_Source\PSoC4/BLE_1_gatt.c ****             }
 267:.\Generated_Source\PSoC4/BLE_1_gatt.c ****         }
 268:.\Generated_Source\PSoC4/BLE_1_gatt.c ****         cyBle_eventHandlerFlag &= (uint8)~CYBLE_CALLBACK;
 586              		.loc 1 268 0
 587 007a 084B     		ldr	r3, .L12+4
 588 007c 1B78     		ldrb	r3, [r3]
 589 007e DBB2     		uxtb	r3, r3
 590 0080 0122     		mov	r2, #1
 591 0082 9343     		bic	r3, r2
 592 0084 DAB2     		uxtb	r2, r3
 593 0086 054B     		ldr	r3, .L12+4
 594 0088 1A70     		strb	r2, [r3]
 595              	.L8:
 269:.\Generated_Source\PSoC4/BLE_1_gatt.c ****     }
 270:.\Generated_Source\PSoC4/BLE_1_gatt.c ****     return (gattErr);
 596              		.loc 1 270 0
 597 008a 3B1C     		mov	r3, r7
 598 008c 0F33     		add	r3, r3, #15
 599 008e 1B78     		ldrb	r3, [r3]
 271:.\Generated_Source\PSoC4/BLE_1_gatt.c **** }
 600              		.loc 1 271 0
 601 0090 181C     		mov	r0, r3
 602 0092 BD46     		mov	sp, r7
 603 0094 05B0     		add	sp, sp, #20
 604              		@ sp needed
 605 0096 90BD     		pop	{r4, r7, pc}
 606              	.L13:
 607              		.align	2
 608              	.L12:
 609 0098 00000000 		.word	CyBle_ApplCallback
 610 009c 00000000 		.word	cyBle_eventHandlerFlag
 611              		.cfi_endproc
 612              	.LFE3:
 613              		.size	CyBle_GattsWriteEventHandler, .-CyBle_GattsWriteEventHandler
 614              		.text
 615              	.Letext0:
 616              		.file 2 ".\\Generated_Source\\PSoC4\\cytypes.h"
 617              		.file 3 ".\\Generated_Source\\PSoC4\\BLE_1_Stack.h"
 618              		.file 4 ".\\Generated_Source\\PSoC4\\BLE_1_StackGatt.h"
 619              		.file 5 ".\\Generated_Source\\PSoC4\\BLE_1_StackGattServer.h"
 620              		.file 6 ".\\Generated_Source\\PSoC4\\BLE_1_StackGattDb.h"
 621              		.file 7 ".\\Generated_Source\\PSoC4\\BLE_1.h"
 622              		.file 8 ".\\Generated_Source\\PSoC4\\BLE_1_gatt.h"
 623              		.file 9 ".\\Generated_Source\\PSoC4\\BLE_1_dis.h"
 624              		.file 10 ".\\Generated_Source\\PSoC4\\BLE_1_hrs.h"
 625              		.file 11 ".\\Generated_Source\\PSoC4\\BLE_1_eventHandler.h"