ARM GAS  C:\Users\ENESDU~1\AppData\Local\Temp\ccn4fiPa.s 			page 1


   1              		.cpu cortex-m0
   2              		.fpu softvfp
   3              		.eabi_attribute 20, 1
   4              		.eabi_attribute 21, 1
   5              		.eabi_attribute 23, 3
   6              		.eabi_attribute 24, 1
   7              		.eabi_attribute 25, 1
   8              		.eabi_attribute 26, 1
   9              		.eabi_attribute 30, 6
  10              		.eabi_attribute 34, 0
  11              		.eabi_attribute 18, 4
  12              		.code	16
  13              		.file	"BLE_1.c"
  14              		.text
  15              	.Ltext0:
  16              		.cfi_sections	.debug_frame
  17              		.global	cyBle_initVar
  18              		.bss
  19              		.type	cyBle_initVar, %object
  20              		.size	cyBle_initVar, 1
  21              	cyBle_initVar:
  22 0000 00       		.space	1
  23              		.comm	CyBle_ApplCallback,4,4
  24              		.global	cyBle_deviceAddress
  25              		.data
  26              		.align	2
  27              		.type	cyBle_deviceAddress, %object
  28              		.size	cyBle_deviceAddress, 7
  29              	cyBle_deviceAddress:
  30 0000 00       		.byte	0
  31 0001 00       		.byte	0
  32 0002 00       		.byte	0
  33 0003 50       		.byte	80
  34 0004 A0       		.byte	-96
  35 0005 00       		.byte	0
  36 0006 00       		.byte	0
  37              		.global	cyBle_sflashDeviceAddress
  38 0007 00       		.align	2
  39              		.type	cyBle_sflashDeviceAddress, %object
  40              		.size	cyBle_sflashDeviceAddress, 4
  41              	cyBle_sflashDeviceAddress:
  42 0008 00F2FF0F 		.word	268431872
  43              		.global	cyBle_discoveryParam
  44              		.align	2
  45              		.type	cyBle_discoveryParam, %object
  46              		.size	cyBle_discoveryParam, 16
  47              	cyBle_discoveryParam:
  48 000c 2000     		.short	32
  49 000e 3000     		.short	48
  50 0010 00       		.byte	0
  51 0011 00       		.byte	0
  52 0012 00       		.byte	0
  53 0013 00       		.byte	0
  54 0014 00       		.byte	0
  55 0015 00       		.byte	0
  56 0016 50       		.byte	80
  57 0017 A0       		.byte	-96
ARM GAS  C:\Users\ENESDU~1\AppData\Local\Temp\ccn4fiPa.s 			page 2


  58 0018 00       		.byte	0
  59 0019 07       		.byte	7
  60 001a 00       		.byte	0
  61 001b 00       		.space	1
  62              		.global	cyBle_discoveryData
  63              		.align	2
  64              		.type	cyBle_discoveryData, %object
  65              		.size	cyBle_discoveryData, 32
  66              	cyBle_discoveryData:
  67 001c 02       		.byte	2
  68 001d 01       		.byte	1
  69 001e 06       		.byte	6
  70 001f 13       		.byte	19
  71 0020 09       		.byte	9
  72 0021 42       		.byte	66
  73 0022 4C       		.byte	76
  74 0023 45       		.byte	69
  75 0024 20       		.byte	32
  76 0025 4C       		.byte	76
  77 0026 61       		.byte	97
  78 0027 62       		.byte	98
  79 0028 20       		.byte	32
  80 0029 33       		.byte	51
  81 002a 20       		.byte	32
  82 002b 47       		.byte	71
  83 002c 72       		.byte	114
  84 002d 6F       		.byte	111
  85 002e 75       		.byte	117
  86 002f 70       		.byte	112
  87 0030 20       		.byte	32
  88 0031 31       		.byte	49
  89 0032 30       		.byte	48
  90 0033 05       		.byte	5
  91 0034 03       		.byte	3
  92 0035 0D       		.byte	13
  93 0036 18       		.byte	24
  94 0037 0A       		.byte	10
  95 0038 18       		.byte	24
  96 0039 00       		.byte	0
  97 003a 00       		.byte	0
  98 003b 1D       		.byte	29
  99              		.global	cyBle_scanRspData
 100              		.align	2
 101              		.type	cyBle_scanRspData, %object
 102              		.size	cyBle_scanRspData, 32
 103              	cyBle_scanRspData:
 104 003c 13       		.byte	19
 105 003d 09       		.byte	9
 106 003e 42       		.byte	66
 107 003f 4C       		.byte	76
 108 0040 45       		.byte	69
 109 0041 20       		.byte	32
 110 0042 4C       		.byte	76
 111 0043 61       		.byte	97
 112 0044 62       		.byte	98
 113 0045 20       		.byte	32
 114 0046 33       		.byte	51
ARM GAS  C:\Users\ENESDU~1\AppData\Local\Temp\ccn4fiPa.s 			page 3


 115 0047 20       		.byte	32
 116 0048 47       		.byte	71
 117 0049 72       		.byte	114
 118 004a 6F       		.byte	111
 119 004b 75       		.byte	117
 120 004c 70       		.byte	112
 121 004d 20       		.byte	32
 122 004e 31       		.byte	49
 123 004f 30       		.byte	48
 124 0050 00       		.byte	0
 125 0051 00       		.byte	0
 126 0052 00       		.byte	0
 127 0053 00       		.byte	0
 128 0054 00       		.byte	0
 129 0055 00       		.byte	0
 130 0056 00       		.byte	0
 131 0057 00       		.byte	0
 132 0058 00       		.byte	0
 133 0059 00       		.byte	0
 134 005a 00       		.byte	0
 135 005b 14       		.byte	20
 136              		.global	cyBle_discoveryModeInfo
 137              		.align	2
 138              		.type	cyBle_discoveryModeInfo, %object
 139              		.size	cyBle_discoveryModeInfo, 20
 140              	cyBle_discoveryModeInfo:
 141 005c 02       		.byte	2
 142 005d 000000   		.space	3
 143 0060 00000000 		.word	cyBle_discoveryParam
 144 0064 00000000 		.word	cyBle_discoveryData
 145 0068 00000000 		.word	cyBle_scanRspData
 146 006c 1E00     		.short	30
 147 006e 0000     		.space	2
 148              		.comm	cyBle_pendingFlashWrite,1,1
 149              		.section	.text.CyBle_Init,"ax",%progbits
 150              		.align	2
 151              		.global	CyBle_Init
 152              		.code	16
 153              		.thumb_func
 154              		.type	CyBle_Init, %function
 155              	CyBle_Init:
 156              	.LFB2:
 157              		.file 1 ".\\Generated_Source\\PSoC4\\BLE_1.c"
   1:.\Generated_Source\PSoC4/BLE_1.c **** /*******************************************************************************
   2:.\Generated_Source\PSoC4/BLE_1.c **** File Name: CYBLE.c
   3:.\Generated_Source\PSoC4/BLE_1.c **** Version 1.10
   4:.\Generated_Source\PSoC4/BLE_1.c **** 
   5:.\Generated_Source\PSoC4/BLE_1.c **** Description:
   6:.\Generated_Source\PSoC4/BLE_1.c ****  This file contains the source code for the Common APIs of the BLE Component.
   7:.\Generated_Source\PSoC4/BLE_1.c **** 
   8:.\Generated_Source\PSoC4/BLE_1.c **** ********************************************************************************
   9:.\Generated_Source\PSoC4/BLE_1.c **** Copyright 2014, Cypress Semiconductor Corporation.  All rights reserved.
  10:.\Generated_Source\PSoC4/BLE_1.c **** You may use this file only in accordance with the license, terms, conditions,
  11:.\Generated_Source\PSoC4/BLE_1.c **** disclaimers, and limitations in the end user license agreement accompanying
  12:.\Generated_Source\PSoC4/BLE_1.c **** the software package with which this file was provided.
  13:.\Generated_Source\PSoC4/BLE_1.c **** *******************************************************************************/
  14:.\Generated_Source\PSoC4/BLE_1.c **** 
ARM GAS  C:\Users\ENESDU~1\AppData\Local\Temp\ccn4fiPa.s 			page 4


  15:.\Generated_Source\PSoC4/BLE_1.c **** #include "BLE_1_eventHandler.h"
  16:.\Generated_Source\PSoC4/BLE_1.c **** #include "BLE_1_HAL_PVT.h"
  17:.\Generated_Source\PSoC4/BLE_1.c **** 
  18:.\Generated_Source\PSoC4/BLE_1.c **** 
  19:.\Generated_Source\PSoC4/BLE_1.c **** /***************************************
  20:.\Generated_Source\PSoC4/BLE_1.c **** ##Function Prototypes
  21:.\Generated_Source\PSoC4/BLE_1.c **** ***************************************/
  22:.\Generated_Source\PSoC4/BLE_1.c **** 
  23:.\Generated_Source\PSoC4/BLE_1.c **** #if(CYBLE_GATT_ROLE_SERVER)
  24:.\Generated_Source\PSoC4/BLE_1.c ****     #if(CYBLE_GAP_ROLE_PERIPHERAL)
  25:.\Generated_Source\PSoC4/BLE_1.c ****         static void CyBle_ChangeAdLocalName(const char8 name[], uint8 dest);
  26:.\Generated_Source\PSoC4/BLE_1.c ****     #endif /* (CYBLE_GAP_ROLE_PERIPHERAL) */
  27:.\Generated_Source\PSoC4/BLE_1.c **** #endif /* (CYBLE_GATT_ROLE_SERVER) */
  28:.\Generated_Source\PSoC4/BLE_1.c ****     
  29:.\Generated_Source\PSoC4/BLE_1.c **** 
  30:.\Generated_Source\PSoC4/BLE_1.c **** /***************************************
  31:.\Generated_Source\PSoC4/BLE_1.c **** ##Global Variables
  32:.\Generated_Source\PSoC4/BLE_1.c **** ***************************************/
  33:.\Generated_Source\PSoC4/BLE_1.c **** 
  34:.\Generated_Source\PSoC4/BLE_1.c **** uint8  cyBle_initVar = 0u;
  35:.\Generated_Source\PSoC4/BLE_1.c **** 
  36:.\Generated_Source\PSoC4/BLE_1.c **** CYBLE_CALLBACK_T CyBle_ApplCallback;
  37:.\Generated_Source\PSoC4/BLE_1.c **** 
  38:.\Generated_Source\PSoC4/BLE_1.c **** CYBLE_GAP_BD_ADDR_T cyBle_deviceAddress = {{0x00u, 0x00u, 0x00u, 0x50u, 0xA0u, 0x00u}, 0x00u };
  39:.\Generated_Source\PSoC4/BLE_1.c **** CYBLE_GAP_BD_ADDR_T * cyBle_sflashDeviceAddress = CYBLE_SFLASH_DEVICE_ADDRESS_PTR;
  40:.\Generated_Source\PSoC4/BLE_1.c **** 
  41:.\Generated_Source\PSoC4/BLE_1.c **** #if(CYBLE_GAP_ROLE_PERIPHERAL || CYBLE_GAP_ROLE_BROADCASTER)
  42:.\Generated_Source\PSoC4/BLE_1.c **** 
  43:.\Generated_Source\PSoC4/BLE_1.c **** CYBLE_GAPP_DISC_PARAM_T cyBle_discoveryParam =
  44:.\Generated_Source\PSoC4/BLE_1.c **** {
  45:.\Generated_Source\PSoC4/BLE_1.c ****     0x0020u,    /* uint16 advertising_interval_min */
  46:.\Generated_Source\PSoC4/BLE_1.c ****     0x0030u,    /* uint16 advertising_interval_max */
  47:.\Generated_Source\PSoC4/BLE_1.c ****     CYBLE_GAPP_CONNECTABLE_UNDIRECTED_ADV, /* uint8 advertising_type */
  48:.\Generated_Source\PSoC4/BLE_1.c ****     0x00u,      /* uint8 own_addr_type */
  49:.\Generated_Source\PSoC4/BLE_1.c ****     0x00u,      /* uint8 direct_addr_type */
  50:.\Generated_Source\PSoC4/BLE_1.c ****     {0x00u, 0x00u, 0x00u, 0x50u, 0xA0u, 0x00u}, /* uint8* direct_addr */
  51:.\Generated_Source\PSoC4/BLE_1.c ****     0x07u,      /* uint8 advertising_channel_map */
  52:.\Generated_Source\PSoC4/BLE_1.c ****     0x00u,      /* uint8 advertising_filter_policy */
  53:.\Generated_Source\PSoC4/BLE_1.c **** };
  54:.\Generated_Source\PSoC4/BLE_1.c **** 
  55:.\Generated_Source\PSoC4/BLE_1.c **** CYBLE_GAPP_DISC_DATA_T cyBle_discoveryData =
  56:.\Generated_Source\PSoC4/BLE_1.c **** {
  57:.\Generated_Source\PSoC4/BLE_1.c ****     { 0x02u, 0x01u, 0x06u, 0x13u, 0x09u, 0x42u, 0x4Cu,
  58:.\Generated_Source\PSoC4/BLE_1.c ****     0x45u, 0x20u, 0x4Cu, 0x61u, 0x62u, 0x20u, 0x33u, 0x20u,
  59:.\Generated_Source\PSoC4/BLE_1.c ****     0x47u, 0x72u, 0x6Fu, 0x75u, 0x70u, 0x20u, 0x31u, 0x30u,
  60:.\Generated_Source\PSoC4/BLE_1.c ****     0x05u, 0x03u, 0x0Du, 0x18u, 0x0Au, 0x18u, 0x00u, 0x00u }, /* uint8 advertising_data[CYBLE_MAX_A
  61:.\Generated_Source\PSoC4/BLE_1.c ****     0x1Du,      /* uint8 adv_data_length */
  62:.\Generated_Source\PSoC4/BLE_1.c **** };
  63:.\Generated_Source\PSoC4/BLE_1.c **** 
  64:.\Generated_Source\PSoC4/BLE_1.c **** CYBLE_GAPP_SCAN_RSP_DATA_T cyBle_scanRspData =
  65:.\Generated_Source\PSoC4/BLE_1.c **** {
  66:.\Generated_Source\PSoC4/BLE_1.c ****     { 0x13u, 0x09u, 0x42u, 0x4Cu, 0x45u, 0x20u, 0x4Cu,
  67:.\Generated_Source\PSoC4/BLE_1.c ****     0x61u, 0x62u, 0x20u, 0x33u, 0x20u, 0x47u, 0x72u, 0x6Fu,
  68:.\Generated_Source\PSoC4/BLE_1.c ****     0x75u, 0x70u, 0x20u, 0x31u, 0x30u, 0x00u, 0x00u, 0x00u,
  69:.\Generated_Source\PSoC4/BLE_1.c ****     0x00u, 0x00u, 0x00u, 0x00u, 0x00u, 0x00u, 0x00u, 0x00u }, /* uint8 scan_rsp_data[CYBLE_MAX_SCAN
  70:.\Generated_Source\PSoC4/BLE_1.c ****     0x14u,      /* uint8 scan_rsp_data_length */
  71:.\Generated_Source\PSoC4/BLE_1.c **** };
ARM GAS  C:\Users\ENESDU~1\AppData\Local\Temp\ccn4fiPa.s 			page 5


  72:.\Generated_Source\PSoC4/BLE_1.c **** 
  73:.\Generated_Source\PSoC4/BLE_1.c **** /* This variable of type CYBLE_GAPP_DISC_MODE_INFO_T is present only when 
  74:.\Generated_Source\PSoC4/BLE_1.c ****    the BLE component is configured for Peripheral GAP role or Central and 
  75:.\Generated_Source\PSoC4/BLE_1.c ****    Peripheral GAP role. It contains the Advertisement settings and also the 
  76:.\Generated_Source\PSoC4/BLE_1.c ****    Advertisement and Scan response data parameters entered in the customizer.
  77:.\Generated_Source\PSoC4/BLE_1.c ****    This variable can be used by advanced users to change Advertisement settings,
  78:.\Generated_Source\PSoC4/BLE_1.c ****    Advertisement or Scan response data in runtime. 
  79:.\Generated_Source\PSoC4/BLE_1.c **** */
  80:.\Generated_Source\PSoC4/BLE_1.c **** CYBLE_GAPP_DISC_MODE_INFO_T cyBle_discoveryModeInfo =
  81:.\Generated_Source\PSoC4/BLE_1.c **** {
  82:.\Generated_Source\PSoC4/BLE_1.c ****     0x02u,      /* uint8 discMode */
  83:.\Generated_Source\PSoC4/BLE_1.c ****     &cyBle_discoveryParam,
  84:.\Generated_Source\PSoC4/BLE_1.c ****     &cyBle_discoveryData,
  85:.\Generated_Source\PSoC4/BLE_1.c ****     &cyBle_scanRspData,
  86:.\Generated_Source\PSoC4/BLE_1.c ****     0x001Eu,    /* uint16 advTo */
  87:.\Generated_Source\PSoC4/BLE_1.c **** };
  88:.\Generated_Source\PSoC4/BLE_1.c **** 
  89:.\Generated_Source\PSoC4/BLE_1.c **** 
  90:.\Generated_Source\PSoC4/BLE_1.c **** #endif /* CYBLE_GAP_ROLE_PERIPHERAL || CYBLE_GAP_ROLE_BROADCASTER */
  91:.\Generated_Source\PSoC4/BLE_1.c **** 
  92:.\Generated_Source\PSoC4/BLE_1.c **** #if(CYBLE_GAP_ROLE_CENTRAL)
  93:.\Generated_Source\PSoC4/BLE_1.c ****     
  94:.\Generated_Source\PSoC4/BLE_1.c **** CYBLE_GAPC_CONN_PARAM_T cyBle_connectionParameters;
  95:.\Generated_Source\PSoC4/BLE_1.c **** 
  96:.\Generated_Source\PSoC4/BLE_1.c **** /* Connecting timeout is set to 30 seconds in CyBle_Init function. 
  97:.\Generated_Source\PSoC4/BLE_1.c ****    Not zero value starts timer in CyBle_GapcConnectDevice API.
  98:.\Generated_Source\PSoC4/BLE_1.c **** */
  99:.\Generated_Source\PSoC4/BLE_1.c **** uint16 cyBle_connectingTimeout;
 100:.\Generated_Source\PSoC4/BLE_1.c ****     
 101:.\Generated_Source\PSoC4/BLE_1.c **** #endif /* CYBLE_GAP_ROLE_CENTRAL */
 102:.\Generated_Source\PSoC4/BLE_1.c **** 
 103:.\Generated_Source\PSoC4/BLE_1.c **** #if(CYBLE_GAP_ROLE_CENTRAL || CYBLE_GAP_ROLE_OBSERVER)
 104:.\Generated_Source\PSoC4/BLE_1.c ****     
 105:.\Generated_Source\PSoC4/BLE_1.c **** 
 106:.\Generated_Source\PSoC4/BLE_1.c ****     
 107:.\Generated_Source\PSoC4/BLE_1.c **** #endif /* CYBLE_GAP_ROLE_CENTRAL || CYBLE_GAP_ROLE_OBSERVER */
 108:.\Generated_Source\PSoC4/BLE_1.c **** 
 109:.\Generated_Source\PSoC4/BLE_1.c **** #if((CYBLE_GAP_ROLE_PERIPHERAL || CYBLE_GAP_ROLE_CENTRAL) && (CYBLE_BONDING_REQUIREMENT == CYBLE_BO
 110:.\Generated_Source\PSoC4/BLE_1.c **** 
 111:.\Generated_Source\PSoC4/BLE_1.c **** uint8 cyBle_pendingFlashWrite;
 112:.\Generated_Source\PSoC4/BLE_1.c ****     
 113:.\Generated_Source\PSoC4/BLE_1.c **** #endif  /* (CYBLE_BONDING_REQUIREMENT == CYBLE_BONDING_YES) */
 114:.\Generated_Source\PSoC4/BLE_1.c **** 
 115:.\Generated_Source\PSoC4/BLE_1.c **** 
 116:.\Generated_Source\PSoC4/BLE_1.c **** /******************************************************************************
 117:.\Generated_Source\PSoC4/BLE_1.c **** ##Function Name: CyBle_Init
 118:.\Generated_Source\PSoC4/BLE_1.c **** *******************************************************************************
 119:.\Generated_Source\PSoC4/BLE_1.c ****  Summary:
 120:.\Generated_Source\PSoC4/BLE_1.c ****   Initializes the component with the parameters set in the customizer.
 121:.\Generated_Source\PSoC4/BLE_1.c **** 
 122:.\Generated_Source\PSoC4/BLE_1.c ****  Parameters:
 123:.\Generated_Source\PSoC4/BLE_1.c ****   None
 124:.\Generated_Source\PSoC4/BLE_1.c **** 
 125:.\Generated_Source\PSoC4/BLE_1.c ****  Return:
 126:.\Generated_Source\PSoC4/BLE_1.c ****   None
 127:.\Generated_Source\PSoC4/BLE_1.c **** 
 128:.\Generated_Source\PSoC4/BLE_1.c **** ******************************************************************************/
ARM GAS  C:\Users\ENESDU~1\AppData\Local\Temp\ccn4fiPa.s 			page 6


 129:.\Generated_Source\PSoC4/BLE_1.c **** void CyBle_Init(void)
 130:.\Generated_Source\PSoC4/BLE_1.c **** {
 158              		.loc 1 130 0
 159              		.cfi_startproc
 160 0000 80B5     		push	{r7, lr}
 161              		.cfi_def_cfa_offset 8
 162              		.cfi_offset 7, -8
 163              		.cfi_offset 14, -4
 164 0002 00AF     		add	r7, sp, #0
 165              		.cfi_def_cfa_register 7
 131:.\Generated_Source\PSoC4/BLE_1.c ****     cyBle_eventHandlerFlag = 0u;
 166              		.loc 1 131 0
 167 0004 074B     		ldr	r3, .L2
 168 0006 0022     		mov	r2, #0
 169 0008 1A70     		strb	r2, [r3]
 132:.\Generated_Source\PSoC4/BLE_1.c ****     cyBle_busStatus = CYBLE_STACK_STATE_FREE;
 170              		.loc 1 132 0
 171 000a 074B     		ldr	r3, .L2+4
 172 000c 0022     		mov	r2, #0
 173 000e 1A70     		strb	r2, [r3]
 133:.\Generated_Source\PSoC4/BLE_1.c ****     
 134:.\Generated_Source\PSoC4/BLE_1.c ****     #if(CYBLE_GAP_ROLE_PERIPHERAL || CYBLE_GAP_ROLE_BROADCASTER) 
 135:.\Generated_Source\PSoC4/BLE_1.c ****         cyBle_advertisingIntervalType = CYBLE_ADVERTISING_FAST; 
 174              		.loc 1 135 0
 175 0010 064B     		ldr	r3, .L2+8
 176 0012 0022     		mov	r2, #0
 177 0014 1A70     		strb	r2, [r3]
 136:.\Generated_Source\PSoC4/BLE_1.c ****     #endif /* (CYBLE_GAP_ROLE_PERIPHERAL || CYBLE_GAP_ROLE_BROADCASTER)  */
 137:.\Generated_Source\PSoC4/BLE_1.c ****     #if(CYBLE_GAP_ROLE_CENTRAL || CYBLE_GAP_ROLE_OBSERVER)
 138:.\Generated_Source\PSoC4/BLE_1.c ****         cyBle_scanningIntervalType = CYBLE_SCANNING_FAST; 
 139:.\Generated_Source\PSoC4/BLE_1.c ****     #endif /* (CYBLE_GAP_ROLE_CENTRAL || CYBLE_GAP_ROLE_OBSERVER) */
 140:.\Generated_Source\PSoC4/BLE_1.c ****         
 141:.\Generated_Source\PSoC4/BLE_1.c ****     /* Init default connection parameters. 
 142:.\Generated_Source\PSoC4/BLE_1.c ****        Application may change it before initiating a connection */
 143:.\Generated_Source\PSoC4/BLE_1.c ****     #if(CYBLE_GAP_ROLE_CENTRAL)
 144:.\Generated_Source\PSoC4/BLE_1.c ****         cyBle_connectionParameters.scanIntv = cyBle_discoveryInfo.scanIntv;
 145:.\Generated_Source\PSoC4/BLE_1.c ****         cyBle_connectionParameters.scanWindow = cyBle_discoveryInfo.scanWindow;
 146:.\Generated_Source\PSoC4/BLE_1.c ****         cyBle_connectionParameters.ownAddrType = cyBle_discoveryInfo.ownAddrType;
 147:.\Generated_Source\PSoC4/BLE_1.c ****         cyBle_connectionParameters.initiatorFilterPolicy = cyBle_discoveryInfo.scanFilterPolicy;
 148:.\Generated_Source\PSoC4/BLE_1.c ****         cyBle_connectionParameters.connIntvMin = CYBLE_GAPC_CONNECTION_INTERVAL_MIN;
 149:.\Generated_Source\PSoC4/BLE_1.c ****         cyBle_connectionParameters.connIntvMax = CYBLE_GAPC_CONNECTION_INTERVAL_MAX;
 150:.\Generated_Source\PSoC4/BLE_1.c ****         cyBle_connectionParameters.connLatency = CYBLE_GAPC_CONNECTION_SLAVE_LATENCY;
 151:.\Generated_Source\PSoC4/BLE_1.c ****         cyBle_connectionParameters.supervisionTO = CYBLE_GAPC_CONNECTION_TIME_OUT;
 152:.\Generated_Source\PSoC4/BLE_1.c ****         cyBle_connectionParameters.minCeLength = 0x0000u;
 153:.\Generated_Source\PSoC4/BLE_1.c ****         cyBle_connectionParameters.maxCeLength = 0xFFFFu;
 154:.\Generated_Source\PSoC4/BLE_1.c ****         
 155:.\Generated_Source\PSoC4/BLE_1.c ****         cyBle_discoveryInfo.scanType = 0x01u; /* Active scanning (0x01) */
 156:.\Generated_Source\PSoC4/BLE_1.c ****         
 157:.\Generated_Source\PSoC4/BLE_1.c ****         cyBle_connectingTimeout = CYBLE_GAPC_CONNECTING_TIMEOUT;
 158:.\Generated_Source\PSoC4/BLE_1.c ****     #endif /* CYBLE_GAP_ROLE_CENTRAL */
 159:.\Generated_Source\PSoC4/BLE_1.c **** 
 160:.\Generated_Source\PSoC4/BLE_1.c ****     CyBle_ServiceInit();
 178              		.loc 1 160 0
 179 0016 FFF7FEFF 		bl	CyBle_ServiceInit
 161:.\Generated_Source\PSoC4/BLE_1.c **** 
 162:.\Generated_Source\PSoC4/BLE_1.c **** #if((CYBLE_GAP_ROLE_PERIPHERAL || CYBLE_GAP_ROLE_CENTRAL) && (CYBLE_BONDING_REQUIREMENT == CYBLE_BO
 163:.\Generated_Source\PSoC4/BLE_1.c ****     cyBle_pendingFlashWrite = 0u;
ARM GAS  C:\Users\ENESDU~1\AppData\Local\Temp\ccn4fiPa.s 			page 7


 180              		.loc 1 163 0
 181 001a 054B     		ldr	r3, .L2+12
 182 001c 0022     		mov	r2, #0
 183 001e 1A70     		strb	r2, [r3]
 164:.\Generated_Source\PSoC4/BLE_1.c **** #endif  /* (CYBLE_BONDING_REQUIREMENT == CYBLE_BONDING_YES) */
 165:.\Generated_Source\PSoC4/BLE_1.c **** 
 166:.\Generated_Source\PSoC4/BLE_1.c **** }
 184              		.loc 1 166 0
 185 0020 BD46     		mov	sp, r7
 186              		@ sp needed
 187 0022 80BD     		pop	{r7, pc}
 188              	.L3:
 189              		.align	2
 190              	.L2:
 191 0024 00000000 		.word	cyBle_eventHandlerFlag
 192 0028 00000000 		.word	cyBle_busStatus
 193 002c 00000000 		.word	cyBle_advertisingIntervalType
 194 0030 00000000 		.word	cyBle_pendingFlashWrite
 195              		.cfi_endproc
 196              	.LFE2:
 197              		.size	CyBle_Init, .-CyBle_Init
 198              		.section	.text.CyBle_ServiceInit,"ax",%progbits
 199              		.align	2
 200              		.global	CyBle_ServiceInit
 201              		.code	16
 202              		.thumb_func
 203              		.type	CyBle_ServiceInit, %function
 204              	CyBle_ServiceInit:
 205              	.LFB3:
 167:.\Generated_Source\PSoC4/BLE_1.c **** 
 168:.\Generated_Source\PSoC4/BLE_1.c **** 
 169:.\Generated_Source\PSoC4/BLE_1.c **** /******************************************************************************
 170:.\Generated_Source\PSoC4/BLE_1.c **** ##Function Name: CyBle_ServiceInit
 171:.\Generated_Source\PSoC4/BLE_1.c **** *******************************************************************************
 172:.\Generated_Source\PSoC4/BLE_1.c **** 
 173:.\Generated_Source\PSoC4/BLE_1.c **** Summary:
 174:.\Generated_Source\PSoC4/BLE_1.c ****  Initializes all included services.
 175:.\Generated_Source\PSoC4/BLE_1.c **** 
 176:.\Generated_Source\PSoC4/BLE_1.c **** Parameters:
 177:.\Generated_Source\PSoC4/BLE_1.c ****  None
 178:.\Generated_Source\PSoC4/BLE_1.c **** 
 179:.\Generated_Source\PSoC4/BLE_1.c **** Return:
 180:.\Generated_Source\PSoC4/BLE_1.c ****  None
 181:.\Generated_Source\PSoC4/BLE_1.c **** 
 182:.\Generated_Source\PSoC4/BLE_1.c **** ******************************************************************************/
 183:.\Generated_Source\PSoC4/BLE_1.c **** void CyBle_ServiceInit(void)
 184:.\Generated_Source\PSoC4/BLE_1.c **** {
 206              		.loc 1 184 0
 207              		.cfi_startproc
 208 0000 80B5     		push	{r7, lr}
 209              		.cfi_def_cfa_offset 8
 210              		.cfi_offset 7, -8
 211              		.cfi_offset 14, -4
 212 0002 00AF     		add	r7, sp, #0
 213              		.cfi_def_cfa_register 7
 185:.\Generated_Source\PSoC4/BLE_1.c ****     #if(CYBLE_GATT_ROLE_CLIENT)
 186:.\Generated_Source\PSoC4/BLE_1.c ****         (void)memset(&cyBle_gapc, 0, sizeof(cyBle_gapc));
ARM GAS  C:\Users\ENESDU~1\AppData\Local\Temp\ccn4fiPa.s 			page 8


 187:.\Generated_Source\PSoC4/BLE_1.c ****         (void)memset(&cyBle_gattc, 0, sizeof(cyBle_gattc));
 188:.\Generated_Source\PSoC4/BLE_1.c ****     #endif /* CYBLE_GATT_ROLE_CLIENT */
 189:.\Generated_Source\PSoC4/BLE_1.c ****     
 190:.\Generated_Source\PSoC4/BLE_1.c ****     #ifdef CYBLE_ANS
 191:.\Generated_Source\PSoC4/BLE_1.c ****         CyBle_AnsInit();
 192:.\Generated_Source\PSoC4/BLE_1.c ****     #endif /* CYBLE_ANS */
 193:.\Generated_Source\PSoC4/BLE_1.c ****     
 194:.\Generated_Source\PSoC4/BLE_1.c ****     #ifdef CYBLE_BAS
 195:.\Generated_Source\PSoC4/BLE_1.c ****         CyBle_BasInit();
 196:.\Generated_Source\PSoC4/BLE_1.c ****     #endif /* CYBLE_BAS */
 197:.\Generated_Source\PSoC4/BLE_1.c ****     
 198:.\Generated_Source\PSoC4/BLE_1.c ****     #ifdef CYBLE_BLS
 199:.\Generated_Source\PSoC4/BLE_1.c ****         CyBle_BlsInit();
 200:.\Generated_Source\PSoC4/BLE_1.c ****     #endif /* CYBLE_BLS */
 201:.\Generated_Source\PSoC4/BLE_1.c **** 
 202:.\Generated_Source\PSoC4/BLE_1.c ****     #ifdef CYBLE_CPS
 203:.\Generated_Source\PSoC4/BLE_1.c ****         CyBle_CpsInit();
 204:.\Generated_Source\PSoC4/BLE_1.c ****     #endif /* CYBLE_CPS */
 205:.\Generated_Source\PSoC4/BLE_1.c **** 
 206:.\Generated_Source\PSoC4/BLE_1.c ****     #ifdef CYBLE_CSCS
 207:.\Generated_Source\PSoC4/BLE_1.c ****         CyBle_CscsInit();
 208:.\Generated_Source\PSoC4/BLE_1.c ****     #endif /* CYBLE_CSCS */
 209:.\Generated_Source\PSoC4/BLE_1.c ****     
 210:.\Generated_Source\PSoC4/BLE_1.c ****     #ifdef CYBLE_CTS
 211:.\Generated_Source\PSoC4/BLE_1.c ****         CyBle_CtsInit();
 212:.\Generated_Source\PSoC4/BLE_1.c ****     #endif /* CYBLE_CTS */
 213:.\Generated_Source\PSoC4/BLE_1.c **** 
 214:.\Generated_Source\PSoC4/BLE_1.c ****     #ifdef CYBLE_DIS
 215:.\Generated_Source\PSoC4/BLE_1.c ****         CyBle_DisInit();
 214              		.loc 1 215 0
 215 0004 FFF7FEFF 		bl	CyBle_DisInit
 216:.\Generated_Source\PSoC4/BLE_1.c ****     #endif /* CYBLE_DIS */
 217:.\Generated_Source\PSoC4/BLE_1.c **** 
 218:.\Generated_Source\PSoC4/BLE_1.c ****     #ifdef CYBLE_GLS
 219:.\Generated_Source\PSoC4/BLE_1.c ****         CyBle_GlsInit();
 220:.\Generated_Source\PSoC4/BLE_1.c ****     #endif /* CYBLE_GLS */
 221:.\Generated_Source\PSoC4/BLE_1.c ****     
 222:.\Generated_Source\PSoC4/BLE_1.c ****     #ifdef CYBLE_HIDS
 223:.\Generated_Source\PSoC4/BLE_1.c ****         CyBle_HidsInit();
 224:.\Generated_Source\PSoC4/BLE_1.c ****     #endif /* CYBLE_HIDS */
 225:.\Generated_Source\PSoC4/BLE_1.c **** 
 226:.\Generated_Source\PSoC4/BLE_1.c ****     #ifdef CYBLE_HRS
 227:.\Generated_Source\PSoC4/BLE_1.c ****         CyBle_HrsInit();
 216              		.loc 1 227 0
 217 0008 FFF7FEFF 		bl	CyBle_HrsInit
 228:.\Generated_Source\PSoC4/BLE_1.c ****     #endif /* CYBLE_HRS */
 229:.\Generated_Source\PSoC4/BLE_1.c ****     
 230:.\Generated_Source\PSoC4/BLE_1.c ****     #ifdef CYBLE_HTS
 231:.\Generated_Source\PSoC4/BLE_1.c ****         CyBle_HtsInit();
 232:.\Generated_Source\PSoC4/BLE_1.c ****     #endif /* CYBLE_RSCS */
 233:.\Generated_Source\PSoC4/BLE_1.c **** 
 234:.\Generated_Source\PSoC4/BLE_1.c ****     #ifdef CYBLE_IAS
 235:.\Generated_Source\PSoC4/BLE_1.c ****         CyBle_IasInit();
 236:.\Generated_Source\PSoC4/BLE_1.c ****     #endif /* CYBLE_IAS */
 237:.\Generated_Source\PSoC4/BLE_1.c **** 
 238:.\Generated_Source\PSoC4/BLE_1.c ****     #ifdef CYBLE_LLS
 239:.\Generated_Source\PSoC4/BLE_1.c ****         CyBle_LlsInit();
ARM GAS  C:\Users\ENESDU~1\AppData\Local\Temp\ccn4fiPa.s 			page 9


 240:.\Generated_Source\PSoC4/BLE_1.c ****     #endif /* CYBLE_LLS */
 241:.\Generated_Source\PSoC4/BLE_1.c **** 
 242:.\Generated_Source\PSoC4/BLE_1.c ****     #ifdef CYBLE_RTUS
 243:.\Generated_Source\PSoC4/BLE_1.c ****         CyBle_RtusInit();
 244:.\Generated_Source\PSoC4/BLE_1.c ****     #endif /* CYBLE_RTUS */
 245:.\Generated_Source\PSoC4/BLE_1.c **** 
 246:.\Generated_Source\PSoC4/BLE_1.c ****     #ifdef CYBLE_LNS
 247:.\Generated_Source\PSoC4/BLE_1.c ****         CyBle_LnsInit();
 248:.\Generated_Source\PSoC4/BLE_1.c ****     #endif /* CYBLE_LNS */
 249:.\Generated_Source\PSoC4/BLE_1.c ****     
 250:.\Generated_Source\PSoC4/BLE_1.c ****     #ifdef CYBLE_PASS
 251:.\Generated_Source\PSoC4/BLE_1.c ****         CyBle_PassInit();
 252:.\Generated_Source\PSoC4/BLE_1.c ****     #endif /* CYBLE_PASS */
 253:.\Generated_Source\PSoC4/BLE_1.c ****     
 254:.\Generated_Source\PSoC4/BLE_1.c ****     #ifdef CYBLE_RSCS
 255:.\Generated_Source\PSoC4/BLE_1.c ****         CyBle_RscsInit();
 256:.\Generated_Source\PSoC4/BLE_1.c ****     #endif /* CYBLE_RSCS */
 257:.\Generated_Source\PSoC4/BLE_1.c **** 
 258:.\Generated_Source\PSoC4/BLE_1.c ****     #ifdef CYBLE_SCPS
 259:.\Generated_Source\PSoC4/BLE_1.c ****         CyBle_ScpsInit();
 260:.\Generated_Source\PSoC4/BLE_1.c ****     #endif /* CYBLE_SCPS */
 261:.\Generated_Source\PSoC4/BLE_1.c ****     
 262:.\Generated_Source\PSoC4/BLE_1.c ****     #ifdef CYBLE_TPS
 263:.\Generated_Source\PSoC4/BLE_1.c ****         CyBle_TpsInit();
 264:.\Generated_Source\PSoC4/BLE_1.c ****     #endif /* CYBLE_TPS */
 265:.\Generated_Source\PSoC4/BLE_1.c **** 
 266:.\Generated_Source\PSoC4/BLE_1.c **** }
 218              		.loc 1 266 0
 219 000c BD46     		mov	sp, r7
 220              		@ sp needed
 221 000e 80BD     		pop	{r7, pc}
 222              		.cfi_endproc
 223              	.LFE3:
 224              		.size	CyBle_ServiceInit, .-CyBle_ServiceInit
 225              		.section	.text.CyBle_Start,"ax",%progbits
 226              		.align	2
 227              		.global	CyBle_Start
 228              		.code	16
 229              		.thumb_func
 230              		.type	CyBle_Start, %function
 231              	CyBle_Start:
 232              	.LFB4:
 267:.\Generated_Source\PSoC4/BLE_1.c **** 
 268:.\Generated_Source\PSoC4/BLE_1.c **** 
 269:.\Generated_Source\PSoC4/BLE_1.c **** /******************************************************************************
 270:.\Generated_Source\PSoC4/BLE_1.c **** ##Function Name: CyBle_Start
 271:.\Generated_Source\PSoC4/BLE_1.c **** *******************************************************************************
 272:.\Generated_Source\PSoC4/BLE_1.c **** 
 273:.\Generated_Source\PSoC4/BLE_1.c **** Summary:
 274:.\Generated_Source\PSoC4/BLE_1.c ****  This function initializes the BLE Stack, which consists of the BLE Stack 
 275:.\Generated_Source\PSoC4/BLE_1.c ****  Manager, BLE Controller, and BLE Host modules. It takes care of initializing
 276:.\Generated_Source\PSoC4/BLE_1.c ****  the Profile layer, schedulers, Timer and other platform related
 277:.\Generated_Source\PSoC4/BLE_1.c ****  resources required for the BLE component. It also registers the callback 
 278:.\Generated_Source\PSoC4/BLE_1.c ****  function for BLE events that will be registered in the BLE stack.
 279:.\Generated_Source\PSoC4/BLE_1.c **** 
 280:.\Generated_Source\PSoC4/BLE_1.c ****  Note that this function does not reset the BLE Stack.
 281:.\Generated_Source\PSoC4/BLE_1.c **** 
ARM GAS  C:\Users\ENESDU~1\AppData\Local\Temp\ccn4fiPa.s 			page 10


 282:.\Generated_Source\PSoC4/BLE_1.c ****  For HCI-Mode of operation, this function will not initialize the BLE Host 
 283:.\Generated_Source\PSoC4/BLE_1.c ****  module.
 284:.\Generated_Source\PSoC4/BLE_1.c **** 
 285:.\Generated_Source\PSoC4/BLE_1.c ****  Calling this function results in the generation of CYBLE_EVT_STACK_ON event
 286:.\Generated_Source\PSoC4/BLE_1.c ****  on successful initialization of the BLE Stack.
 287:.\Generated_Source\PSoC4/BLE_1.c **** 
 288:.\Generated_Source\PSoC4/BLE_1.c **** Parameters:
 289:.\Generated_Source\PSoC4/BLE_1.c ****  callbackFunc: Event callback function to receive events from BLE stack.
 290:.\Generated_Source\PSoC4/BLE_1.c ****   CYBLE_CALLBACK_T is a function pointer type.
 291:.\Generated_Source\PSoC4/BLE_1.c **** 
 292:.\Generated_Source\PSoC4/BLE_1.c **** Return:
 293:.\Generated_Source\PSoC4/BLE_1.c ****  CYBLE_API_RESULT_T : Return value indicates if the function succeeded or 
 294:.\Generated_Source\PSoC4/BLE_1.c ****  failed. Following are the possible error codes.
 295:.\Generated_Source\PSoC4/BLE_1.c ****  <table>
 296:.\Generated_Source\PSoC4/BLE_1.c ****   Errors codes                        Description
 297:.\Generated_Source\PSoC4/BLE_1.c ****   ------------                        -----------------
 298:.\Generated_Source\PSoC4/BLE_1.c ****   CYBLE_ERROR_OK                      On successful operation.
 299:.\Generated_Source\PSoC4/BLE_1.c ****   CYBLE_ERROR_INVALID_PARAMETER       On passing a NULL pointer to the 
 300:.\Generated_Source\PSoC4/BLE_1.c ****                                        function when the BLE stack is not 
 301:.\Generated_Source\PSoC4/BLE_1.c ****                                        built in HCI mode.
 302:.\Generated_Source\PSoC4/BLE_1.c ****                                        CYBLE_ERROR_INVALID_PARAMETER
 303:.\Generated_Source\PSoC4/BLE_1.c ****                                        is never returned in HCI mode.
 304:.\Generated_Source\PSoC4/BLE_1.c ****   CYBLE_ERROR_REPEATED_ATTEMPTS       On invoking this function more
 305:.\Generated_Source\PSoC4/BLE_1.c ****                                        than once without calling
 306:.\Generated_Source\PSoC4/BLE_1.c ****                                        CyBle_Shutdown() function 
 307:.\Generated_Source\PSoC4/BLE_1.c ****                                        between calls to this function.
 308:.\Generated_Source\PSoC4/BLE_1.c ****  </table>
 309:.\Generated_Source\PSoC4/BLE_1.c **** 
 310:.\Generated_Source\PSoC4/BLE_1.c **** ******************************************************************************/
 311:.\Generated_Source\PSoC4/BLE_1.c **** CYBLE_API_RESULT_T CyBle_Start(CYBLE_CALLBACK_T callbackFunc)
 312:.\Generated_Source\PSoC4/BLE_1.c **** {
 233              		.loc 1 312 0
 234              		.cfi_startproc
 235 0000 90B5     		push	{r4, r7, lr}
 236              		.cfi_def_cfa_offset 12
 237              		.cfi_offset 4, -12
 238              		.cfi_offset 7, -8
 239              		.cfi_offset 14, -4
 240 0002 85B0     		sub	sp, sp, #20
 241              		.cfi_def_cfa_offset 32
 242 0004 00AF     		add	r7, sp, #0
 243              		.cfi_def_cfa_register 7
 244 0006 7860     		str	r0, [r7, #4]
 313:.\Generated_Source\PSoC4/BLE_1.c ****     CYBLE_API_RESULT_T apiResult = CYBLE_ERROR_INVALID_PARAMETER;
 245              		.loc 1 313 0
 246 0008 3B1C     		mov	r3, r7
 247 000a 0E33     		add	r3, r3, #14
 248 000c 0122     		mov	r2, #1
 249 000e 1A80     		strh	r2, [r3]
 314:.\Generated_Source\PSoC4/BLE_1.c ****     
 315:.\Generated_Source\PSoC4/BLE_1.c ****     /* Allocate RAM memory for stack */
 316:.\Generated_Source\PSoC4/BLE_1.c ****     CYBLE_CYALIGNED static uint8 cyBle_stackMemoryRam[CYBLE_STACK_RAM_SIZE];
 317:.\Generated_Source\PSoC4/BLE_1.c ****     
 318:.\Generated_Source\PSoC4/BLE_1.c ****     /* If not initialized then initialize all the required hardware and software */
 319:.\Generated_Source\PSoC4/BLE_1.c ****     if(cyBle_initVar == 0u)
 250              		.loc 1 319 0
 251 0010 194B     		ldr	r3, .L9
ARM GAS  C:\Users\ENESDU~1\AppData\Local\Temp\ccn4fiPa.s 			page 11


 252 0012 1B78     		ldrb	r3, [r3]
 253 0014 002B     		cmp	r3, #0
 254 0016 04D1     		bne	.L6
 320:.\Generated_Source\PSoC4/BLE_1.c ****     {
 321:.\Generated_Source\PSoC4/BLE_1.c ****         CyBle_Init();
 255              		.loc 1 321 0
 256 0018 FFF7FEFF 		bl	CyBle_Init
 322:.\Generated_Source\PSoC4/BLE_1.c ****         cyBle_initVar = 1u;
 257              		.loc 1 322 0
 258 001c 164B     		ldr	r3, .L9
 259 001e 0122     		mov	r2, #1
 260 0020 1A70     		strb	r2, [r3]
 261              	.L6:
 323:.\Generated_Source\PSoC4/BLE_1.c ****     }
 324:.\Generated_Source\PSoC4/BLE_1.c ****     
 325:.\Generated_Source\PSoC4/BLE_1.c ****     if(NULL != callbackFunc)
 262              		.loc 1 325 0
 263 0022 7B68     		ldr	r3, [r7, #4]
 264 0024 002B     		cmp	r3, #0
 265 0026 1FD0     		beq	.L7
 326:.\Generated_Source\PSoC4/BLE_1.c ****     {
 327:.\Generated_Source\PSoC4/BLE_1.c ****         CyBle_ApplCallback = callbackFunc;
 266              		.loc 1 327 0
 267 0028 144B     		ldr	r3, .L9+4
 268 002a 7A68     		ldr	r2, [r7, #4]
 269 002c 1A60     		str	r2, [r3]
 328:.\Generated_Source\PSoC4/BLE_1.c **** 
 329:.\Generated_Source\PSoC4/BLE_1.c ****         apiResult = CyBle_StackInit(&CyBle_EventHandler, cyBle_stackMemoryRam, CYBLE_GATT_MTU);
 270              		.loc 1 329 0
 271 002e 3C1C     		mov	r4, r7
 272 0030 0E34     		add	r4, r4, #14
 273 0032 134A     		ldr	r2, .L9+8
 274 0034 134B     		ldr	r3, .L9+12
 275 0036 101C     		mov	r0, r2
 276 0038 191C     		mov	r1, r3
 277 003a 1722     		mov	r2, #23
 278 003c FFF7FEFF 		bl	CyBle_StackInit
 279 0040 031C     		mov	r3, r0
 280 0042 2380     		strh	r3, [r4]
 330:.\Generated_Source\PSoC4/BLE_1.c **** 
 331:.\Generated_Source\PSoC4/BLE_1.c ****         if(apiResult == CYBLE_ERROR_OK)
 281              		.loc 1 331 0
 282 0044 3B1C     		mov	r3, r7
 283 0046 0E33     		add	r3, r3, #14
 284 0048 1B88     		ldrh	r3, [r3]
 285 004a 002B     		cmp	r3, #0
 286 004c 0CD1     		bne	.L7
 332:.\Generated_Source\PSoC4/BLE_1.c ****         {
 333:.\Generated_Source\PSoC4/BLE_1.c ****             CyBle_SetState(CYBLE_STATE_INITIALIZING);
 287              		.loc 1 333 0
 288 004e 0E4B     		ldr	r3, .L9+16
 289 0050 0122     		mov	r2, #1
 290 0052 1A70     		strb	r2, [r3]
 334:.\Generated_Source\PSoC4/BLE_1.c ****             
 335:.\Generated_Source\PSoC4/BLE_1.c ****         #if (CYBLE_GATT_ROLE_CLIENT)
 336:.\Generated_Source\PSoC4/BLE_1.c ****             CyBle_SetClientState(CYBLE_CLIENT_STATE_DISCONNECTED);
 337:.\Generated_Source\PSoC4/BLE_1.c ****         #endif /* CYBLE_GATT_ROLE_CLIENT */
ARM GAS  C:\Users\ENESDU~1\AppData\Local\Temp\ccn4fiPa.s 			page 12


 338:.\Generated_Source\PSoC4/BLE_1.c ****             
 339:.\Generated_Source\PSoC4/BLE_1.c ****         #if(CYBLE_GATT_ROLE_SERVER)
 340:.\Generated_Source\PSoC4/BLE_1.c ****             apiResult = CyBle_GattsDbRegister(cyBle_gattDB, CYBLE_GATT_DB_INDEX_COUNT, CYBLE_GATT_D
 291              		.loc 1 340 0
 292 0054 3C1C     		mov	r4, r7
 293 0056 0E34     		add	r4, r4, #14
 294 0058 0C4B     		ldr	r3, .L9+20
 295 005a 181C     		mov	r0, r3
 296 005c 2621     		mov	r1, #38
 297 005e 1522     		mov	r2, #21
 298 0060 FFF7FEFF 		bl	CyBle_GattsDbRegister
 299 0064 031C     		mov	r3, r0
 300 0066 2380     		strh	r3, [r4]
 301              	.L7:
 341:.\Generated_Source\PSoC4/BLE_1.c ****         #endif /* CYBLE_GATT_ROLE_SERVER */
 342:.\Generated_Source\PSoC4/BLE_1.c ****         }
 343:.\Generated_Source\PSoC4/BLE_1.c ****     }
 344:.\Generated_Source\PSoC4/BLE_1.c **** 
 345:.\Generated_Source\PSoC4/BLE_1.c ****     return (apiResult);
 302              		.loc 1 345 0
 303 0068 3B1C     		mov	r3, r7
 304 006a 0E33     		add	r3, r3, #14
 305 006c 1B88     		ldrh	r3, [r3]
 346:.\Generated_Source\PSoC4/BLE_1.c **** }
 306              		.loc 1 346 0
 307 006e 181C     		mov	r0, r3
 308 0070 BD46     		mov	sp, r7
 309 0072 05B0     		add	sp, sp, #20
 310              		@ sp needed
 311 0074 90BD     		pop	{r4, r7, pc}
 312              	.L10:
 313 0076 C046     		.align	2
 314              	.L9:
 315 0078 00000000 		.word	cyBle_initVar
 316 007c 00000000 		.word	CyBle_ApplCallback
 317 0080 00000000 		.word	CyBle_EventHandler
 318 0084 08000000 		.word	cyBle_stackMemoryRam.6046
 319 0088 00000000 		.word	cyBle_state
 320 008c 00000000 		.word	cyBle_gattDB
 321              		.cfi_endproc
 322              	.LFE4:
 323              		.size	CyBle_Start, .-CyBle_Start
 324              		.section	.text.CyBle_Stop,"ax",%progbits
 325              		.align	2
 326              		.global	CyBle_Stop
 327              		.code	16
 328              		.thumb_func
 329              		.type	CyBle_Stop, %function
 330              	CyBle_Stop:
 331              	.LFB5:
 347:.\Generated_Source\PSoC4/BLE_1.c **** 
 348:.\Generated_Source\PSoC4/BLE_1.c **** 
 349:.\Generated_Source\PSoC4/BLE_1.c **** /******************************************************************************
 350:.\Generated_Source\PSoC4/BLE_1.c **** ##Function Name: CyBle_Stop
 351:.\Generated_Source\PSoC4/BLE_1.c **** *******************************************************************************
 352:.\Generated_Source\PSoC4/BLE_1.c **** 
 353:.\Generated_Source\PSoC4/BLE_1.c **** Summary:
ARM GAS  C:\Users\ENESDU~1\AppData\Local\Temp\ccn4fiPa.s 			page 13


 354:.\Generated_Source\PSoC4/BLE_1.c ****  This function stops any ongoing operation in the BLE Stack and forces the 
 355:.\Generated_Source\PSoC4/BLE_1.c ****  BLE Stack to shut down. The only function that can be called after calling
 356:.\Generated_Source\PSoC4/BLE_1.c ****  this function is CyBle_Start(). 
 357:.\Generated_Source\PSoC4/BLE_1.c **** 
 358:.\Generated_Source\PSoC4/BLE_1.c **** Parameters:
 359:.\Generated_Source\PSoC4/BLE_1.c ****  None
 360:.\Generated_Source\PSoC4/BLE_1.c **** 
 361:.\Generated_Source\PSoC4/BLE_1.c **** Return:
 362:.\Generated_Source\PSoC4/BLE_1.c ****  None
 363:.\Generated_Source\PSoC4/BLE_1.c **** 
 364:.\Generated_Source\PSoC4/BLE_1.c **** ******************************************************************************/
 365:.\Generated_Source\PSoC4/BLE_1.c **** void CyBle_Stop(void)
 366:.\Generated_Source\PSoC4/BLE_1.c **** {
 332              		.loc 1 366 0
 333              		.cfi_startproc
 334 0000 80B5     		push	{r7, lr}
 335              		.cfi_def_cfa_offset 8
 336              		.cfi_offset 7, -8
 337              		.cfi_offset 14, -4
 338 0002 00AF     		add	r7, sp, #0
 339              		.cfi_def_cfa_register 7
 367:.\Generated_Source\PSoC4/BLE_1.c ****     CyBle_Shutdown(); /* stop all ongoing activities */
 340              		.loc 1 367 0
 341 0004 FFF7FEFF 		bl	CyBle_Shutdown
 368:.\Generated_Source\PSoC4/BLE_1.c ****     CyBle_ProcessEvents(); /* process all pending events */
 342              		.loc 1 368 0
 343 0008 FFF7FEFF 		bl	CyBle_ProcessEvents
 369:.\Generated_Source\PSoC4/BLE_1.c ****     CyBle_SetState(CYBLE_STATE_STOPPED);
 344              		.loc 1 369 0
 345 000c 024B     		ldr	r3, .L12
 346 000e 0022     		mov	r2, #0
 347 0010 1A70     		strb	r2, [r3]
 370:.\Generated_Source\PSoC4/BLE_1.c **** }
 348              		.loc 1 370 0
 349 0012 BD46     		mov	sp, r7
 350              		@ sp needed
 351 0014 80BD     		pop	{r7, pc}
 352              	.L13:
 353 0016 C046     		.align	2
 354              	.L12:
 355 0018 00000000 		.word	cyBle_state
 356              		.cfi_endproc
 357              	.LFE5:
 358              		.size	CyBle_Stop, .-CyBle_Stop
 359              		.section	.text.CyBle_StoreBondingData,"ax",%progbits
 360              		.align	2
 361              		.global	CyBle_StoreBondingData
 362              		.code	16
 363              		.thumb_func
 364              		.type	CyBle_StoreBondingData, %function
 365              	CyBle_StoreBondingData:
 366              	.LFB6:
 371:.\Generated_Source\PSoC4/BLE_1.c **** 
 372:.\Generated_Source\PSoC4/BLE_1.c **** 
 373:.\Generated_Source\PSoC4/BLE_1.c **** #if((CYBLE_GAP_ROLE_PERIPHERAL || CYBLE_GAP_ROLE_CENTRAL) && (CYBLE_BONDING_REQUIREMENT == CYBLE_BO
 374:.\Generated_Source\PSoC4/BLE_1.c **** 
 375:.\Generated_Source\PSoC4/BLE_1.c ****     
ARM GAS  C:\Users\ENESDU~1\AppData\Local\Temp\ccn4fiPa.s 			page 14


 376:.\Generated_Source\PSoC4/BLE_1.c **** /******************************************************************************
 377:.\Generated_Source\PSoC4/BLE_1.c **** ##Function Name: CyBle_StoreBondingData
 378:.\Generated_Source\PSoC4/BLE_1.c **** *******************************************************************************
 379:.\Generated_Source\PSoC4/BLE_1.c **** 
 380:.\Generated_Source\PSoC4/BLE_1.c **** Summary:
 381:.\Generated_Source\PSoC4/BLE_1.c ****  This function writes the new bonding data from RAM to the dedicated Flash 
 382:.\Generated_Source\PSoC4/BLE_1.c ****  location as defined by the component. It performs data comparing between RAM
 383:.\Generated_Source\PSoC4/BLE_1.c ****  and Flash before writing to Flash. If there is no change between RAM and Flash
 384:.\Generated_Source\PSoC4/BLE_1.c ****  data, then no write is performed. It writes only one flash row in one call.
 385:.\Generated_Source\PSoC4/BLE_1.c ****  Application should keep calling this function till API return CYBLE_ERROR_OK. 
 386:.\Generated_Source\PSoC4/BLE_1.c ****  This function is available only when Bonding requirement is selected in
 387:.\Generated_Source\PSoC4/BLE_1.c ****  Security settings.    
 388:.\Generated_Source\PSoC4/BLE_1.c ****     
 389:.\Generated_Source\PSoC4/BLE_1.c **** Parameters:
 390:.\Generated_Source\PSoC4/BLE_1.c ****  isForceWrite:  If value is set to 0, then stack will check if flash write 
 391:.\Generated_Source\PSoC4/BLE_1.c ****                 is permissible. 
 392:.\Generated_Source\PSoC4/BLE_1.c ****  
 393:.\Generated_Source\PSoC4/BLE_1.c **** Return:
 394:.\Generated_Source\PSoC4/BLE_1.c ****  Return value is of type CYBLE_API_RESULT_T.
 395:.\Generated_Source\PSoC4/BLE_1.c ****  * CYBLE_ERROR_OK - On successful operation
 396:.\Generated_Source\PSoC4/BLE_1.c ****  * CYBLE_ERROR_FLASH_WRITE_NOT_PERMITED - Flash Write is not complete
 397:.\Generated_Source\PSoC4/BLE_1.c ****    
 398:.\Generated_Source\PSoC4/BLE_1.c ****  Side Effects:
 399:.\Generated_Source\PSoC4/BLE_1.c ****   This API will automatically modify the clock settings for the device.
 400:.\Generated_Source\PSoC4/BLE_1.c ****   Writing to flash requires changes to be done to the IMO (set to 48 MHz)
 401:.\Generated_Source\PSoC4/BLE_1.c ****   and HFCLK (source set to IMO) settings. The configuration is restored before
 402:.\Generated_Source\PSoC4/BLE_1.c ****   returning. This will impact the operation of most of the hardware in the
 403:.\Generated_Source\PSoC4/BLE_1.c ****   device.
 404:.\Generated_Source\PSoC4/BLE_1.c **** 
 405:.\Generated_Source\PSoC4/BLE_1.c **** ******************************************************************************/
 406:.\Generated_Source\PSoC4/BLE_1.c **** CYBLE_API_RESULT_T CyBle_StoreBondingData(uint8 isForceWrite)
 407:.\Generated_Source\PSoC4/BLE_1.c **** {
 367              		.loc 1 407 0
 368              		.cfi_startproc
 369 0000 90B5     		push	{r4, r7, lr}
 370              		.cfi_def_cfa_offset 12
 371              		.cfi_offset 4, -12
 372              		.cfi_offset 7, -8
 373              		.cfi_offset 14, -4
 374 0002 85B0     		sub	sp, sp, #20
 375              		.cfi_def_cfa_offset 32
 376 0004 00AF     		add	r7, sp, #0
 377              		.cfi_def_cfa_register 7
 378 0006 021C     		mov	r2, r0
 379 0008 FB1D     		add	r3, r7, #7
 380 000a 1A70     		strb	r2, [r3]
 408:.\Generated_Source\PSoC4/BLE_1.c ****     CYBLE_API_RESULT_T apiResult = CYBLE_ERROR_OK;
 381              		.loc 1 408 0
 382 000c 3B1C     		mov	r3, r7
 383 000e 0E33     		add	r3, r3, #14
 384 0010 0022     		mov	r2, #0
 385 0012 1A80     		strh	r2, [r3]
 409:.\Generated_Source\PSoC4/BLE_1.c ****     
 410:.\Generated_Source\PSoC4/BLE_1.c ****     /* Store Stack data */
 411:.\Generated_Source\PSoC4/BLE_1.c ****     if((cyBle_pendingFlashWrite & CYBLE_PENDING_STACK_FLASH_WRITE_BIT) != 0u)
 386              		.loc 1 411 0
 387 0014 2D4B     		ldr	r3, .L19
ARM GAS  C:\Users\ENESDU~1\AppData\Local\Temp\ccn4fiPa.s 			page 15


 388 0016 1B78     		ldrb	r3, [r3]
 389 0018 1A1C     		mov	r2, r3
 390 001a 0123     		mov	r3, #1
 391 001c 1340     		and	r3, r2
 392 001e 1ED0     		beq	.L15
 412:.\Generated_Source\PSoC4/BLE_1.c ****     {
 413:.\Generated_Source\PSoC4/BLE_1.c ****         apiResult = CyBle_StoreStackData(isForceWrite);
 393              		.loc 1 413 0
 394 0020 3C1C     		mov	r4, r7
 395 0022 0E34     		add	r4, r4, #14
 396 0024 FB1D     		add	r3, r7, #7
 397 0026 1B78     		ldrb	r3, [r3]
 398 0028 181C     		mov	r0, r3
 399 002a FFF7FEFF 		bl	CyBle_StoreStackData
 400 002e 031C     		mov	r3, r0
 401 0030 2380     		strh	r3, [r4]
 414:.\Generated_Source\PSoC4/BLE_1.c ****         if(apiResult == CYBLE_ERROR_OK)
 402              		.loc 1 414 0
 403 0032 3B1C     		mov	r3, r7
 404 0034 0E33     		add	r3, r3, #14
 405 0036 1B88     		ldrh	r3, [r3]
 406 0038 002B     		cmp	r3, #0
 407 003a 10D1     		bne	.L15
 415:.\Generated_Source\PSoC4/BLE_1.c ****         {
 416:.\Generated_Source\PSoC4/BLE_1.c ****             cyBle_pendingFlashWrite &= (uint8)~CYBLE_PENDING_STACK_FLASH_WRITE_BIT;
 408              		.loc 1 416 0
 409 003c 234B     		ldr	r3, .L19
 410 003e 1B78     		ldrb	r3, [r3]
 411 0040 0122     		mov	r2, #1
 412 0042 9343     		bic	r3, r2
 413 0044 DAB2     		uxtb	r2, r3
 414 0046 214B     		ldr	r3, .L19
 415 0048 1A70     		strb	r2, [r3]
 417:.\Generated_Source\PSoC4/BLE_1.c ****             /* Change apiResult if there are more pending data to store */
 418:.\Generated_Source\PSoC4/BLE_1.c ****             if((cyBle_pendingFlashWrite & CYBLE_PENDING_CCCD_FLASH_WRITE_BIT) != 0u)
 416              		.loc 1 418 0
 417 004a 204B     		ldr	r3, .L19
 418 004c 1B78     		ldrb	r3, [r3]
 419 004e 1A1C     		mov	r2, r3
 420 0050 0223     		mov	r3, #2
 421 0052 1340     		and	r3, r2
 422 0054 03D0     		beq	.L15
 419:.\Generated_Source\PSoC4/BLE_1.c ****             {
 420:.\Generated_Source\PSoC4/BLE_1.c ****                 apiResult = CYBLE_ERROR_FLASH_WRITE_NOT_PERMITED;
 423              		.loc 1 420 0
 424 0056 3B1C     		mov	r3, r7
 425 0058 0E33     		add	r3, r3, #14
 426 005a 2822     		mov	r2, #40
 427 005c 1A80     		strh	r2, [r3]
 428              	.L15:
 421:.\Generated_Source\PSoC4/BLE_1.c ****             }
 422:.\Generated_Source\PSoC4/BLE_1.c ****         }
 423:.\Generated_Source\PSoC4/BLE_1.c ****     }
 424:.\Generated_Source\PSoC4/BLE_1.c **** #if(CYBLE_GATT_DB_CCCD_COUNT != 0u)
 425:.\Generated_Source\PSoC4/BLE_1.c ****     /* Store CCCD values */
 426:.\Generated_Source\PSoC4/BLE_1.c ****     if( ((apiResult == CYBLE_ERROR_OK) || (isForceWrite != 0u)) && 
 429              		.loc 1 426 0
ARM GAS  C:\Users\ENESDU~1\AppData\Local\Temp\ccn4fiPa.s 			page 16


 430 005e 3B1C     		mov	r3, r7
 431 0060 0E33     		add	r3, r3, #14
 432 0062 1B88     		ldrh	r3, [r3]
 433 0064 002B     		cmp	r3, #0
 434 0066 03D0     		beq	.L16
 435              		.loc 1 426 0 is_stmt 0 discriminator 2
 436 0068 FB1D     		add	r3, r7, #7
 437 006a 1B78     		ldrb	r3, [r3]
 438 006c 002B     		cmp	r3, #0
 439 006e 26D0     		beq	.L17
 440              	.L16:
 427:.\Generated_Source\PSoC4/BLE_1.c ****         ((cyBle_pendingFlashWrite & CYBLE_PENDING_CCCD_FLASH_WRITE_BIT) != 0u) &&
 441              		.loc 1 427 0 is_stmt 1 discriminator 1
 442 0070 164B     		ldr	r3, .L19
 443 0072 1B78     		ldrb	r3, [r3]
 444 0074 1A1C     		mov	r2, r3
 445 0076 0223     		mov	r3, #2
 446 0078 1340     		and	r3, r2
 426:.\Generated_Source\PSoC4/BLE_1.c ****     if( ((apiResult == CYBLE_ERROR_OK) || (isForceWrite != 0u)) && 
 447              		.loc 1 426 0 discriminator 1
 448 007a 20D0     		beq	.L17
 428:.\Generated_Source\PSoC4/BLE_1.c ****         (cyBle_connHandle.bdHandle <= CYBLE_GAP_MAX_BONDED_DEVICE))
 449              		.loc 1 428 0
 450 007c 144B     		ldr	r3, .L19+4
 451 007e 1B78     		ldrb	r3, [r3]
 427:.\Generated_Source\PSoC4/BLE_1.c ****         ((cyBle_pendingFlashWrite & CYBLE_PENDING_CCCD_FLASH_WRITE_BIT) != 0u) &&
 452              		.loc 1 427 0
 453 0080 042B     		cmp	r3, #4
 454 0082 1CD8     		bhi	.L17
 429:.\Generated_Source\PSoC4/BLE_1.c ****     {
 430:.\Generated_Source\PSoC4/BLE_1.c ****         apiResult = CyBle_StoreAppData(cyBle_attValuesCCCD, cyBle_attValuesCCCDFlashMemory[cyBle_co
 455              		.loc 1 430 0
 456 0084 124B     		ldr	r3, .L19+4
 457 0086 1B78     		ldrb	r3, [r3]
 458 0088 9A00     		lsl	r2, r3, #2
 459 008a 124B     		ldr	r3, .L19+8
 460 008c D218     		add	r2, r2, r3
 461 008e 3C1C     		mov	r4, r7
 462 0090 0E34     		add	r4, r4, #14
 463 0092 1149     		ldr	r1, .L19+12
 464 0094 FB1D     		add	r3, r7, #7
 465 0096 1B78     		ldrb	r3, [r3]
 466 0098 081C     		mov	r0, r1
 467 009a 111C     		mov	r1, r2
 468 009c 0422     		mov	r2, #4
 469 009e FFF7FEFF 		bl	CyBle_StoreAppData
 470 00a2 031C     		mov	r3, r0
 471 00a4 2380     		strh	r3, [r4]
 431:.\Generated_Source\PSoC4/BLE_1.c ****                                        CYBLE_GATT_DB_CCCD_COUNT, isForceWrite);
 432:.\Generated_Source\PSoC4/BLE_1.c ****         if(apiResult == CYBLE_ERROR_OK)
 472              		.loc 1 432 0
 473 00a6 3B1C     		mov	r3, r7
 474 00a8 0E33     		add	r3, r3, #14
 475 00aa 1B88     		ldrh	r3, [r3]
 476 00ac 002B     		cmp	r3, #0
 477 00ae 06D1     		bne	.L17
 433:.\Generated_Source\PSoC4/BLE_1.c ****         {
ARM GAS  C:\Users\ENESDU~1\AppData\Local\Temp\ccn4fiPa.s 			page 17


 434:.\Generated_Source\PSoC4/BLE_1.c ****             cyBle_pendingFlashWrite &= (uint8)~CYBLE_PENDING_CCCD_FLASH_WRITE_BIT;
 478              		.loc 1 434 0
 479 00b0 064B     		ldr	r3, .L19
 480 00b2 1B78     		ldrb	r3, [r3]
 481 00b4 0222     		mov	r2, #2
 482 00b6 9343     		bic	r3, r2
 483 00b8 DAB2     		uxtb	r2, r3
 484 00ba 044B     		ldr	r3, .L19
 485 00bc 1A70     		strb	r2, [r3]
 486              	.L17:
 435:.\Generated_Source\PSoC4/BLE_1.c ****         }
 436:.\Generated_Source\PSoC4/BLE_1.c ****     }
 437:.\Generated_Source\PSoC4/BLE_1.c **** #endif /* CYBLE_GATT_DB_CCCD_COUNT != 0u */
 438:.\Generated_Source\PSoC4/BLE_1.c ****     return(apiResult);
 487              		.loc 1 438 0
 488 00be 3B1C     		mov	r3, r7
 489 00c0 0E33     		add	r3, r3, #14
 490 00c2 1B88     		ldrh	r3, [r3]
 439:.\Generated_Source\PSoC4/BLE_1.c **** }
 491              		.loc 1 439 0
 492 00c4 181C     		mov	r0, r3
 493 00c6 BD46     		mov	sp, r7
 494 00c8 05B0     		add	sp, sp, #20
 495              		@ sp needed
 496 00ca 90BD     		pop	{r4, r7, pc}
 497              	.L20:
 498              		.align	2
 499              	.L19:
 500 00cc 00000000 		.word	cyBle_pendingFlashWrite
 501 00d0 00000000 		.word	cyBle_connHandle
 502 00d4 00000000 		.word	cyBle_attValuesCCCDFlashMemory
 503 00d8 00000000 		.word	cyBle_attValuesCCCD
 504              		.cfi_endproc
 505              	.LFE6:
 506              		.size	CyBle_StoreBondingData, .-CyBle_StoreBondingData
 507              		.section	.text.CyBle_GappStartAdvertisement,"ax",%progbits
 508              		.align	2
 509              		.global	CyBle_GappStartAdvertisement
 510              		.code	16
 511              		.thumb_func
 512              		.type	CyBle_GappStartAdvertisement, %function
 513              	CyBle_GappStartAdvertisement:
 514              	.LFB7:
 440:.\Generated_Source\PSoC4/BLE_1.c **** 
 441:.\Generated_Source\PSoC4/BLE_1.c **** 
 442:.\Generated_Source\PSoC4/BLE_1.c **** #endif /* (CYBLE_GAP_ROLE_PERIPHERAL || CYBLE_GAP_ROLE_CENTRAL) && (CYBLE_BONDING_REQUIREMENT == CY
 443:.\Generated_Source\PSoC4/BLE_1.c **** 
 444:.\Generated_Source\PSoC4/BLE_1.c **** 
 445:.\Generated_Source\PSoC4/BLE_1.c **** #if(CYBLE_GAP_ROLE_PERIPHERAL || CYBLE_GAP_ROLE_BROADCASTER)
 446:.\Generated_Source\PSoC4/BLE_1.c **** 
 447:.\Generated_Source\PSoC4/BLE_1.c ****     /******************************************************************************
 448:.\Generated_Source\PSoC4/BLE_1.c ****     ##Function Name: CyBle_GappStartAdvertisement
 449:.\Generated_Source\PSoC4/BLE_1.c ****     *******************************************************************************
 450:.\Generated_Source\PSoC4/BLE_1.c ****     
 451:.\Generated_Source\PSoC4/BLE_1.c ****     Summary:
 452:.\Generated_Source\PSoC4/BLE_1.c ****      This function is used to start the advertisement using the advertisement data 
 453:.\Generated_Source\PSoC4/BLE_1.c ****      set in the component customizer's GUI. After invoking this API, the device 
ARM GAS  C:\Users\ENESDU~1\AppData\Local\Temp\ccn4fiPa.s 			page 18


 454:.\Generated_Source\PSoC4/BLE_1.c ****      will be available for connection by the devices configured for GAP central 
 455:.\Generated_Source\PSoC4/BLE_1.c ****      role. It is only included if the device is configured for GAP Peripheral or 
 456:.\Generated_Source\PSoC4/BLE_1.c ****      GAP Peripheral + Central role.
 457:.\Generated_Source\PSoC4/BLE_1.c ****      
 458:.\Generated_Source\PSoC4/BLE_1.c ****      On start of advertisement, GAP Peripheral receives the
 459:.\Generated_Source\PSoC4/BLE_1.c ****      CYBLE_EVT_GAPP_ADVERTISEMENT_START_STOP event. The following events are 
 460:.\Generated_Source\PSoC4/BLE_1.c ****      possible on invoking this function:
 461:.\Generated_Source\PSoC4/BLE_1.c ****      
 462:.\Generated_Source\PSoC4/BLE_1.c ****      * CYBLE_EVT_GAP_DEVICE_CONNECTED: If the device connects to remote GAP 
 463:.\Generated_Source\PSoC4/BLE_1.c ****                                          Central device
 464:.\Generated_Source\PSoC4/BLE_1.c ****      * CYBLE_EVT_TIMEOUT: If no device in GAP Central mode connects to this 
 465:.\Generated_Source\PSoC4/BLE_1.c ****                           device within the specified timeout limit. Stack 
 466:.\Generated_Source\PSoC4/BLE_1.c ****                           automatically initiate stop advertising when Slow 
 467:.\Generated_Source\PSoC4/BLE_1.c ****                           advertising was initiated, or starts Slow advertising
 468:.\Generated_Source\PSoC4/BLE_1.c ****                           after Fast advertising timeout occur.
 469:.\Generated_Source\PSoC4/BLE_1.c ****      * CYBLE_EVT_GAPP_ADVERTISEMENT_START_STOP: If device started or stopped
 470:.\Generated_Source\PSoC4/BLE_1.c ****                                                   advertising. Use CyBle_GetState()
 471:.\Generated_Source\PSoC4/BLE_1.c ****                                                   to determine the state. Sequential 
 472:.\Generated_Source\PSoC4/BLE_1.c ****                                                   advertising could be started when
 473:.\Generated_Source\PSoC4/BLE_1.c ****                                                   CYBLE_STATE_DISCONNECTED state is
 474:.\Generated_Source\PSoC4/BLE_1.c ****                                                   returned.
 475:.\Generated_Source\PSoC4/BLE_1.c **** 
 476:.\Generated_Source\PSoC4/BLE_1.c ****     Parameters:
 477:.\Generated_Source\PSoC4/BLE_1.c ****      uint8 advertisingIntervalType: Fast or slow advertising interval with timings
 478:.\Generated_Source\PSoC4/BLE_1.c ****                                     entered in Advertising settings section of the
 479:.\Generated_Source\PSoC4/BLE_1.c ****                                     customizer.
 480:.\Generated_Source\PSoC4/BLE_1.c ****      * CYBLE_ADVERTISING_FAST   0x00u
 481:.\Generated_Source\PSoC4/BLE_1.c ****      * CYBLE_ADVERTISING_SLOW   0x01u
 482:.\Generated_Source\PSoC4/BLE_1.c ****      * CYBLE_ADVERTISING_CUSTOM 0x02u
 483:.\Generated_Source\PSoC4/BLE_1.c ****     
 484:.\Generated_Source\PSoC4/BLE_1.c ****     Return:
 485:.\Generated_Source\PSoC4/BLE_1.c ****      CYBLE_API_RESULT_T : Return value indicates if the function succeeded or
 486:.\Generated_Source\PSoC4/BLE_1.c ****      failed. Following are the possible error codes.
 487:.\Generated_Source\PSoC4/BLE_1.c ****      <table>
 488:.\Generated_Source\PSoC4/BLE_1.c ****       Errors codes                        Description
 489:.\Generated_Source\PSoC4/BLE_1.c ****       ------------                        -----------
 490:.\Generated_Source\PSoC4/BLE_1.c ****       CYBLE_ERROR_OK                      On successful operation.
 491:.\Generated_Source\PSoC4/BLE_1.c ****       CYBLE_ERROR_INVALID_PARAMETER       On passing an invalid parameter.
 492:.\Generated_Source\PSoC4/BLE_1.c ****      </table>
 493:.\Generated_Source\PSoC4/BLE_1.c ****     
 494:.\Generated_Source\PSoC4/BLE_1.c ****     ******************************************************************************/
 495:.\Generated_Source\PSoC4/BLE_1.c ****     CYBLE_API_RESULT_T CyBle_GappStartAdvertisement(uint8 advertisingIntervalType)
 496:.\Generated_Source\PSoC4/BLE_1.c ****     {
 515              		.loc 1 496 0
 516              		.cfi_startproc
 517 0000 90B5     		push	{r4, r7, lr}
 518              		.cfi_def_cfa_offset 12
 519              		.cfi_offset 4, -12
 520              		.cfi_offset 7, -8
 521              		.cfi_offset 14, -4
 522 0002 85B0     		sub	sp, sp, #20
 523              		.cfi_def_cfa_offset 32
 524 0004 00AF     		add	r7, sp, #0
 525              		.cfi_def_cfa_register 7
 526 0006 021C     		mov	r2, r0
 527 0008 FB1D     		add	r3, r7, #7
 528 000a 1A70     		strb	r2, [r3]
ARM GAS  C:\Users\ENESDU~1\AppData\Local\Temp\ccn4fiPa.s 			page 19


 497:.\Generated_Source\PSoC4/BLE_1.c ****         CYBLE_API_RESULT_T apiResult;
 498:.\Generated_Source\PSoC4/BLE_1.c ****         
 499:.\Generated_Source\PSoC4/BLE_1.c ****         if((CYBLE_STATE_DISCONNECTED == CyBle_GetState()) && ((cyBle_eventHandlerFlag & CYBLE_START
 529              		.loc 1 499 0
 530 000c 294B     		ldr	r3, .L28
 531 000e 1B78     		ldrb	r3, [r3]
 532 0010 042B     		cmp	r3, #4
 533 0012 42D1     		bne	.L22
 534              		.loc 1 499 0 is_stmt 0 discriminator 1
 535 0014 284B     		ldr	r3, .L28+4
 536 0016 1B78     		ldrb	r3, [r3]
 537 0018 DBB2     		uxtb	r3, r3
 538 001a 1A1C     		mov	r2, r3
 539 001c 0423     		mov	r3, #4
 540 001e 1340     		and	r3, r2
 541 0020 3BD1     		bne	.L22
 500:.\Generated_Source\PSoC4/BLE_1.c ****         {   
 501:.\Generated_Source\PSoC4/BLE_1.c ****             if(advertisingIntervalType == CYBLE_ADVERTISING_FAST)
 542              		.loc 1 501 0 is_stmt 1
 543 0022 FB1D     		add	r3, r7, #7
 544 0024 1B78     		ldrb	r3, [r3]
 545 0026 002B     		cmp	r3, #0
 546 0028 0BD1     		bne	.L23
 502:.\Generated_Source\PSoC4/BLE_1.c ****             {
 503:.\Generated_Source\PSoC4/BLE_1.c ****                 cyBle_discoveryModeInfo.advTo = CYBLE_FAST_ADV_TIMEOUT;
 547              		.loc 1 503 0
 548 002a 244B     		ldr	r3, .L28+8
 549 002c 1E22     		mov	r2, #30
 550 002e 1A82     		strh	r2, [r3, #16]
 504:.\Generated_Source\PSoC4/BLE_1.c ****                 cyBle_discoveryModeInfo.advParam->advIntvMin = CYBLE_FAST_ADV_INT_MIN;
 551              		.loc 1 504 0
 552 0030 224B     		ldr	r3, .L28+8
 553 0032 5B68     		ldr	r3, [r3, #4]
 554 0034 2022     		mov	r2, #32
 555 0036 1A80     		strh	r2, [r3]
 505:.\Generated_Source\PSoC4/BLE_1.c ****                 cyBle_discoveryModeInfo.advParam->advIntvMax = CYBLE_FAST_ADV_INT_MAX;
 556              		.loc 1 505 0
 557 0038 204B     		ldr	r3, .L28+8
 558 003a 5B68     		ldr	r3, [r3, #4]
 559 003c 3022     		mov	r2, #48
 560 003e 5A80     		strh	r2, [r3, #2]
 561 0040 10E0     		b	.L24
 562              	.L23:
 506:.\Generated_Source\PSoC4/BLE_1.c ****             }
 507:.\Generated_Source\PSoC4/BLE_1.c ****             else if(advertisingIntervalType == CYBLE_ADVERTISING_SLOW)
 563              		.loc 1 507 0
 564 0042 FB1D     		add	r3, r7, #7
 565 0044 1B78     		ldrb	r3, [r3]
 566 0046 012B     		cmp	r3, #1
 567 0048 0CD1     		bne	.L24
 508:.\Generated_Source\PSoC4/BLE_1.c ****             {
 509:.\Generated_Source\PSoC4/BLE_1.c ****                 cyBle_discoveryModeInfo.advTo = CYBLE_SLOW_ADV_TIMEOUT;
 568              		.loc 1 509 0
 569 004a 1C4B     		ldr	r3, .L28+8
 570 004c 9622     		mov	r2, #150
 571 004e 1A82     		strh	r2, [r3, #16]
 510:.\Generated_Source\PSoC4/BLE_1.c ****                 cyBle_discoveryModeInfo.advParam->advIntvMin = CYBLE_SLOW_ADV_INT_MIN;
ARM GAS  C:\Users\ENESDU~1\AppData\Local\Temp\ccn4fiPa.s 			page 20


 572              		.loc 1 510 0
 573 0050 1A4B     		ldr	r3, .L28+8
 574 0052 5B68     		ldr	r3, [r3, #4]
 575 0054 C822     		mov	r2, #200
 576 0056 D200     		lsl	r2, r2, #3
 577 0058 1A80     		strh	r2, [r3]
 511:.\Generated_Source\PSoC4/BLE_1.c ****                 cyBle_discoveryModeInfo.advParam->advIntvMax = CYBLE_SLOW_ADV_INT_MAX;
 578              		.loc 1 511 0
 579 005a 184B     		ldr	r3, .L28+8
 580 005c 5B68     		ldr	r3, [r3, #4]
 581 005e 8022     		mov	r2, #128
 582 0060 D201     		lsl	r2, r2, #7
 583 0062 5A80     		strh	r2, [r3, #2]
 584              	.L24:
 512:.\Generated_Source\PSoC4/BLE_1.c ****             }       
 513:.\Generated_Source\PSoC4/BLE_1.c ****             else /* Do not update advertising intervals */
 514:.\Generated_Source\PSoC4/BLE_1.c ****             {
 515:.\Generated_Source\PSoC4/BLE_1.c ****             }
 516:.\Generated_Source\PSoC4/BLE_1.c ****             cyBle_advertisingIntervalType = advertisingIntervalType;
 585              		.loc 1 516 0
 586 0064 164B     		ldr	r3, .L28+12
 587 0066 FA1D     		add	r2, r7, #7
 588 0068 1278     		ldrb	r2, [r2]
 589 006a 1A70     		strb	r2, [r3]
 517:.\Generated_Source\PSoC4/BLE_1.c ****             apiResult = CyBle_GappEnterDiscoveryMode(&cyBle_discoveryModeInfo);
 590              		.loc 1 517 0
 591 006c 3C1C     		mov	r4, r7
 592 006e 0E34     		add	r4, r4, #14
 593 0070 124B     		ldr	r3, .L28+8
 594 0072 181C     		mov	r0, r3
 595 0074 FFF7FEFF 		bl	CyBle_GappEnterDiscoveryMode
 596 0078 031C     		mov	r3, r0
 597 007a 2380     		strh	r3, [r4]
 518:.\Generated_Source\PSoC4/BLE_1.c ****         
 519:.\Generated_Source\PSoC4/BLE_1.c ****             if(CYBLE_ERROR_OK == apiResult)
 598              		.loc 1 519 0
 599 007c 3B1C     		mov	r3, r7
 600 007e 0E33     		add	r3, r3, #14
 601 0080 1B88     		ldrh	r3, [r3]
 602 0082 002B     		cmp	r3, #0
 603 0084 08D1     		bne	.L25
 520:.\Generated_Source\PSoC4/BLE_1.c ****             {
 521:.\Generated_Source\PSoC4/BLE_1.c ****                 cyBle_eventHandlerFlag |= CYBLE_START_FLAG;
 604              		.loc 1 521 0
 605 0086 0C4B     		ldr	r3, .L28+4
 606 0088 1B78     		ldrb	r3, [r3]
 607 008a DBB2     		uxtb	r3, r3
 608 008c 0422     		mov	r2, #4
 609 008e 1343     		orr	r3, r2
 610 0090 DAB2     		uxtb	r2, r3
 611 0092 094B     		ldr	r3, .L28+4
 612 0094 1A70     		strb	r2, [r3]
 519:.\Generated_Source\PSoC4/BLE_1.c ****             if(CYBLE_ERROR_OK == apiResult)
 613              		.loc 1 519 0
 614 0096 05E0     		b	.L26
 615              	.L25:
 519:.\Generated_Source\PSoC4/BLE_1.c ****             if(CYBLE_ERROR_OK == apiResult)
ARM GAS  C:\Users\ENESDU~1\AppData\Local\Temp\ccn4fiPa.s 			page 21


 616              		.loc 1 519 0 is_stmt 0 discriminator 1
 617 0098 04E0     		b	.L26
 618              	.L22:
 522:.\Generated_Source\PSoC4/BLE_1.c ****             }
 523:.\Generated_Source\PSoC4/BLE_1.c ****         }
 524:.\Generated_Source\PSoC4/BLE_1.c ****         else
 525:.\Generated_Source\PSoC4/BLE_1.c ****         {
 526:.\Generated_Source\PSoC4/BLE_1.c ****             apiResult = CYBLE_ERROR_INVALID_STATE;
 619              		.loc 1 526 0 is_stmt 1
 620 009a 3B1C     		mov	r3, r7
 621 009c 0E33     		add	r3, r3, #14
 622 009e 8322     		mov	r2, #131
 623 00a0 5200     		lsl	r2, r2, #1
 624 00a2 1A80     		strh	r2, [r3]
 625              	.L26:
 527:.\Generated_Source\PSoC4/BLE_1.c ****         }
 528:.\Generated_Source\PSoC4/BLE_1.c **** 
 529:.\Generated_Source\PSoC4/BLE_1.c ****         return (apiResult);
 626              		.loc 1 529 0
 627 00a4 3B1C     		mov	r3, r7
 628 00a6 0E33     		add	r3, r3, #14
 629 00a8 1B88     		ldrh	r3, [r3]
 530:.\Generated_Source\PSoC4/BLE_1.c ****     }
 630              		.loc 1 530 0
 631 00aa 181C     		mov	r0, r3
 632 00ac BD46     		mov	sp, r7
 633 00ae 05B0     		add	sp, sp, #20
 634              		@ sp needed
 635 00b0 90BD     		pop	{r4, r7, pc}
 636              	.L29:
 637 00b2 C046     		.align	2
 638              	.L28:
 639 00b4 00000000 		.word	cyBle_state
 640 00b8 00000000 		.word	cyBle_eventHandlerFlag
 641 00bc 00000000 		.word	cyBle_discoveryModeInfo
 642 00c0 00000000 		.word	cyBle_advertisingIntervalType
 643              		.cfi_endproc
 644              	.LFE7:
 645              		.size	CyBle_GappStartAdvertisement, .-CyBle_GappStartAdvertisement
 646              		.section	.text.CyBle_GappStopAdvertisement,"ax",%progbits
 647              		.align	2
 648              		.global	CyBle_GappStopAdvertisement
 649              		.code	16
 650              		.thumb_func
 651              		.type	CyBle_GappStopAdvertisement, %function
 652              	CyBle_GappStopAdvertisement:
 653              	.LFB8:
 531:.\Generated_Source\PSoC4/BLE_1.c **** 
 532:.\Generated_Source\PSoC4/BLE_1.c ****     
 533:.\Generated_Source\PSoC4/BLE_1.c ****     /******************************************************************************
 534:.\Generated_Source\PSoC4/BLE_1.c ****     ##Function Name: CyBle_GappStopAdvertisement
 535:.\Generated_Source\PSoC4/BLE_1.c ****     *******************************************************************************
 536:.\Generated_Source\PSoC4/BLE_1.c ****     
 537:.\Generated_Source\PSoC4/BLE_1.c ****      Summary:
 538:.\Generated_Source\PSoC4/BLE_1.c ****       This function can be used to exit from discovery mode. After the execution 
 539:.\Generated_Source\PSoC4/BLE_1.c ****       of this function, there will no longer be any advertisements. On stopping 
 540:.\Generated_Source\PSoC4/BLE_1.c ****       advertising, GAP Peripheral receives CYBLE_EVT_GAPP_ADVERTISEMENT_START_STOP
ARM GAS  C:\Users\ENESDU~1\AppData\Local\Temp\ccn4fiPa.s 			page 22


 541:.\Generated_Source\PSoC4/BLE_1.c ****       event. It is expected that the application layer tracks the function call 
 542:.\Generated_Source\PSoC4/BLE_1.c ****       performed before occurrence of this event as this event can occur on making 
 543:.\Generated_Source\PSoC4/BLE_1.c ****       a call to Cy_BleGappStartAdvertisement(), CyBle_GappEnterDiscoveryMode(), 
 544:.\Generated_Source\PSoC4/BLE_1.c ****       or CyBle_GappStartAdvertisement() functions as well.
 545:.\Generated_Source\PSoC4/BLE_1.c ****       
 546:.\Generated_Source\PSoC4/BLE_1.c ****       The following event occurs on invoking this function:
 547:.\Generated_Source\PSoC4/BLE_1.c ****       * CYBLE_EVT_GAPP_ADVERTISEMENT_START_STOP
 548:.\Generated_Source\PSoC4/BLE_1.c ****     
 549:.\Generated_Source\PSoC4/BLE_1.c ****      Parameters:
 550:.\Generated_Source\PSoC4/BLE_1.c ****       None
 551:.\Generated_Source\PSoC4/BLE_1.c ****     
 552:.\Generated_Source\PSoC4/BLE_1.c ****      Return:
 553:.\Generated_Source\PSoC4/BLE_1.c ****       None
 554:.\Generated_Source\PSoC4/BLE_1.c ****     
 555:.\Generated_Source\PSoC4/BLE_1.c ****     ******************************************************************************/
 556:.\Generated_Source\PSoC4/BLE_1.c ****     void CyBle_GappStopAdvertisement(void)
 557:.\Generated_Source\PSoC4/BLE_1.c ****     {
 654              		.loc 1 557 0
 655              		.cfi_startproc
 656 0000 80B5     		push	{r7, lr}
 657              		.cfi_def_cfa_offset 8
 658              		.cfi_offset 7, -8
 659              		.cfi_offset 14, -4
 660 0002 00AF     		add	r7, sp, #0
 661              		.cfi_def_cfa_register 7
 558:.\Generated_Source\PSoC4/BLE_1.c ****         CyBle_GappExitDiscoveryMode();
 662              		.loc 1 558 0
 663 0004 FFF7FEFF 		bl	CyBle_GappExitDiscoveryMode
 559:.\Generated_Source\PSoC4/BLE_1.c ****         cyBle_eventHandlerFlag |= CYBLE_STOP_FLAG;
 664              		.loc 1 559 0
 665 0008 044B     		ldr	r3, .L31
 666 000a 1B78     		ldrb	r3, [r3]
 667 000c DBB2     		uxtb	r3, r3
 668 000e 0822     		mov	r2, #8
 669 0010 1343     		orr	r3, r2
 670 0012 DAB2     		uxtb	r2, r3
 671 0014 014B     		ldr	r3, .L31
 672 0016 1A70     		strb	r2, [r3]
 560:.\Generated_Source\PSoC4/BLE_1.c ****     }
 673              		.loc 1 560 0
 674 0018 BD46     		mov	sp, r7
 675              		@ sp needed
 676 001a 80BD     		pop	{r7, pc}
 677              	.L32:
 678              		.align	2
 679              	.L31:
 680 001c 00000000 		.word	cyBle_eventHandlerFlag
 681              		.cfi_endproc
 682              	.LFE8:
 683              		.size	CyBle_GappStopAdvertisement, .-CyBle_GappStopAdvertisement
 684              		.section	.text.CyBle_ChangeAdLocalName,"ax",%progbits
 685              		.align	2
 686              		.code	16
 687              		.thumb_func
 688              		.type	CyBle_ChangeAdLocalName, %function
 689              	CyBle_ChangeAdLocalName:
 690              	.LFB9:
ARM GAS  C:\Users\ENESDU~1\AppData\Local\Temp\ccn4fiPa.s 			page 23


 561:.\Generated_Source\PSoC4/BLE_1.c ****     
 562:.\Generated_Source\PSoC4/BLE_1.c **** #endif /* CYBLE_GAP_ROLE_PERIPHERAL || CYBLE_GAP_ROLE_BROADCASTER */
 563:.\Generated_Source\PSoC4/BLE_1.c **** 
 564:.\Generated_Source\PSoC4/BLE_1.c **** 
 565:.\Generated_Source\PSoC4/BLE_1.c **** #if(CYBLE_GAP_ROLE_CENTRAL || CYBLE_GAP_ROLE_OBSERVER)
 566:.\Generated_Source\PSoC4/BLE_1.c **** 
 567:.\Generated_Source\PSoC4/BLE_1.c ****     /******************************************************************************
 568:.\Generated_Source\PSoC4/BLE_1.c ****     ##Function Name: CyBle_GapcStartScan
 569:.\Generated_Source\PSoC4/BLE_1.c ****     *******************************************************************************
 570:.\Generated_Source\PSoC4/BLE_1.c ****     
 571:.\Generated_Source\PSoC4/BLE_1.c ****      Summary:
 572:.\Generated_Source\PSoC4/BLE_1.c ****       This function is used for discovering GAP peripheral devices that are 
 573:.\Generated_Source\PSoC4/BLE_1.c ****       available for connection. It performs the scanning routine using the 
 574:.\Generated_Source\PSoC4/BLE_1.c ****       parameters entered in the component's customizer.
 575:.\Generated_Source\PSoC4/BLE_1.c ****       
 576:.\Generated_Source\PSoC4/BLE_1.c ****       As soon as the discovery operation starts, CYBLE_EVT_GAPC_SCAN_START_STOP 
 577:.\Generated_Source\PSoC4/BLE_1.c ****       event is generated. The CYBLE_EVT_GAPC_SCAN_PROGRESS_RESULT event is 
 578:.\Generated_Source\PSoC4/BLE_1.c ****       generated when a GAP peripheral device is located. There are three discovery
 579:.\Generated_Source\PSoC4/BLE_1.c ****       procedures can be selected in the customizer's GUI:
 580:.\Generated_Source\PSoC4/BLE_1.c ****       
 581:.\Generated_Source\PSoC4/BLE_1.c ****       * Observation procedure: A device performing the observer role receives only
 582:.\Generated_Source\PSoC4/BLE_1.c ****                                advertisement data from devices irrespective of 
 583:.\Generated_Source\PSoC4/BLE_1.c ****                                their discoverable mode settings. Advertisement 
 584:.\Generated_Source\PSoC4/BLE_1.c ****                                data received is provided by the event,      
 585:.\Generated_Source\PSoC4/BLE_1.c ****                                CYBLE_EVT_GAPC_SCAN_PROGRESS_RESULT. This procedure
 586:.\Generated_Source\PSoC4/BLE_1.c ****                                requires the scanType sub parameter to be passive
 587:.\Generated_Source\PSoC4/BLE_1.c ****                                scanning. 
 588:.\Generated_Source\PSoC4/BLE_1.c ****       
 589:.\Generated_Source\PSoC4/BLE_1.c ****       * Limited Discovery procedure: A device performing the limited discovery
 590:.\Generated_Source\PSoC4/BLE_1.c ****                                      procedure receives advertisement data and 
 591:.\Generated_Source\PSoC4/BLE_1.c ****                                      scan# response data from devices in the 
 592:.\Generated_Source\PSoC4/BLE_1.c ****                                      limited discoverable mode only. Received data
 593:.\Generated_Source\PSoC4/BLE_1.c ****                                      is provided by the event, 
 594:.\Generated_Source\PSoC4/BLE_1.c ****                                      CYBLE_EVT_GAPC_SCAN_PROGRESS_RESULT. This 
 595:.\Generated_Source\PSoC4/BLE_1.c ****                                      procedure requires the scanType sub-parameter 
 596:.\Generated_Source\PSoC4/BLE_1.c ****                                      to be active scanning.
 597:.\Generated_Source\PSoC4/BLE_1.c ****       
 598:.\Generated_Source\PSoC4/BLE_1.c ****       * General Discovery procedure: A device performing the general discovery 
 599:.\Generated_Source\PSoC4/BLE_1.c ****                                      procedure receives the advertisement data and
 600:.\Generated_Source\PSoC4/BLE_1.c ****                                      scan response data from devices in both 
 601:.\Generated_Source\PSoC4/BLE_1.c ****                                      limited discoverable mode and the general 
 602:.\Generated_Source\PSoC4/BLE_1.c ****                                      discoverable mode. Received data is provided
 603:.\Generated_Source\PSoC4/BLE_1.c ****                                      by the event,
 604:.\Generated_Source\PSoC4/BLE_1.c ****                                      CYBLE_EVT_GAPC_SCAN_PROGRESS_RESULT. This 
 605:.\Generated_Source\PSoC4/BLE_1.c ****                                      procedure requires the scanType sub-parameter
 606:.\Generated_Source\PSoC4/BLE_1.c ****                                      to be active scanning.
 607:.\Generated_Source\PSoC4/BLE_1.c ****       
 608:.\Generated_Source\PSoC4/BLE_1.c ****       Every Advertisement / Scan response packet received results in a new event, 
 609:.\Generated_Source\PSoC4/BLE_1.c ****       CYBLE_EVT_GAPC_SCAN_PROGRESS_RESULT.
 610:.\Generated_Source\PSoC4/BLE_1.c ****       If 'scanTo' sub-parameter is a non-zero value, then upon commencement of 
 611:.\Generated_Source\PSoC4/BLE_1.c ****       discovery procedure and elapsed time = 'scanTo', CYBLE_EVT_TIMEOUT event
 612:.\Generated_Source\PSoC4/BLE_1.c ****       is generated with the event parameter indicating CYBLE_GAP_SCAN_TO.
 613:.\Generated_Source\PSoC4/BLE_1.c ****       Possible generated events are:
 614:.\Generated_Source\PSoC4/BLE_1.c ****       * CYBLE_EVT_GAPC_SCAN_START_STOP: If a device started or stopped scanning. 
 615:.\Generated_Source\PSoC4/BLE_1.c ****                                         Use CyBle_GetState() to determine the 
 616:.\Generated_Source\PSoC4/BLE_1.c ****                                         state. Sequential scanning could be 
 617:.\Generated_Source\PSoC4/BLE_1.c ****                                         started when CYBLE_STATE_DISCONNECTED 
ARM GAS  C:\Users\ENESDU~1\AppData\Local\Temp\ccn4fiPa.s 			page 24


 618:.\Generated_Source\PSoC4/BLE_1.c ****                                         state is returned. 
 619:.\Generated_Source\PSoC4/BLE_1.c ****       * CYBLE_EVT_GAPC_SCAN_PROGRESS_RESULT 
 620:.\Generated_Source\PSoC4/BLE_1.c ****       * CYBLE_EVT_TIMEOUT (CYBLE_GAP_SCAN_TO)
 621:.\Generated_Source\PSoC4/BLE_1.c ****     
 622:.\Generated_Source\PSoC4/BLE_1.c ****      Parameters:
 623:.\Generated_Source\PSoC4/BLE_1.c ****       uint8 scanningIntervalType:  Fast or slow scanning interval with
 624:.\Generated_Source\PSoC4/BLE_1.c ****           timings entered in Scan settings section of the customiser.
 625:.\Generated_Source\PSoC4/BLE_1.c ****     	  * CYBLE_SCANNING_FAST   0x00u
 626:.\Generated_Source\PSoC4/BLE_1.c ****     	  * CYBLE_SCANNING_SLOW   0x01u
 627:.\Generated_Source\PSoC4/BLE_1.c ****     	  * CYBLE_SCANNING_CUSTOM 0x02u
 628:.\Generated_Source\PSoC4/BLE_1.c ****     
 629:.\Generated_Source\PSoC4/BLE_1.c ****     Return:
 630:.\Generated_Source\PSoC4/BLE_1.c ****      CYBLE_API_RESULT_T : Return value indicates if the function succeeded or
 631:.\Generated_Source\PSoC4/BLE_1.c ****      failed. Following are the possible error codes.
 632:.\Generated_Source\PSoC4/BLE_1.c ****      <table>
 633:.\Generated_Source\PSoC4/BLE_1.c ****       Errors codes                        Values  Description
 634:.\Generated_Source\PSoC4/BLE_1.c ****       ------------                        ------  -----------
 635:.\Generated_Source\PSoC4/BLE_1.c ****       CYBLE_ERROR_OK                      0x0000  On successful operation.
 636:.\Generated_Source\PSoC4/BLE_1.c ****       CYBLE_ERROR_STACK_INTERNAL          0x0003  An error occurred in the 
 637:.\Generated_Source\PSoC4/BLE_1.c ****                                                    BLE stack.
 638:.\Generated_Source\PSoC4/BLE_1.c ****      </table>
 639:.\Generated_Source\PSoC4/BLE_1.c ****      
 640:.\Generated_Source\PSoC4/BLE_1.c ****     ******************************************************************************/
 641:.\Generated_Source\PSoC4/BLE_1.c ****     CYBLE_API_RESULT_T CyBle_GapcStartScan(uint8 scanningIntervalType)
 642:.\Generated_Source\PSoC4/BLE_1.c ****     {
 643:.\Generated_Source\PSoC4/BLE_1.c ****         CYBLE_API_RESULT_T apiResult;
 644:.\Generated_Source\PSoC4/BLE_1.c **** 
 645:.\Generated_Source\PSoC4/BLE_1.c ****         if(scanningIntervalType == CYBLE_SCANNING_FAST)
 646:.\Generated_Source\PSoC4/BLE_1.c ****         {
 647:.\Generated_Source\PSoC4/BLE_1.c ****             cyBle_discoveryInfo.scanTo = CYBLE_FAST_SCAN_TIMEOUT;
 648:.\Generated_Source\PSoC4/BLE_1.c ****             cyBle_discoveryInfo.scanIntv = CYBLE_FAST_SCAN_INTERVAL;
 649:.\Generated_Source\PSoC4/BLE_1.c ****             cyBle_discoveryInfo.scanWindow = CYBLE_FAST_SCAN_WINDOW;
 650:.\Generated_Source\PSoC4/BLE_1.c ****         }
 651:.\Generated_Source\PSoC4/BLE_1.c ****         else if(scanningIntervalType == CYBLE_SCANNING_SLOW)
 652:.\Generated_Source\PSoC4/BLE_1.c ****         {
 653:.\Generated_Source\PSoC4/BLE_1.c ****             cyBle_discoveryInfo.scanTo = CYBLE_SLOW_SCAN_TIMEOUT;
 654:.\Generated_Source\PSoC4/BLE_1.c ****             cyBle_discoveryInfo.scanIntv = CYBLE_SLOW_SCAN_INTERVAL;
 655:.\Generated_Source\PSoC4/BLE_1.c ****             cyBle_discoveryInfo.scanWindow = CYBLE_SLOW_SCAN_WINDOW;
 656:.\Generated_Source\PSoC4/BLE_1.c ****         }       
 657:.\Generated_Source\PSoC4/BLE_1.c ****         else /* Do not update scanning intervals */
 658:.\Generated_Source\PSoC4/BLE_1.c ****         {
 659:.\Generated_Source\PSoC4/BLE_1.c ****         }
 660:.\Generated_Source\PSoC4/BLE_1.c ****         
 661:.\Generated_Source\PSoC4/BLE_1.c ****         cyBle_scanningIntervalType = scanningIntervalType;
 662:.\Generated_Source\PSoC4/BLE_1.c ****         apiResult = CyBle_GapcStartDiscovery(&cyBle_discoveryInfo);
 663:.\Generated_Source\PSoC4/BLE_1.c ****     
 664:.\Generated_Source\PSoC4/BLE_1.c ****         if(CYBLE_ERROR_OK == apiResult)
 665:.\Generated_Source\PSoC4/BLE_1.c ****         {
 666:.\Generated_Source\PSoC4/BLE_1.c ****             cyBle_eventHandlerFlag |= CYBLE_START_FLAG;
 667:.\Generated_Source\PSoC4/BLE_1.c ****         }
 668:.\Generated_Source\PSoC4/BLE_1.c ****        
 669:.\Generated_Source\PSoC4/BLE_1.c ****         return (apiResult);
 670:.\Generated_Source\PSoC4/BLE_1.c ****     }
 671:.\Generated_Source\PSoC4/BLE_1.c ****     
 672:.\Generated_Source\PSoC4/BLE_1.c ****     
 673:.\Generated_Source\PSoC4/BLE_1.c ****     /******************************************************************************
 674:.\Generated_Source\PSoC4/BLE_1.c ****     ##Function Name: CyBle_GapcStopScan
ARM GAS  C:\Users\ENESDU~1\AppData\Local\Temp\ccn4fiPa.s 			page 25


 675:.\Generated_Source\PSoC4/BLE_1.c ****     *******************************************************************************
 676:.\Generated_Source\PSoC4/BLE_1.c ****     
 677:.\Generated_Source\PSoC4/BLE_1.c ****      Summary:
 678:.\Generated_Source\PSoC4/BLE_1.c ****       This function used to stop the discovery of devices. On stopping discovery
 679:.\Generated_Source\PSoC4/BLE_1.c ****       operation, CYBLE_EVT_GAPC_SCAN_START_STOP event is generated. Application
 680:.\Generated_Source\PSoC4/BLE_1.c ****       layer needs to keep track of the function call made before receiving this
 681:.\Generated_Source\PSoC4/BLE_1.c ****       event to associate this event with either the start or stop discovery
 682:.\Generated_Source\PSoC4/BLE_1.c ****       function.
 683:.\Generated_Source\PSoC4/BLE_1.c ****     
 684:.\Generated_Source\PSoC4/BLE_1.c ****       Possible events generated are:
 685:.\Generated_Source\PSoC4/BLE_1.c ****        * CYBLE_EVT_GAPC_SCAN_START_STOP
 686:.\Generated_Source\PSoC4/BLE_1.c ****     
 687:.\Generated_Source\PSoC4/BLE_1.c ****      Parameters:
 688:.\Generated_Source\PSoC4/BLE_1.c ****       None
 689:.\Generated_Source\PSoC4/BLE_1.c ****     
 690:.\Generated_Source\PSoC4/BLE_1.c ****      Return:
 691:.\Generated_Source\PSoC4/BLE_1.c ****       None
 692:.\Generated_Source\PSoC4/BLE_1.c ****     
 693:.\Generated_Source\PSoC4/BLE_1.c ****     ******************************************************************************/
 694:.\Generated_Source\PSoC4/BLE_1.c ****     void CyBle_GapcStopScan(void)
 695:.\Generated_Source\PSoC4/BLE_1.c ****     {
 696:.\Generated_Source\PSoC4/BLE_1.c ****         CyBle_GapcStopDiscovery();
 697:.\Generated_Source\PSoC4/BLE_1.c ****         
 698:.\Generated_Source\PSoC4/BLE_1.c ****         cyBle_eventHandlerFlag |= CYBLE_STOP_FLAG;
 699:.\Generated_Source\PSoC4/BLE_1.c ****     }
 700:.\Generated_Source\PSoC4/BLE_1.c **** 
 701:.\Generated_Source\PSoC4/BLE_1.c ****     
 702:.\Generated_Source\PSoC4/BLE_1.c **** #endif /* CYBLE_GAP_ROLE_CENTRAL || CYBLE_GAP_ROLE_OBSERVER */
 703:.\Generated_Source\PSoC4/BLE_1.c **** 
 704:.\Generated_Source\PSoC4/BLE_1.c **** 
 705:.\Generated_Source\PSoC4/BLE_1.c **** #if(CYBLE_GAP_ROLE_CENTRAL)
 706:.\Generated_Source\PSoC4/BLE_1.c **** 
 707:.\Generated_Source\PSoC4/BLE_1.c ****     /******************************************************************************
 708:.\Generated_Source\PSoC4/BLE_1.c ****     ##Function Name: CyBle_GapcConnectDevice
 709:.\Generated_Source\PSoC4/BLE_1.c ****     *******************************************************************************
 710:.\Generated_Source\PSoC4/BLE_1.c ****     
 711:.\Generated_Source\PSoC4/BLE_1.c ****     Summary:
 712:.\Generated_Source\PSoC4/BLE_1.c ****      This function is used to send a connection request to the remote device with
 713:.\Generated_Source\PSoC4/BLE_1.c ****      the connection parameters set in the component customizer. This function needs
 714:.\Generated_Source\PSoC4/BLE_1.c ****      to be called only once after the target device is discovered by 
 715:.\Generated_Source\PSoC4/BLE_1.c ****      CyBle_GapcStartScan() and further scanning has stopped. Scanning is 
 716:.\Generated_Source\PSoC4/BLE_1.c ****      successfully stopped on invoking CyBle_GapcStopScan() and then receiving the
 717:.\Generated_Source\PSoC4/BLE_1.c ****      event CYBLE_EVT_GAPC_SCAN_START_STOP with sub-parameter 'success' = 0x01u.
 718:.\Generated_Source\PSoC4/BLE_1.c ****      
 719:.\Generated_Source\PSoC4/BLE_1.c ****      On successful connection, the following events are generated at the GAP 
 720:.\Generated_Source\PSoC4/BLE_1.c ****      Central device (as well as the GAP Peripheral device), in the following order.
 721:.\Generated_Source\PSoC4/BLE_1.c ****      * CYBLE_EVT_GATT_CONNECT_IND
 722:.\Generated_Source\PSoC4/BLE_1.c ****      * CYBLE_EVT_GAP_DEVICE_CONNECTED
 723:.\Generated_Source\PSoC4/BLE_1.c ****  
 724:.\Generated_Source\PSoC4/BLE_1.c ****      A procedure is considered to have timed out if a connection response packet is 
 725:.\Generated_Source\PSoC4/BLE_1.c ****      not received within time set by cyBle_connectingTimeout global variable
 726:.\Generated_Source\PSoC4/BLE_1.c ****      (30 seconds by default). CYBLE_EVT_TIMEOUT event with CYBLE_GENERIC_TO parameter
 727:.\Generated_Source\PSoC4/BLE_1.c ****      will indicate about connection procedure timeout. Connection will automatically
 728:.\Generated_Source\PSoC4/BLE_1.c ****      be cancelled and state will be changed to CYBLE_STATE_DISCONNECTED.
 729:.\Generated_Source\PSoC4/BLE_1.c ****     
 730:.\Generated_Source\PSoC4/BLE_1.c ****     Parameters:
 731:.\Generated_Source\PSoC4/BLE_1.c ****      const CYBLE_GAP_BD_ADDR_T address: The device address of the remote device to 
ARM GAS  C:\Users\ENESDU~1\AppData\Local\Temp\ccn4fiPa.s 			page 26


 732:.\Generated_Source\PSoC4/BLE_1.c ****                                         connect to. 
 733:.\Generated_Source\PSoC4/BLE_1.c ****      timeout: Timeout for which timer to be started in seconds.
 734:.\Generated_Source\PSoC4/BLE_1.c ****  
 735:.\Generated_Source\PSoC4/BLE_1.c ****     Return:
 736:.\Generated_Source\PSoC4/BLE_1.c ****      CYBLE_API_RESULT_T : Return value indicates if the function succeeded or 
 737:.\Generated_Source\PSoC4/BLE_1.c ****      failed. Following are the possible error codes.
 738:.\Generated_Source\PSoC4/BLE_1.c ****      <table>
 739:.\Generated_Source\PSoC4/BLE_1.c ****       Errors codes                        Description
 740:.\Generated_Source\PSoC4/BLE_1.c ****       ------------                        -----------
 741:.\Generated_Source\PSoC4/BLE_1.c ****       CYBLE_ERROR_OK                      On successful operation.
 742:.\Generated_Source\PSoC4/BLE_1.c ****       CYBLE_ERROR_STACK_INTERNAL          On error occurred in the 
 743:.\Generated_Source\PSoC4/BLE_1.c ****                                            BLE stack.
 744:.\Generated_Source\PSoC4/BLE_1.c ****       CYBLE_ERROR_INVALID_PARAMETER       On specifying NULL as input
 745:.\Generated_Source\PSoC4/BLE_1.c ****                                            parameter for 'scanInfo' or if
 746:.\Generated_Source\PSoC4/BLE_1.c ****                                            any element with in 'scanInfo'
 747:.\Generated_Source\PSoC4/BLE_1.c ****                                            has an invalid value.
 748:.\Generated_Source\PSoC4/BLE_1.c ****      </table>
 749:.\Generated_Source\PSoC4/BLE_1.c ****  
 750:.\Generated_Source\PSoC4/BLE_1.c ****     ******************************************************************************/
 751:.\Generated_Source\PSoC4/BLE_1.c ****     CYBLE_API_RESULT_T CyBle_GapcConnectDevice(const CYBLE_GAP_BD_ADDR_T * address)
 752:.\Generated_Source\PSoC4/BLE_1.c ****     {
 753:.\Generated_Source\PSoC4/BLE_1.c ****         CYBLE_API_RESULT_T apiResult;
 754:.\Generated_Source\PSoC4/BLE_1.c ****         uint8 i;
 755:.\Generated_Source\PSoC4/BLE_1.c **** 
 756:.\Generated_Source\PSoC4/BLE_1.c ****         if(CYBLE_STATE_DISCONNECTED != CyBle_GetState())
 757:.\Generated_Source\PSoC4/BLE_1.c ****         {
 758:.\Generated_Source\PSoC4/BLE_1.c ****             apiResult = CYBLE_ERROR_INVALID_STATE;
 759:.\Generated_Source\PSoC4/BLE_1.c ****         }
 760:.\Generated_Source\PSoC4/BLE_1.c ****         else if(address == NULL)
 761:.\Generated_Source\PSoC4/BLE_1.c ****         {
 762:.\Generated_Source\PSoC4/BLE_1.c ****             apiResult = CYBLE_ERROR_INVALID_PARAMETER;
 763:.\Generated_Source\PSoC4/BLE_1.c ****         }
 764:.\Generated_Source\PSoC4/BLE_1.c ****         else
 765:.\Generated_Source\PSoC4/BLE_1.c ****         {
 766:.\Generated_Source\PSoC4/BLE_1.c ****             for(i = 0u; i < CYBLE_GAP_BD_ADDR_SIZE; i++)
 767:.\Generated_Source\PSoC4/BLE_1.c ****             {
 768:.\Generated_Source\PSoC4/BLE_1.c ****                 cyBle_connectionParameters.peerBdAddr[i] = address->bdAddr[i];
 769:.\Generated_Source\PSoC4/BLE_1.c ****             }
 770:.\Generated_Source\PSoC4/BLE_1.c ****             cyBle_connectionParameters.peerAddrType = address -> type;
 771:.\Generated_Source\PSoC4/BLE_1.c ****             apiResult = CyBle_GapcInitConnection(&cyBle_connectionParameters);
 772:.\Generated_Source\PSoC4/BLE_1.c ****             
 773:.\Generated_Source\PSoC4/BLE_1.c ****             if(CYBLE_ERROR_OK == apiResult)
 774:.\Generated_Source\PSoC4/BLE_1.c ****             {
 775:.\Generated_Source\PSoC4/BLE_1.c ****                 CyBle_SetState(CYBLE_STATE_CONNECTING);
 776:.\Generated_Source\PSoC4/BLE_1.c ****                 if(cyBle_connectingTimeout != 0u)
 777:.\Generated_Source\PSoC4/BLE_1.c ****                 {
 778:.\Generated_Source\PSoC4/BLE_1.c ****                     (void)CyBle_StartTimer(cyBle_connectingTimeout);
 779:.\Generated_Source\PSoC4/BLE_1.c ****                 }
 780:.\Generated_Source\PSoC4/BLE_1.c ****             }
 781:.\Generated_Source\PSoC4/BLE_1.c ****         }
 782:.\Generated_Source\PSoC4/BLE_1.c ****         return (apiResult);
 783:.\Generated_Source\PSoC4/BLE_1.c ****     }
 784:.\Generated_Source\PSoC4/BLE_1.c ****     
 785:.\Generated_Source\PSoC4/BLE_1.c **** 
 786:.\Generated_Source\PSoC4/BLE_1.c ****     /******************************************************************************
 787:.\Generated_Source\PSoC4/BLE_1.c ****     ##Function Name: CyBle_GapcCancelDeviceConnection
 788:.\Generated_Source\PSoC4/BLE_1.c ****     *******************************************************************************
ARM GAS  C:\Users\ENESDU~1\AppData\Local\Temp\ccn4fiPa.s 			page 27


 789:.\Generated_Source\PSoC4/BLE_1.c ****     
 790:.\Generated_Source\PSoC4/BLE_1.c ****     Summary:
 791:.\Generated_Source\PSoC4/BLE_1.c ****      This function cancels a previously initiated connection with the remote 
 792:.\Generated_Source\PSoC4/BLE_1.c ****      device. It is a blocking function. No event is generated on calling this 
 793:.\Generated_Source\PSoC4/BLE_1.c ****      function. If the devices are already connected then this function should not
 794:.\Generated_Source\PSoC4/BLE_1.c ****      be used. If you intend to disconnect from an existing connection, the function
 795:.\Generated_Source\PSoC4/BLE_1.c ****      CyBle_GapDisconnect() should be used.
 796:.\Generated_Source\PSoC4/BLE_1.c **** 
 797:.\Generated_Source\PSoC4/BLE_1.c ****     Parameters:
 798:.\Generated_Source\PSoC4/BLE_1.c ****      None
 799:.\Generated_Source\PSoC4/BLE_1.c **** 
 800:.\Generated_Source\PSoC4/BLE_1.c ****     Return:
 801:.\Generated_Source\PSoC4/BLE_1.c ****      CYBLE_API_RESULT_T : Return value indicates if the function succeeded or 
 802:.\Generated_Source\PSoC4/BLE_1.c ****      failed. Following are the possible error codes.
 803:.\Generated_Source\PSoC4/BLE_1.c ****      <table>
 804:.\Generated_Source\PSoC4/BLE_1.c ****       Errors codes                        Description
 805:.\Generated_Source\PSoC4/BLE_1.c ****       ------------                        -----------
 806:.\Generated_Source\PSoC4/BLE_1.c ****       CYBLE_ERROR_OK                      On successful operation.
 807:.\Generated_Source\PSoC4/BLE_1.c ****       CYBLE_ERROR_STACK_INTERNAL          An error occurred in the 
 808:.\Generated_Source\PSoC4/BLE_1.c ****                                            BLE stack.
 809:.\Generated_Source\PSoC4/BLE_1.c ****       CYBLE_ERROR_INVALID_OPERATION       Device is already connected.
 810:.\Generated_Source\PSoC4/BLE_1.c ****      </table>
 811:.\Generated_Source\PSoC4/BLE_1.c ****  
 812:.\Generated_Source\PSoC4/BLE_1.c ****     ******************************************************************************/
 813:.\Generated_Source\PSoC4/BLE_1.c ****     CYBLE_API_RESULT_T CyBle_GapcCancelDeviceConnection(void)
 814:.\Generated_Source\PSoC4/BLE_1.c ****     {
 815:.\Generated_Source\PSoC4/BLE_1.c ****         CYBLE_API_RESULT_T apiResult;
 816:.\Generated_Source\PSoC4/BLE_1.c ****         
 817:.\Generated_Source\PSoC4/BLE_1.c ****         apiResult = CyBle_GapcCancelConnection();
 818:.\Generated_Source\PSoC4/BLE_1.c ****             
 819:.\Generated_Source\PSoC4/BLE_1.c ****         if(cyBle_connectingTimeout != 0u)
 820:.\Generated_Source\PSoC4/BLE_1.c ****         {
 821:.\Generated_Source\PSoC4/BLE_1.c ****             (void)CyBle_StopTimer();
 822:.\Generated_Source\PSoC4/BLE_1.c ****         }
 823:.\Generated_Source\PSoC4/BLE_1.c **** 
 824:.\Generated_Source\PSoC4/BLE_1.c ****         if(CYBLE_ERROR_OK == apiResult)
 825:.\Generated_Source\PSoC4/BLE_1.c ****         {
 826:.\Generated_Source\PSoC4/BLE_1.c ****             CyBle_SetState(CYBLE_STATE_DISCONNECTED);
 827:.\Generated_Source\PSoC4/BLE_1.c ****         }
 828:.\Generated_Source\PSoC4/BLE_1.c ****         return (apiResult);
 829:.\Generated_Source\PSoC4/BLE_1.c ****     }    
 830:.\Generated_Source\PSoC4/BLE_1.c **** 
 831:.\Generated_Source\PSoC4/BLE_1.c ****     
 832:.\Generated_Source\PSoC4/BLE_1.c **** #endif /* CYBLE_GAP_ROLE_CENTRAL */
 833:.\Generated_Source\PSoC4/BLE_1.c **** 
 834:.\Generated_Source\PSoC4/BLE_1.c **** 
 835:.\Generated_Source\PSoC4/BLE_1.c **** #if(CYBLE_GATT_ROLE_SERVER)
 836:.\Generated_Source\PSoC4/BLE_1.c **** 
 837:.\Generated_Source\PSoC4/BLE_1.c **** #if(CYBLE_GAP_ROLE_PERIPHERAL)
 838:.\Generated_Source\PSoC4/BLE_1.c **** 
 839:.\Generated_Source\PSoC4/BLE_1.c ****         /******************************************************************************
 840:.\Generated_Source\PSoC4/BLE_1.c ****         ##Function Name: CyBle_ChangeAdLocalName
 841:.\Generated_Source\PSoC4/BLE_1.c ****         *******************************************************************************
 842:.\Generated_Source\PSoC4/BLE_1.c ****         Summary:
 843:.\Generated_Source\PSoC4/BLE_1.c ****          This API is used to set the local device name in the advertisement or scan 
 844:.\Generated_Source\PSoC4/BLE_1.c ****          response data structure.
 845:.\Generated_Source\PSoC4/BLE_1.c **** 
ARM GAS  C:\Users\ENESDU~1\AppData\Local\Temp\ccn4fiPa.s 			page 28


 846:.\Generated_Source\PSoC4/BLE_1.c ****         Parameters:
 847:.\Generated_Source\PSoC4/BLE_1.c ****          char8 name: The local device name string to be set in advertisement data 
 848:.\Generated_Source\PSoC4/BLE_1.c ****                    structure.
 849:.\Generated_Source\PSoC4/BLE_1.c ****          uint8 dest: 0 - avrevtisement structure, not zero value selects scan response
 850:.\Generated_Source\PSoC4/BLE_1.c ****                      structure.
 851:.\Generated_Source\PSoC4/BLE_1.c **** 
 852:.\Generated_Source\PSoC4/BLE_1.c ****         Return:
 853:.\Generated_Source\PSoC4/BLE_1.c ****          None
 854:.\Generated_Source\PSoC4/BLE_1.c ****      
 855:.\Generated_Source\PSoC4/BLE_1.c ****         ******************************************************************************/
 856:.\Generated_Source\PSoC4/BLE_1.c ****         static void CyBle_ChangeAdLocalName(const char8 name[], uint8 dest)
 857:.\Generated_Source\PSoC4/BLE_1.c ****         {
 691              		.loc 1 857 0
 692              		.cfi_startproc
 693 0000 80B5     		push	{r7, lr}
 694              		.cfi_def_cfa_offset 8
 695              		.cfi_offset 7, -8
 696              		.cfi_offset 14, -4
 697 0002 86B0     		sub	sp, sp, #24
 698              		.cfi_def_cfa_offset 32
 699 0004 00AF     		add	r7, sp, #0
 700              		.cfi_def_cfa_register 7
 701 0006 7860     		str	r0, [r7, #4]
 702 0008 0A1C     		mov	r2, r1
 703 000a FB1C     		add	r3, r7, #3
 704 000c 1A70     		strb	r2, [r3]
 858:.\Generated_Source\PSoC4/BLE_1.c ****             uint8 i;
 859:.\Generated_Source\PSoC4/BLE_1.c ****             uint8 flag = 0u;
 705              		.loc 1 859 0
 706 000e 3B1C     		mov	r3, r7
 707 0010 1633     		add	r3, r3, #22
 708 0012 0022     		mov	r2, #0
 709 0014 1A70     		strb	r2, [r3]
 860:.\Generated_Source\PSoC4/BLE_1.c ****             uint8 adLength = 0u;
 710              		.loc 1 860 0
 711 0016 3B1C     		mov	r3, r7
 712 0018 1533     		add	r3, r3, #21
 713 001a 0022     		mov	r2, #0
 714 001c 1A70     		strb	r2, [r3]
 861:.\Generated_Source\PSoC4/BLE_1.c ****             uint8 byteCounter = 0u;
 715              		.loc 1 861 0
 716 001e 3B1C     		mov	r3, r7
 717 0020 1433     		add	r3, r3, #20
 718 0022 0022     		mov	r2, #0
 719 0024 1A70     		strb	r2, [r3]
 862:.\Generated_Source\PSoC4/BLE_1.c ****             uint8 *destBuffer;
 863:.\Generated_Source\PSoC4/BLE_1.c ****             uint8 maxLength;
 864:.\Generated_Source\PSoC4/BLE_1.c ****             
 865:.\Generated_Source\PSoC4/BLE_1.c ****             if(dest == 0u)      /* Destination - advertising structure */
 720              		.loc 1 865 0
 721 0026 FB1C     		add	r3, r7, #3
 722 0028 1B78     		ldrb	r3, [r3]
 723 002a 002B     		cmp	r3, #0
 724 002c 07D1     		bne	.L34
 866:.\Generated_Source\PSoC4/BLE_1.c ****             {
 867:.\Generated_Source\PSoC4/BLE_1.c ****                 destBuffer = cyBle_discoveryData.advData;
 725              		.loc 1 867 0
ARM GAS  C:\Users\ENESDU~1\AppData\Local\Temp\ccn4fiPa.s 			page 29


 726 002e 5A4B     		ldr	r3, .L49
 727 0030 3B61     		str	r3, [r7, #16]
 868:.\Generated_Source\PSoC4/BLE_1.c ****                 maxLength = cyBle_discoveryData.advDataLen;
 728              		.loc 1 868 0
 729 0032 3B1C     		mov	r3, r7
 730 0034 0F33     		add	r3, r3, #15
 731 0036 584A     		ldr	r2, .L49
 732 0038 D27F     		ldrb	r2, [r2, #31]
 733 003a 1A70     		strb	r2, [r3]
 869:.\Generated_Source\PSoC4/BLE_1.c ****             }
 870:.\Generated_Source\PSoC4/BLE_1.c ****             else                /* Destination - scan response structure */
 871:.\Generated_Source\PSoC4/BLE_1.c ****             {
 872:.\Generated_Source\PSoC4/BLE_1.c ****                 destBuffer = cyBle_scanRspData.scanRspData;
 873:.\Generated_Source\PSoC4/BLE_1.c ****                 maxLength = cyBle_scanRspData.scanRspDataLen;
 874:.\Generated_Source\PSoC4/BLE_1.c ****             }
 875:.\Generated_Source\PSoC4/BLE_1.c ****             
 876:.\Generated_Source\PSoC4/BLE_1.c ****             while((byteCounter < maxLength) && (0u == flag))
 734              		.loc 1 876 0
 735 003c 3DE0     		b	.L36
 736              	.L34:
 872:.\Generated_Source\PSoC4/BLE_1.c ****                 destBuffer = cyBle_scanRspData.scanRspData;
 737              		.loc 1 872 0
 738 003e 574B     		ldr	r3, .L49+4
 739 0040 3B61     		str	r3, [r7, #16]
 873:.\Generated_Source\PSoC4/BLE_1.c ****                 maxLength = cyBle_scanRspData.scanRspDataLen;
 740              		.loc 1 873 0
 741 0042 3B1C     		mov	r3, r7
 742 0044 0F33     		add	r3, r3, #15
 743 0046 554A     		ldr	r2, .L49+4
 744 0048 D27F     		ldrb	r2, [r2, #31]
 745 004a 1A70     		strb	r2, [r3]
 746              		.loc 1 876 0
 747 004c 35E0     		b	.L36
 748              	.L42:
 877:.\Generated_Source\PSoC4/BLE_1.c ****             {
 878:.\Generated_Source\PSoC4/BLE_1.c ****                 adLength = destBuffer[byteCounter];
 749              		.loc 1 878 0
 750 004e 3B1C     		mov	r3, r7
 751 0050 1433     		add	r3, r3, #20
 752 0052 1B78     		ldrb	r3, [r3]
 753 0054 3A69     		ldr	r2, [r7, #16]
 754 0056 D218     		add	r2, r2, r3
 755 0058 3B1C     		mov	r3, r7
 756 005a 1533     		add	r3, r3, #21
 757 005c 1278     		ldrb	r2, [r2]
 758 005e 1A70     		strb	r2, [r3]
 879:.\Generated_Source\PSoC4/BLE_1.c ****                 
 880:.\Generated_Source\PSoC4/BLE_1.c ****                 if(0u != adLength)
 759              		.loc 1 880 0
 760 0060 3B1C     		mov	r3, r7
 761 0062 1533     		add	r3, r3, #21
 762 0064 1B78     		ldrb	r3, [r3]
 763 0066 002B     		cmp	r3, #0
 764 0068 26D0     		beq	.L37
 881:.\Generated_Source\PSoC4/BLE_1.c ****                 {
 882:.\Generated_Source\PSoC4/BLE_1.c ****                     /* Increment byte counter so it can point to AD type */
 883:.\Generated_Source\PSoC4/BLE_1.c ****                     byteCounter++;
ARM GAS  C:\Users\ENESDU~1\AppData\Local\Temp\ccn4fiPa.s 			page 30


 765              		.loc 1 883 0
 766 006a 3B1C     		mov	r3, r7
 767 006c 1433     		add	r3, r3, #20
 768 006e 1A78     		ldrb	r2, [r3]
 769 0070 3B1C     		mov	r3, r7
 770 0072 1433     		add	r3, r3, #20
 771 0074 0132     		add	r2, r2, #1
 772 0076 1A70     		strb	r2, [r3]
 884:.\Generated_Source\PSoC4/BLE_1.c ****                     
 885:.\Generated_Source\PSoC4/BLE_1.c ****                     if((CYBLE_SHORT_LOCAL_NAME == destBuffer[byteCounter]) || 
 773              		.loc 1 885 0
 774 0078 3B1C     		mov	r3, r7
 775 007a 1433     		add	r3, r3, #20
 776 007c 1B78     		ldrb	r3, [r3]
 777 007e 3A69     		ldr	r2, [r7, #16]
 778 0080 D318     		add	r3, r2, r3
 779 0082 1B78     		ldrb	r3, [r3]
 780 0084 082B     		cmp	r3, #8
 781 0086 07D0     		beq	.L38
 886:.\Generated_Source\PSoC4/BLE_1.c ****                         (CYBLE_COMPLETE_LOCAL_NAME == destBuffer[byteCounter]))
 782              		.loc 1 886 0 discriminator 1
 783 0088 3B1C     		mov	r3, r7
 784 008a 1433     		add	r3, r3, #20
 785 008c 1B78     		ldrb	r3, [r3]
 786 008e 3A69     		ldr	r2, [r7, #16]
 787 0090 D318     		add	r3, r2, r3
 788 0092 1B78     		ldrb	r3, [r3]
 885:.\Generated_Source\PSoC4/BLE_1.c ****                     if((CYBLE_SHORT_LOCAL_NAME == destBuffer[byteCounter]) || 
 789              		.loc 1 885 0 discriminator 1
 790 0094 092B     		cmp	r3, #9
 791 0096 04D1     		bne	.L39
 792              	.L38:
 887:.\Generated_Source\PSoC4/BLE_1.c ****                     {
 888:.\Generated_Source\PSoC4/BLE_1.c ****                         /* Start of the Local Name AD type was fount. Set flag and exit the loop. *
 889:.\Generated_Source\PSoC4/BLE_1.c ****                         flag = 1u;
 793              		.loc 1 889 0
 794 0098 3B1C     		mov	r3, r7
 795 009a 1633     		add	r3, r3, #22
 796 009c 0122     		mov	r2, #1
 797 009e 1A70     		strb	r2, [r3]
 798 00a0 0BE0     		b	.L36
 799              	.L39:
 890:.\Generated_Source\PSoC4/BLE_1.c ****                     }
 891:.\Generated_Source\PSoC4/BLE_1.c ****                     else
 892:.\Generated_Source\PSoC4/BLE_1.c ****                     {
 893:.\Generated_Source\PSoC4/BLE_1.c ****                         byteCounter += adLength;
 800              		.loc 1 893 0
 801 00a2 3B1C     		mov	r3, r7
 802 00a4 1433     		add	r3, r3, #20
 803 00a6 391C     		mov	r1, r7
 804 00a8 1431     		add	r1, r1, #20
 805 00aa 3A1C     		mov	r2, r7
 806 00ac 1532     		add	r2, r2, #21
 807 00ae 0978     		ldrb	r1, [r1]
 808 00b0 1278     		ldrb	r2, [r2]
 809 00b2 8A18     		add	r2, r1, r2
 810 00b4 1A70     		strb	r2, [r3]
ARM GAS  C:\Users\ENESDU~1\AppData\Local\Temp\ccn4fiPa.s 			page 31


 811 00b6 00E0     		b	.L36
 812              	.L37:
 894:.\Generated_Source\PSoC4/BLE_1.c ****                     }
 895:.\Generated_Source\PSoC4/BLE_1.c ****                 }
 896:.\Generated_Source\PSoC4/BLE_1.c ****                 else
 897:.\Generated_Source\PSoC4/BLE_1.c ****                 {
 898:.\Generated_Source\PSoC4/BLE_1.c ****                     /* The end of advertisement data structure was encountered though exit the 
 899:.\Generated_Source\PSoC4/BLE_1.c ****                       loop. */
 900:.\Generated_Source\PSoC4/BLE_1.c ****                     break;
 813              		.loc 1 900 0
 814 00b8 0CE0     		b	.L41
 815              	.L36:
 876:.\Generated_Source\PSoC4/BLE_1.c ****             while((byteCounter < maxLength) && (0u == flag))
 816              		.loc 1 876 0 discriminator 1
 817 00ba 3A1C     		mov	r2, r7
 818 00bc 1432     		add	r2, r2, #20
 819 00be 3B1C     		mov	r3, r7
 820 00c0 0F33     		add	r3, r3, #15
 821 00c2 1278     		ldrb	r2, [r2]
 822 00c4 1B78     		ldrb	r3, [r3]
 823 00c6 9A42     		cmp	r2, r3
 824 00c8 04D2     		bcs	.L41
 876:.\Generated_Source\PSoC4/BLE_1.c ****             while((byteCounter < maxLength) && (0u == flag))
 825              		.loc 1 876 0 is_stmt 0 discriminator 2
 826 00ca 3B1C     		mov	r3, r7
 827 00cc 1633     		add	r3, r3, #22
 828 00ce 1B78     		ldrb	r3, [r3]
 829 00d0 002B     		cmp	r3, #0
 830 00d2 BCD0     		beq	.L42
 831              	.L41:
 901:.\Generated_Source\PSoC4/BLE_1.c ****                 }
 902:.\Generated_Source\PSoC4/BLE_1.c ****             }
 903:.\Generated_Source\PSoC4/BLE_1.c ****             
 904:.\Generated_Source\PSoC4/BLE_1.c ****             if(0u != flag)
 832              		.loc 1 904 0 is_stmt 1
 833 00d4 3B1C     		mov	r3, r7
 834 00d6 1633     		add	r3, r3, #22
 835 00d8 1B78     		ldrb	r3, [r3]
 836 00da 002B     		cmp	r3, #0
 837 00dc 59D0     		beq	.L33
 905:.\Generated_Source\PSoC4/BLE_1.c ****             {
 906:.\Generated_Source\PSoC4/BLE_1.c ****                 /* Reuse "adLength" to hold location of the last character of local name in 
 907:.\Generated_Source\PSoC4/BLE_1.c ****                    AD structure. */
 908:.\Generated_Source\PSoC4/BLE_1.c ****                 adLength += byteCounter;
 838              		.loc 1 908 0
 839 00de 3B1C     		mov	r3, r7
 840 00e0 1533     		add	r3, r3, #21
 841 00e2 391C     		mov	r1, r7
 842 00e4 1531     		add	r1, r1, #21
 843 00e6 3A1C     		mov	r2, r7
 844 00e8 1432     		add	r2, r2, #20
 845 00ea 0978     		ldrb	r1, [r1]
 846 00ec 1278     		ldrb	r2, [r2]
 847 00ee 8A18     		add	r2, r1, r2
 848 00f0 1A70     		strb	r2, [r3]
 909:.\Generated_Source\PSoC4/BLE_1.c ****                 
 910:.\Generated_Source\PSoC4/BLE_1.c ****                 /* Increment byte counter to point to start of the local Name string */
ARM GAS  C:\Users\ENESDU~1\AppData\Local\Temp\ccn4fiPa.s 			page 32


 911:.\Generated_Source\PSoC4/BLE_1.c ****                 byteCounter++;
 849              		.loc 1 911 0
 850 00f2 3B1C     		mov	r3, r7
 851 00f4 1433     		add	r3, r3, #20
 852 00f6 1A78     		ldrb	r2, [r3]
 853 00f8 3B1C     		mov	r3, r7
 854 00fa 1433     		add	r3, r3, #20
 855 00fc 0132     		add	r2, r2, #1
 856 00fe 1A70     		strb	r2, [r3]
 912:.\Generated_Source\PSoC4/BLE_1.c ****                 
 913:.\Generated_Source\PSoC4/BLE_1.c ****                 for(i = byteCounter; ((i < (adLength)) && (CYBLE_NULL_CHARCTER != name[i - byteCoun
 857              		.loc 1 913 0
 858 0100 3B1C     		mov	r3, r7
 859 0102 1733     		add	r3, r3, #23
 860 0104 3A1C     		mov	r2, r7
 861 0106 1432     		add	r2, r2, #20
 862 0108 1278     		ldrb	r2, [r2]
 863 010a 1A70     		strb	r2, [r3]
 864 010c 16E0     		b	.L44
 865              	.L46:
 914:.\Generated_Source\PSoC4/BLE_1.c ****                 {
 915:.\Generated_Source\PSoC4/BLE_1.c ****                     destBuffer[i] = (uint8)name[i - byteCounter];
 866              		.loc 1 915 0 discriminator 1
 867 010e 3B1C     		mov	r3, r7
 868 0110 1733     		add	r3, r3, #23
 869 0112 1B78     		ldrb	r3, [r3]
 870 0114 3A69     		ldr	r2, [r7, #16]
 871 0116 D318     		add	r3, r2, r3
 872 0118 3A1C     		mov	r2, r7
 873 011a 1732     		add	r2, r2, #23
 874 011c 1178     		ldrb	r1, [r2]
 875 011e 3A1C     		mov	r2, r7
 876 0120 1432     		add	r2, r2, #20
 877 0122 1278     		ldrb	r2, [r2]
 878 0124 8A1A     		sub	r2, r1, r2
 879 0126 7968     		ldr	r1, [r7, #4]
 880 0128 8A18     		add	r2, r1, r2
 881 012a 1278     		ldrb	r2, [r2]
 882 012c 1A70     		strb	r2, [r3]
 913:.\Generated_Source\PSoC4/BLE_1.c ****                 for(i = byteCounter; ((i < (adLength)) && (CYBLE_NULL_CHARCTER != name[i - byteCoun
 883              		.loc 1 913 0 discriminator 1
 884 012e 3B1C     		mov	r3, r7
 885 0130 1733     		add	r3, r3, #23
 886 0132 1A78     		ldrb	r2, [r3]
 887 0134 3B1C     		mov	r3, r7
 888 0136 1733     		add	r3, r3, #23
 889 0138 0132     		add	r2, r2, #1
 890 013a 1A70     		strb	r2, [r3]
 891              	.L44:
 892 013c 3A1C     		mov	r2, r7
 893 013e 1732     		add	r2, r2, #23
 894 0140 3B1C     		mov	r3, r7
 895 0142 1533     		add	r3, r3, #21
 896 0144 1278     		ldrb	r2, [r2]
 897 0146 1B78     		ldrb	r3, [r3]
 898 0148 9A42     		cmp	r2, r3
 899 014a 0BD2     		bcs	.L45
ARM GAS  C:\Users\ENESDU~1\AppData\Local\Temp\ccn4fiPa.s 			page 33


 913:.\Generated_Source\PSoC4/BLE_1.c ****                 for(i = byteCounter; ((i < (adLength)) && (CYBLE_NULL_CHARCTER != name[i - byteCoun
 900              		.loc 1 913 0 is_stmt 0 discriminator 2
 901 014c 3B1C     		mov	r3, r7
 902 014e 1733     		add	r3, r3, #23
 903 0150 1A78     		ldrb	r2, [r3]
 904 0152 3B1C     		mov	r3, r7
 905 0154 1433     		add	r3, r3, #20
 906 0156 1B78     		ldrb	r3, [r3]
 907 0158 D31A     		sub	r3, r2, r3
 908 015a 7A68     		ldr	r2, [r7, #4]
 909 015c D318     		add	r3, r2, r3
 910 015e 1B78     		ldrb	r3, [r3]
 911 0160 002B     		cmp	r3, #0
 912 0162 D4D1     		bne	.L46
 913              	.L45:
 916:.\Generated_Source\PSoC4/BLE_1.c ****                 }
 917:.\Generated_Source\PSoC4/BLE_1.c ****                 
 918:.\Generated_Source\PSoC4/BLE_1.c ****                 /* This loop handles the case when new local name is shorted than old one.
 919:.\Generated_Source\PSoC4/BLE_1.c ****                    In this case all remaining characters should be null characters. */
 920:.\Generated_Source\PSoC4/BLE_1.c ****                 while(adLength > i)
 914              		.loc 1 920 0 is_stmt 1
 915 0164 0DE0     		b	.L47
 916              	.L48:
 921:.\Generated_Source\PSoC4/BLE_1.c ****                 {
 922:.\Generated_Source\PSoC4/BLE_1.c ****                     /* Terminate string */
 923:.\Generated_Source\PSoC4/BLE_1.c ****                     destBuffer[i] = (uint8)CYBLE_NULL_CHARCTER;
 917              		.loc 1 923 0
 918 0166 3B1C     		mov	r3, r7
 919 0168 1733     		add	r3, r3, #23
 920 016a 1B78     		ldrb	r3, [r3]
 921 016c 3A69     		ldr	r2, [r7, #16]
 922 016e D318     		add	r3, r2, r3
 923 0170 0022     		mov	r2, #0
 924 0172 1A70     		strb	r2, [r3]
 924:.\Generated_Source\PSoC4/BLE_1.c ****                     i++;
 925              		.loc 1 924 0
 926 0174 3B1C     		mov	r3, r7
 927 0176 1733     		add	r3, r3, #23
 928 0178 1A78     		ldrb	r2, [r3]
 929 017a 3B1C     		mov	r3, r7
 930 017c 1733     		add	r3, r3, #23
 931 017e 0132     		add	r2, r2, #1
 932 0180 1A70     		strb	r2, [r3]
 933              	.L47:
 920:.\Generated_Source\PSoC4/BLE_1.c ****                 while(adLength > i)
 934              		.loc 1 920 0 discriminator 1
 935 0182 3A1C     		mov	r2, r7
 936 0184 1532     		add	r2, r2, #21
 937 0186 3B1C     		mov	r3, r7
 938 0188 1733     		add	r3, r3, #23
 939 018a 1278     		ldrb	r2, [r2]
 940 018c 1B78     		ldrb	r3, [r3]
 941 018e 9A42     		cmp	r2, r3
 942 0190 E9D8     		bhi	.L48
 943              	.L33:
 925:.\Generated_Source\PSoC4/BLE_1.c ****                 }
 926:.\Generated_Source\PSoC4/BLE_1.c ****             }
ARM GAS  C:\Users\ENESDU~1\AppData\Local\Temp\ccn4fiPa.s 			page 34


 927:.\Generated_Source\PSoC4/BLE_1.c ****         }
 944              		.loc 1 927 0
 945 0192 BD46     		mov	sp, r7
 946 0194 06B0     		add	sp, sp, #24
 947              		@ sp needed
 948 0196 80BD     		pop	{r7, pc}
 949              	.L50:
 950              		.align	2
 951              	.L49:
 952 0198 00000000 		.word	cyBle_discoveryData
 953 019c 00000000 		.word	cyBle_scanRspData
 954              		.cfi_endproc
 955              	.LFE9:
 956              		.size	CyBle_ChangeAdLocalName, .-CyBle_ChangeAdLocalName
 957              		.section	.text.CyBle_GapSetLocalName,"ax",%progbits
 958              		.align	2
 959              		.global	CyBle_GapSetLocalName
 960              		.code	16
 961              		.thumb_func
 962              		.type	CyBle_GapSetLocalName, %function
 963              	CyBle_GapSetLocalName:
 964              	.LFB10:
 928:.\Generated_Source\PSoC4/BLE_1.c **** #endif /* (CYBLE_GAP_ROLE_PERIPHERAL) */  
 929:.\Generated_Source\PSoC4/BLE_1.c ****     
 930:.\Generated_Source\PSoC4/BLE_1.c ****     
 931:.\Generated_Source\PSoC4/BLE_1.c ****     /******************************************************************************
 932:.\Generated_Source\PSoC4/BLE_1.c ****     ##Function Name: CyBle_GapSetLocalName
 933:.\Generated_Source\PSoC4/BLE_1.c ****     *******************************************************************************
 934:.\Generated_Source\PSoC4/BLE_1.c ****     Summary:
 935:.\Generated_Source\PSoC4/BLE_1.c ****      This API is used to set the local device name - a Characteristic of the 
 936:.\Generated_Source\PSoC4/BLE_1.c ****      GAP Service. If the characteristic length entered in the component customizer
 937:.\Generated_Source\PSoC4/BLE_1.c ****      is shorter than the string specified by the "name" parameter, the local device
 938:.\Generated_Source\PSoC4/BLE_1.c ****      name will be cut to the length specified in the customizer.
 939:.\Generated_Source\PSoC4/BLE_1.c **** 
 940:.\Generated_Source\PSoC4/BLE_1.c ****     Parameters:
 941:.\Generated_Source\PSoC4/BLE_1.c ****      char8 name: The local device name string. The name string to be written as
 942:.\Generated_Source\PSoC4/BLE_1.c ****                  the local device name. It represents a UTF-8 encoded User
 943:.\Generated_Source\PSoC4/BLE_1.c ****                  Friendly Descriptive Name for the device. The length of the local
 944:.\Generated_Source\PSoC4/BLE_1.c ****                  device string is entered into the component customizer and it can
 945:.\Generated_Source\PSoC4/BLE_1.c ****                  be set to a value from 0 to 248 bytes. If the name contained in
 946:.\Generated_Source\PSoC4/BLE_1.c ****                  the parameter is shorter than the length from the customizer, the
 947:.\Generated_Source\PSoC4/BLE_1.c ****                  end of the name is indicated by a NULL octet (0x00).
 948:.\Generated_Source\PSoC4/BLE_1.c **** 
 949:.\Generated_Source\PSoC4/BLE_1.c ****     Return:
 950:.\Generated_Source\PSoC4/BLE_1.c ****      CYBLE_API_RESULT_T : Return value indicates if the function succeeded or 
 951:.\Generated_Source\PSoC4/BLE_1.c ****      failed. Following are the possible error codes.
 952:.\Generated_Source\PSoC4/BLE_1.c ****      <table>
 953:.\Generated_Source\PSoC4/BLE_1.c ****       Errors codes                        Description
 954:.\Generated_Source\PSoC4/BLE_1.c ****       ------------                        -----------
 955:.\Generated_Source\PSoC4/BLE_1.c ****       CYBLE_ERROR_OK                      Function completed successfully.
 956:.\Generated_Source\PSoC4/BLE_1.c ****       CYBLE_ERROR_INVALID_PARAMETER       On specifying NULL as input parameter
 957:.\Generated_Source\PSoC4/BLE_1.c ****      </table>
 958:.\Generated_Source\PSoC4/BLE_1.c ****  
 959:.\Generated_Source\PSoC4/BLE_1.c ****     ******************************************************************************/
 960:.\Generated_Source\PSoC4/BLE_1.c ****     CYBLE_API_RESULT_T CyBle_GapSetLocalName(const char8 name[])
 961:.\Generated_Source\PSoC4/BLE_1.c ****     {
 965              		.loc 1 961 0
ARM GAS  C:\Users\ENESDU~1\AppData\Local\Temp\ccn4fiPa.s 			page 35


 966              		.cfi_startproc
 967 0000 80B5     		push	{r7, lr}
 968              		.cfi_def_cfa_offset 8
 969              		.cfi_offset 7, -8
 970              		.cfi_offset 14, -4
 971 0002 86B0     		sub	sp, sp, #24
 972              		.cfi_def_cfa_offset 32
 973 0004 00AF     		add	r7, sp, #0
 974              		.cfi_def_cfa_register 7
 975 0006 7860     		str	r0, [r7, #4]
 962:.\Generated_Source\PSoC4/BLE_1.c ****         CYBLE_API_RESULT_T apiResult = CYBLE_ERROR_OK;
 976              		.loc 1 962 0
 977 0008 3B1C     		mov	r3, r7
 978 000a 1633     		add	r3, r3, #22
 979 000c 0022     		mov	r2, #0
 980 000e 1A80     		strh	r2, [r3]
 963:.\Generated_Source\PSoC4/BLE_1.c ****         uint8 i;
 964:.\Generated_Source\PSoC4/BLE_1.c ****         char8 *ptr;
 965:.\Generated_Source\PSoC4/BLE_1.c ****         uint8 charLen;
 966:.\Generated_Source\PSoC4/BLE_1.c **** 
 967:.\Generated_Source\PSoC4/BLE_1.c ****         if(NULL != name)
 981              		.loc 1 967 0
 982 0010 7B68     		ldr	r3, [r7, #4]
 983 0012 002B     		cmp	r3, #0
 984 0014 42D0     		beq	.L52
 968:.\Generated_Source\PSoC4/BLE_1.c ****         {
 969:.\Generated_Source\PSoC4/BLE_1.c ****             /* Get the pointer to the Device Name characteristic  */
 970:.\Generated_Source\PSoC4/BLE_1.c ****             ptr = (char8 *)
 985              		.loc 1 970 0
 986 0016 274B     		ldr	r3, .L58
 987 0018 9B6B     		ldr	r3, [r3, #56]
 988 001a 3B61     		str	r3, [r7, #16]
 971:.\Generated_Source\PSoC4/BLE_1.c ****                 cyBle_gattDB[CYBLE_GAP_DEVICE_NAME_INDEX].attValue.attFormatValue.attGenericVal;
 972:.\Generated_Source\PSoC4/BLE_1.c **** 
 973:.\Generated_Source\PSoC4/BLE_1.c ****             /* First need to get the length of the characteristic data in the GATT
 974:.\Generated_Source\PSoC4/BLE_1.c ****                 database to make sure there is enough place for the data. The length
 975:.\Generated_Source\PSoC4/BLE_1.c ****                 can't be longer than 248, so only the LSB of 16 bit of length is to
 976:.\Generated_Source\PSoC4/BLE_1.c ****                 be used. */
 977:.\Generated_Source\PSoC4/BLE_1.c ****             charLen = (uint8) cyBle_gattDB[CYBLE_GAP_DEVICE_NAME_INDEX].attValue.attFormatValue.len
 989              		.loc 1 977 0
 990 001c 254B     		ldr	r3, .L58
 991 001e 9A8E     		ldrh	r2, [r3, #52]
 992 0020 3B1C     		mov	r3, r7
 993 0022 0F33     		add	r3, r3, #15
 994 0024 1A70     		strb	r2, [r3]
 978:.\Generated_Source\PSoC4/BLE_1.c **** 
 979:.\Generated_Source\PSoC4/BLE_1.c ****             /* Copy name into characteristic */
 980:.\Generated_Source\PSoC4/BLE_1.c ****             for(i = 0u; ((i < (charLen - 1u)) && (CYBLE_NULL_CHARCTER != name[i])); i++)
 995              		.loc 1 980 0
 996 0026 3B1C     		mov	r3, r7
 997 0028 1533     		add	r3, r3, #21
 998 002a 0022     		mov	r2, #0
 999 002c 1A70     		strb	r2, [r3]
 1000 002e 12E0     		b	.L53
 1001              	.L55:
 981:.\Generated_Source\PSoC4/BLE_1.c ****             {
 982:.\Generated_Source\PSoC4/BLE_1.c ****                 ptr[i] = name[i];
ARM GAS  C:\Users\ENESDU~1\AppData\Local\Temp\ccn4fiPa.s 			page 36


 1002              		.loc 1 982 0 discriminator 1
 1003 0030 3B1C     		mov	r3, r7
 1004 0032 1533     		add	r3, r3, #21
 1005 0034 1B78     		ldrb	r3, [r3]
 1006 0036 3A69     		ldr	r2, [r7, #16]
 1007 0038 D318     		add	r3, r2, r3
 1008 003a 3A1C     		mov	r2, r7
 1009 003c 1532     		add	r2, r2, #21
 1010 003e 1278     		ldrb	r2, [r2]
 1011 0040 7968     		ldr	r1, [r7, #4]
 1012 0042 8A18     		add	r2, r1, r2
 1013 0044 1278     		ldrb	r2, [r2]
 1014 0046 1A70     		strb	r2, [r3]
 980:.\Generated_Source\PSoC4/BLE_1.c ****             for(i = 0u; ((i < (charLen - 1u)) && (CYBLE_NULL_CHARCTER != name[i])); i++)
 1015              		.loc 1 980 0 discriminator 1
 1016 0048 3B1C     		mov	r3, r7
 1017 004a 1533     		add	r3, r3, #21
 1018 004c 1A78     		ldrb	r2, [r3]
 1019 004e 3B1C     		mov	r3, r7
 1020 0050 1533     		add	r3, r3, #21
 1021 0052 0132     		add	r2, r2, #1
 1022 0054 1A70     		strb	r2, [r3]
 1023              	.L53:
 1024 0056 3B1C     		mov	r3, r7
 1025 0058 1533     		add	r3, r3, #21
 1026 005a 1A78     		ldrb	r2, [r3]
 1027 005c 3B1C     		mov	r3, r7
 1028 005e 0F33     		add	r3, r3, #15
 1029 0060 1B78     		ldrb	r3, [r3]
 1030 0062 013B     		sub	r3, r3, #1
 1031 0064 9A42     		cmp	r2, r3
 1032 0066 07D2     		bcs	.L54
 980:.\Generated_Source\PSoC4/BLE_1.c ****             for(i = 0u; ((i < (charLen - 1u)) && (CYBLE_NULL_CHARCTER != name[i])); i++)
 1033              		.loc 1 980 0 is_stmt 0 discriminator 2
 1034 0068 3B1C     		mov	r3, r7
 1035 006a 1533     		add	r3, r3, #21
 1036 006c 1B78     		ldrb	r3, [r3]
 1037 006e 7A68     		ldr	r2, [r7, #4]
 1038 0070 D318     		add	r3, r2, r3
 1039 0072 1B78     		ldrb	r3, [r3]
 1040 0074 002B     		cmp	r3, #0
 1041 0076 DBD1     		bne	.L55
 1042              	.L54:
 983:.\Generated_Source\PSoC4/BLE_1.c ****             }
 984:.\Generated_Source\PSoC4/BLE_1.c **** 
 985:.\Generated_Source\PSoC4/BLE_1.c ****             /* Terminate string */
 986:.\Generated_Source\PSoC4/BLE_1.c ****             ptr[i] = CYBLE_NULL_CHARCTER;
 1043              		.loc 1 986 0 is_stmt 1
 1044 0078 3B1C     		mov	r3, r7
 1045 007a 1533     		add	r3, r3, #21
 1046 007c 1B78     		ldrb	r3, [r3]
 1047 007e 3A69     		ldr	r2, [r7, #16]
 1048 0080 D318     		add	r3, r2, r3
 1049 0082 0022     		mov	r2, #0
 1050 0084 1A70     		strb	r2, [r3]
 987:.\Generated_Source\PSoC4/BLE_1.c ****             
 988:.\Generated_Source\PSoC4/BLE_1.c ****             /* Update device name in advertising and scan response structure */
ARM GAS  C:\Users\ENESDU~1\AppData\Local\Temp\ccn4fiPa.s 			page 37


 989:.\Generated_Source\PSoC4/BLE_1.c ****             #if(CYBLE_GAP_ROLE_PERIPHERAL)
 990:.\Generated_Source\PSoC4/BLE_1.c ****                 CyBle_ChangeAdLocalName(name, 0u);
 1051              		.loc 1 990 0
 1052 0086 7B68     		ldr	r3, [r7, #4]
 1053 0088 181C     		mov	r0, r3
 1054 008a 0021     		mov	r1, #0
 1055 008c FFF7FEFF 		bl	CyBle_ChangeAdLocalName
 991:.\Generated_Source\PSoC4/BLE_1.c ****                 CyBle_ChangeAdLocalName(name, 1u);
 1056              		.loc 1 991 0
 1057 0090 7B68     		ldr	r3, [r7, #4]
 1058 0092 181C     		mov	r0, r3
 1059 0094 0121     		mov	r1, #1
 1060 0096 FFF7FEFF 		bl	CyBle_ChangeAdLocalName
 1061 009a 03E0     		b	.L56
 1062              	.L52:
 992:.\Generated_Source\PSoC4/BLE_1.c ****             #endif /* (CYBLE_GAP_ROLE_PERIPHERAL) */
 993:.\Generated_Source\PSoC4/BLE_1.c ****         }
 994:.\Generated_Source\PSoC4/BLE_1.c ****         else
 995:.\Generated_Source\PSoC4/BLE_1.c ****         {
 996:.\Generated_Source\PSoC4/BLE_1.c ****             apiResult = CYBLE_ERROR_INVALID_PARAMETER;
 1063              		.loc 1 996 0
 1064 009c 3B1C     		mov	r3, r7
 1065 009e 1633     		add	r3, r3, #22
 1066 00a0 0122     		mov	r2, #1
 1067 00a2 1A80     		strh	r2, [r3]
 1068              	.L56:
 997:.\Generated_Source\PSoC4/BLE_1.c ****         }
 998:.\Generated_Source\PSoC4/BLE_1.c ****         
 999:.\Generated_Source\PSoC4/BLE_1.c ****         return(apiResult);
 1069              		.loc 1 999 0
 1070 00a4 3B1C     		mov	r3, r7
 1071 00a6 1633     		add	r3, r3, #22
 1072 00a8 1B88     		ldrh	r3, [r3]
1000:.\Generated_Source\PSoC4/BLE_1.c ****     }
 1073              		.loc 1 1000 0
 1074 00aa 181C     		mov	r0, r3
 1075 00ac BD46     		mov	sp, r7
 1076 00ae 06B0     		add	sp, sp, #24
 1077              		@ sp needed
 1078 00b0 80BD     		pop	{r7, pc}
 1079              	.L59:
 1080 00b2 C046     		.align	2
 1081              	.L58:
 1082 00b4 00000000 		.word	cyBle_gattDB
 1083              		.cfi_endproc
 1084              	.LFE10:
 1085              		.size	CyBle_GapSetLocalName, .-CyBle_GapSetLocalName
 1086              		.section	.text.CyBle_GapGetLocalName,"ax",%progbits
 1087              		.align	2
 1088              		.global	CyBle_GapGetLocalName
 1089              		.code	16
 1090              		.thumb_func
 1091              		.type	CyBle_GapGetLocalName, %function
 1092              	CyBle_GapGetLocalName:
 1093              	.LFB11:
1001:.\Generated_Source\PSoC4/BLE_1.c **** 
1002:.\Generated_Source\PSoC4/BLE_1.c **** 
ARM GAS  C:\Users\ENESDU~1\AppData\Local\Temp\ccn4fiPa.s 			page 38


1003:.\Generated_Source\PSoC4/BLE_1.c ****     /******************************************************************************
1004:.\Generated_Source\PSoC4/BLE_1.c ****     ##Function Name: CyBle_GapGetLocalName
1005:.\Generated_Source\PSoC4/BLE_1.c ****     *******************************************************************************
1006:.\Generated_Source\PSoC4/BLE_1.c ****  
1007:.\Generated_Source\PSoC4/BLE_1.c ****     Summary:
1008:.\Generated_Source\PSoC4/BLE_1.c ****      This API is used to read the local device name - a Characteristic of the 
1009:.\Generated_Source\PSoC4/BLE_1.c ****      GAP Service.
1010:.\Generated_Source\PSoC4/BLE_1.c **** 
1011:.\Generated_Source\PSoC4/BLE_1.c ****     Parameters:
1012:.\Generated_Source\PSoC4/BLE_1.c ****     char8 name: The local device name string. Used to read the local name to the
1013:.\Generated_Source\PSoC4/BLE_1.c ****                 given string array. It represents a UTF-8 encoded User Friendly 
1014:.\Generated_Source\PSoC4/BLE_1.c ****                 Descriptive Name for the device. The length of the local device
1015:.\Generated_Source\PSoC4/BLE_1.c ****                 string is entered into the component customizer and it can be set
1016:.\Generated_Source\PSoC4/BLE_1.c ****                 to a value from 0 to 248 bytes. If the name contained in the
1017:.\Generated_Source\PSoC4/BLE_1.c ****                 parameter is shorter than the length from the customizer, the end
1018:.\Generated_Source\PSoC4/BLE_1.c ****                 of the name is indicated by a NULL octet (0x00).
1019:.\Generated_Source\PSoC4/BLE_1.c **** 
1020:.\Generated_Source\PSoC4/BLE_1.c ****     Return:
1021:.\Generated_Source\PSoC4/BLE_1.c ****      CYBLE_API_RESULT_T : Return value indicates if the function succeeded or 
1022:.\Generated_Source\PSoC4/BLE_1.c ****      failed. Following are the possible error codes.
1023:.\Generated_Source\PSoC4/BLE_1.c ****      <table>
1024:.\Generated_Source\PSoC4/BLE_1.c ****       Errors codes                        Description
1025:.\Generated_Source\PSoC4/BLE_1.c ****       ------------                        -----------
1026:.\Generated_Source\PSoC4/BLE_1.c ****       CYBLE_ERROR_OK                      Function completed successfully.
1027:.\Generated_Source\PSoC4/BLE_1.c ****       CYBLE_ERROR_INVALID_PARAMETER       On specifying NULL as input parameter
1028:.\Generated_Source\PSoC4/BLE_1.c ****      </table>
1029:.\Generated_Source\PSoC4/BLE_1.c **** 
1030:.\Generated_Source\PSoC4/BLE_1.c ****     ******************************************************************************/
1031:.\Generated_Source\PSoC4/BLE_1.c ****     CYBLE_API_RESULT_T CyBle_GapGetLocalName(char8 name[])
1032:.\Generated_Source\PSoC4/BLE_1.c ****     {
 1094              		.loc 1 1032 0
 1095              		.cfi_startproc
 1096 0000 80B5     		push	{r7, lr}
 1097              		.cfi_def_cfa_offset 8
 1098              		.cfi_offset 7, -8
 1099              		.cfi_offset 14, -4
 1100 0002 86B0     		sub	sp, sp, #24
 1101              		.cfi_def_cfa_offset 32
 1102 0004 00AF     		add	r7, sp, #0
 1103              		.cfi_def_cfa_register 7
 1104 0006 7860     		str	r0, [r7, #4]
1033:.\Generated_Source\PSoC4/BLE_1.c ****         CYBLE_API_RESULT_T apiResult = CYBLE_ERROR_OK;
 1105              		.loc 1 1033 0
 1106 0008 3B1C     		mov	r3, r7
 1107 000a 1633     		add	r3, r3, #22
 1108 000c 0022     		mov	r2, #0
 1109 000e 1A80     		strh	r2, [r3]
1034:.\Generated_Source\PSoC4/BLE_1.c ****         uint8 charLen;
1035:.\Generated_Source\PSoC4/BLE_1.c ****         uint8 i;
1036:.\Generated_Source\PSoC4/BLE_1.c ****         char8 *ptr;
1037:.\Generated_Source\PSoC4/BLE_1.c **** 
1038:.\Generated_Source\PSoC4/BLE_1.c ****         if(NULL != name)
 1110              		.loc 1 1038 0
 1111 0010 7B68     		ldr	r3, [r7, #4]
 1112 0012 002B     		cmp	r3, #0
 1113 0014 38D0     		beq	.L61
1039:.\Generated_Source\PSoC4/BLE_1.c ****         {
ARM GAS  C:\Users\ENESDU~1\AppData\Local\Temp\ccn4fiPa.s 			page 39


1040:.\Generated_Source\PSoC4/BLE_1.c ****             /* Get the pointer to the Device Name characteristic  */
1041:.\Generated_Source\PSoC4/BLE_1.c ****             ptr = (char8 *) cyBle_gattDB[CYBLE_GAP_DEVICE_NAME_INDEX].attValue.attFormatValue.attGe
 1114              		.loc 1 1041 0
 1115 0016 224B     		ldr	r3, .L67
 1116 0018 9B6B     		ldr	r3, [r3, #56]
 1117 001a 3B61     		str	r3, [r7, #16]
1042:.\Generated_Source\PSoC4/BLE_1.c **** 
1043:.\Generated_Source\PSoC4/BLE_1.c ****             /* First need to get the length of the characteristic data in the GATT
1044:.\Generated_Source\PSoC4/BLE_1.c ****                 database to make sure there is enough place for the data. The length
1045:.\Generated_Source\PSoC4/BLE_1.c ****                 can't be longer than 248, so only the LSB of 16 bit of length is to
1046:.\Generated_Source\PSoC4/BLE_1.c ****                 be used. */
1047:.\Generated_Source\PSoC4/BLE_1.c ****             charLen = (uint8)cyBle_gattDB[CYBLE_GAP_DEVICE_NAME_INDEX].attValue.attFormatValue.leng
 1118              		.loc 1 1047 0
 1119 001c 204B     		ldr	r3, .L67
 1120 001e 9A8E     		ldrh	r2, [r3, #52]
 1121 0020 3B1C     		mov	r3, r7
 1122 0022 0F33     		add	r3, r3, #15
 1123 0024 1A70     		strb	r2, [r3]
1048:.\Generated_Source\PSoC4/BLE_1.c **** 
1049:.\Generated_Source\PSoC4/BLE_1.c ****             /* Copy name from characteristic */
1050:.\Generated_Source\PSoC4/BLE_1.c ****             for(i = 0u; ((i < (charLen - 1u)) && (CYBLE_NULL_CHARCTER != ptr[i])); i++)
 1124              		.loc 1 1050 0
 1125 0026 3B1C     		mov	r3, r7
 1126 0028 1533     		add	r3, r3, #21
 1127 002a 0022     		mov	r2, #0
 1128 002c 1A70     		strb	r2, [r3]
 1129 002e 12E0     		b	.L62
 1130              	.L64:
1051:.\Generated_Source\PSoC4/BLE_1.c ****             {
1052:.\Generated_Source\PSoC4/BLE_1.c ****                 name[i] = ptr[i];
 1131              		.loc 1 1052 0 discriminator 1
 1132 0030 3B1C     		mov	r3, r7
 1133 0032 1533     		add	r3, r3, #21
 1134 0034 1B78     		ldrb	r3, [r3]
 1135 0036 7A68     		ldr	r2, [r7, #4]
 1136 0038 D318     		add	r3, r2, r3
 1137 003a 3A1C     		mov	r2, r7
 1138 003c 1532     		add	r2, r2, #21
 1139 003e 1278     		ldrb	r2, [r2]
 1140 0040 3969     		ldr	r1, [r7, #16]
 1141 0042 8A18     		add	r2, r1, r2
 1142 0044 1278     		ldrb	r2, [r2]
 1143 0046 1A70     		strb	r2, [r3]
1050:.\Generated_Source\PSoC4/BLE_1.c ****             for(i = 0u; ((i < (charLen - 1u)) && (CYBLE_NULL_CHARCTER != ptr[i])); i++)
 1144              		.loc 1 1050 0 discriminator 1
 1145 0048 3B1C     		mov	r3, r7
 1146 004a 1533     		add	r3, r3, #21
 1147 004c 1A78     		ldrb	r2, [r3]
 1148 004e 3B1C     		mov	r3, r7
 1149 0050 1533     		add	r3, r3, #21
 1150 0052 0132     		add	r2, r2, #1
 1151 0054 1A70     		strb	r2, [r3]
 1152              	.L62:
 1153 0056 3B1C     		mov	r3, r7
 1154 0058 1533     		add	r3, r3, #21
 1155 005a 1A78     		ldrb	r2, [r3]
 1156 005c 3B1C     		mov	r3, r7
ARM GAS  C:\Users\ENESDU~1\AppData\Local\Temp\ccn4fiPa.s 			page 40


 1157 005e 0F33     		add	r3, r3, #15
 1158 0060 1B78     		ldrb	r3, [r3]
 1159 0062 013B     		sub	r3, r3, #1
 1160 0064 9A42     		cmp	r2, r3
 1161 0066 07D2     		bcs	.L63
1050:.\Generated_Source\PSoC4/BLE_1.c ****             for(i = 0u; ((i < (charLen - 1u)) && (CYBLE_NULL_CHARCTER != ptr[i])); i++)
 1162              		.loc 1 1050 0 is_stmt 0 discriminator 2
 1163 0068 3B1C     		mov	r3, r7
 1164 006a 1533     		add	r3, r3, #21
 1165 006c 1B78     		ldrb	r3, [r3]
 1166 006e 3A69     		ldr	r2, [r7, #16]
 1167 0070 D318     		add	r3, r2, r3
 1168 0072 1B78     		ldrb	r3, [r3]
 1169 0074 002B     		cmp	r3, #0
 1170 0076 DBD1     		bne	.L64
 1171              	.L63:
1053:.\Generated_Source\PSoC4/BLE_1.c ****             }
1054:.\Generated_Source\PSoC4/BLE_1.c **** 
1055:.\Generated_Source\PSoC4/BLE_1.c ****             /* Terminate string */
1056:.\Generated_Source\PSoC4/BLE_1.c ****             name[i] = CYBLE_NULL_CHARCTER;
 1172              		.loc 1 1056 0 is_stmt 1
 1173 0078 3B1C     		mov	r3, r7
 1174 007a 1533     		add	r3, r3, #21
 1175 007c 1B78     		ldrb	r3, [r3]
 1176 007e 7A68     		ldr	r2, [r7, #4]
 1177 0080 D318     		add	r3, r2, r3
 1178 0082 0022     		mov	r2, #0
 1179 0084 1A70     		strb	r2, [r3]
 1180 0086 03E0     		b	.L65
 1181              	.L61:
1057:.\Generated_Source\PSoC4/BLE_1.c ****         }
1058:.\Generated_Source\PSoC4/BLE_1.c ****         else
1059:.\Generated_Source\PSoC4/BLE_1.c ****         {
1060:.\Generated_Source\PSoC4/BLE_1.c ****             apiResult = CYBLE_ERROR_INVALID_PARAMETER;
 1182              		.loc 1 1060 0
 1183 0088 3B1C     		mov	r3, r7
 1184 008a 1633     		add	r3, r3, #22
 1185 008c 0122     		mov	r2, #1
 1186 008e 1A80     		strh	r2, [r3]
 1187              	.L65:
1061:.\Generated_Source\PSoC4/BLE_1.c ****         }
1062:.\Generated_Source\PSoC4/BLE_1.c ****         
1063:.\Generated_Source\PSoC4/BLE_1.c ****         return(apiResult);
 1188              		.loc 1 1063 0
 1189 0090 3B1C     		mov	r3, r7
 1190 0092 1633     		add	r3, r3, #22
 1191 0094 1B88     		ldrh	r3, [r3]
1064:.\Generated_Source\PSoC4/BLE_1.c ****     }
 1192              		.loc 1 1064 0
 1193 0096 181C     		mov	r0, r3
 1194 0098 BD46     		mov	sp, r7
 1195 009a 06B0     		add	sp, sp, #24
 1196              		@ sp needed
 1197 009c 80BD     		pop	{r7, pc}
 1198              	.L68:
 1199 009e C046     		.align	2
 1200              	.L67:
ARM GAS  C:\Users\ENESDU~1\AppData\Local\Temp\ccn4fiPa.s 			page 41


 1201 00a0 00000000 		.word	cyBle_gattDB
 1202              		.cfi_endproc
 1203              	.LFE11:
 1204              		.size	CyBle_GapGetLocalName, .-CyBle_GapGetLocalName
 1205              		.section	.text.CyBle_Get16ByPtr,"ax",%progbits
 1206              		.align	2
 1207              		.global	CyBle_Get16ByPtr
 1208              		.code	16
 1209              		.thumb_func
 1210              		.type	CyBle_Get16ByPtr, %function
 1211              	CyBle_Get16ByPtr:
 1212              	.LFB12:
1065:.\Generated_Source\PSoC4/BLE_1.c **** 
1066:.\Generated_Source\PSoC4/BLE_1.c **** #endif /* (CYBLE_GATT_ROLE_SERVER) */
1067:.\Generated_Source\PSoC4/BLE_1.c **** 
1068:.\Generated_Source\PSoC4/BLE_1.c **** 
1069:.\Generated_Source\PSoC4/BLE_1.c **** /******************************************************************************
1070:.\Generated_Source\PSoC4/BLE_1.c **** ##Function Name: CyBle_Get16ByPtr
1071:.\Generated_Source\PSoC4/BLE_1.c **** *******************************************************************************
1072:.\Generated_Source\PSoC4/BLE_1.c **** 
1073:.\Generated_Source\PSoC4/BLE_1.c **** Summary:
1074:.\Generated_Source\PSoC4/BLE_1.c ****  Returns the two-bytes value by using a pointer to the LSB.
1075:.\Generated_Source\PSoC4/BLE_1.c **** 
1076:.\Generated_Source\PSoC4/BLE_1.c **** Parameters:
1077:.\Generated_Source\PSoC4/BLE_1.c ****  uint8 * ptr: Pointer to the LSB of two-bytes data (little endian).
1078:.\Generated_Source\PSoC4/BLE_1.c **** 
1079:.\Generated_Source\PSoC4/BLE_1.c **** Return:
1080:.\Generated_Source\PSoC4/BLE_1.c ****  uint16 value: Two-bytes data.
1081:.\Generated_Source\PSoC4/BLE_1.c **** 
1082:.\Generated_Source\PSoC4/BLE_1.c **** ******************************************************************************/
1083:.\Generated_Source\PSoC4/BLE_1.c **** uint16 CyBle_Get16ByPtr(const uint8 ptr[])
1084:.\Generated_Source\PSoC4/BLE_1.c **** {
 1213              		.loc 1 1084 0
 1214              		.cfi_startproc
 1215 0000 80B5     		push	{r7, lr}
 1216              		.cfi_def_cfa_offset 8
 1217              		.cfi_offset 7, -8
 1218              		.cfi_offset 14, -4
 1219 0002 82B0     		sub	sp, sp, #8
 1220              		.cfi_def_cfa_offset 16
 1221 0004 00AF     		add	r7, sp, #0
 1222              		.cfi_def_cfa_register 7
 1223 0006 7860     		str	r0, [r7, #4]
1085:.\Generated_Source\PSoC4/BLE_1.c ****     return ((uint16) ptr[0u] | ((uint16) (((uint16) ptr[1u]) << 8u)));
 1224              		.loc 1 1085 0
 1225 0008 7B68     		ldr	r3, [r7, #4]
 1226 000a 1B78     		ldrb	r3, [r3]
 1227 000c 1A1C     		mov	r2, r3
 1228 000e 7B68     		ldr	r3, [r7, #4]
 1229 0010 0133     		add	r3, r3, #1
 1230 0012 1B78     		ldrb	r3, [r3]
 1231 0014 1B02     		lsl	r3, r3, #8
 1232 0016 9BB2     		uxth	r3, r3
 1233 0018 1343     		orr	r3, r2
 1234 001a 9BB2     		uxth	r3, r3
1086:.\Generated_Source\PSoC4/BLE_1.c **** }
 1235              		.loc 1 1086 0
ARM GAS  C:\Users\ENESDU~1\AppData\Local\Temp\ccn4fiPa.s 			page 42


 1236 001c 181C     		mov	r0, r3
 1237 001e BD46     		mov	sp, r7
 1238 0020 02B0     		add	sp, sp, #8
 1239              		@ sp needed
 1240 0022 80BD     		pop	{r7, pc}
 1241              		.cfi_endproc
 1242              	.LFE12:
 1243              		.size	CyBle_Get16ByPtr, .-CyBle_Get16ByPtr
 1244              		.section	.text.CyBle_Set16ByPtr,"ax",%progbits
 1245              		.align	2
 1246              		.global	CyBle_Set16ByPtr
 1247              		.code	16
 1248              		.thumb_func
 1249              		.type	CyBle_Set16ByPtr, %function
 1250              	CyBle_Set16ByPtr:
 1251              	.LFB13:
1087:.\Generated_Source\PSoC4/BLE_1.c **** 
1088:.\Generated_Source\PSoC4/BLE_1.c **** 
1089:.\Generated_Source\PSoC4/BLE_1.c **** /******************************************************************************
1090:.\Generated_Source\PSoC4/BLE_1.c **** ##Function Name: CyBle_Set16ByPtr
1091:.\Generated_Source\PSoC4/BLE_1.c **** *******************************************************************************
1092:.\Generated_Source\PSoC4/BLE_1.c **** 
1093:.\Generated_Source\PSoC4/BLE_1.c **** Summary:
1094:.\Generated_Source\PSoC4/BLE_1.c ****  Sets the two-bytes value by using a pointer to the LSB.
1095:.\Generated_Source\PSoC4/BLE_1.c **** 
1096:.\Generated_Source\PSoC4/BLE_1.c **** Parameters:
1097:.\Generated_Source\PSoC4/BLE_1.c ****  uint8 * ptr:   Pointer to the LSB of two-bytes data (little endian).
1098:.\Generated_Source\PSoC4/BLE_1.c ****  uint16 value:  Two-bytes data to be written.
1099:.\Generated_Source\PSoC4/BLE_1.c **** 
1100:.\Generated_Source\PSoC4/BLE_1.c **** Return:
1101:.\Generated_Source\PSoC4/BLE_1.c ****  None
1102:.\Generated_Source\PSoC4/BLE_1.c **** 
1103:.\Generated_Source\PSoC4/BLE_1.c **** ******************************************************************************/
1104:.\Generated_Source\PSoC4/BLE_1.c **** void CyBle_Set16ByPtr(uint8 ptr[], uint16 value)
1105:.\Generated_Source\PSoC4/BLE_1.c **** {
 1252              		.loc 1 1105 0
 1253              		.cfi_startproc
 1254 0000 80B5     		push	{r7, lr}
 1255              		.cfi_def_cfa_offset 8
 1256              		.cfi_offset 7, -8
 1257              		.cfi_offset 14, -4
 1258 0002 82B0     		sub	sp, sp, #8
 1259              		.cfi_def_cfa_offset 16
 1260 0004 00AF     		add	r7, sp, #0
 1261              		.cfi_def_cfa_register 7
 1262 0006 7860     		str	r0, [r7, #4]
 1263 0008 0A1C     		mov	r2, r1
 1264 000a BB1C     		add	r3, r7, #2
 1265 000c 1A80     		strh	r2, [r3]
1106:.\Generated_Source\PSoC4/BLE_1.c ****     ptr[0u] = (uint8) value;
 1266              		.loc 1 1106 0
 1267 000e BB1C     		add	r3, r7, #2
 1268 0010 1B88     		ldrh	r3, [r3]
 1269 0012 DAB2     		uxtb	r2, r3
 1270 0014 7B68     		ldr	r3, [r7, #4]
 1271 0016 1A70     		strb	r2, [r3]
1107:.\Generated_Source\PSoC4/BLE_1.c ****     ptr[1u] = (uint8) (value >> 8u);
ARM GAS  C:\Users\ENESDU~1\AppData\Local\Temp\ccn4fiPa.s 			page 43


 1272              		.loc 1 1107 0
 1273 0018 7B68     		ldr	r3, [r7, #4]
 1274 001a 0133     		add	r3, r3, #1
 1275 001c BA1C     		add	r2, r7, #2
 1276 001e 1288     		ldrh	r2, [r2]
 1277 0020 120A     		lsr	r2, r2, #8
 1278 0022 92B2     		uxth	r2, r2
 1279 0024 D2B2     		uxtb	r2, r2
 1280 0026 1A70     		strb	r2, [r3]
1108:.\Generated_Source\PSoC4/BLE_1.c **** }
 1281              		.loc 1 1108 0
 1282 0028 BD46     		mov	sp, r7
 1283 002a 02B0     		add	sp, sp, #8
 1284              		@ sp needed
 1285 002c 80BD     		pop	{r7, pc}
 1286              		.cfi_endproc
 1287              	.LFE13:
 1288              		.size	CyBle_Set16ByPtr, .-CyBle_Set16ByPtr
 1289 002e C046     		.bss
 1290 0001 00000000 		.align	3
 1290      000000
 1291              	cyBle_stackMemoryRam.6046:
 1292 0008 00000000 		.space	3220
 1292      00000000 
 1292      00000000 
 1292      00000000 
 1292      00000000 
 1293 0c9c 00000000 		.text
 1294              	.Letext0:
 1295              		.file 2 ".\\Generated_Source\\PSoC4\\cytypes.h"
 1296              		.file 3 ".\\Generated_Source\\PSoC4\\BLE_1_Stack.h"
 1297              		.file 4 ".\\Generated_Source\\PSoC4\\BLE_1_StackGap.h"
 1298              		.file 5 ".\\Generated_Source\\PSoC4\\BLE_1_StackGatt.h"
 1299              		.file 6 ".\\Generated_Source\\PSoC4\\BLE_1_StackGattDb.h"
 1300              		.file 7 ".\\Generated_Source\\PSoC4\\BLE_1.h"
 1301              		.file 8 ".\\Generated_Source\\PSoC4\\BLE_1_dis.h"
 1302              		.file 9 ".\\Generated_Source\\PSoC4\\BLE_1_hrs.h"
 1303              		.file 10 ".\\Generated_Source\\PSoC4\\BLE_1_eventHandler.h"
 1304              		.file 11 ".\\Generated_Source\\PSoC4\\BLE_1_gatt.h"