ARM GAS  C:\Users\ENESDU~1\AppData\Local\Temp\ccTCHFTj.s 			page 1


   1              		.cpu cortex-m0
   2              		.fpu softvfp
   3              		.eabi_attribute 20, 1
   4              		.eabi_attribute 21, 1
   5              		.eabi_attribute 23, 3
   6              		.eabi_attribute 24, 1
   7              		.eabi_attribute 25, 1
   8              		.eabi_attribute 26, 1
   9              		.eabi_attribute 30, 6
  10              		.eabi_attribute 34, 0
  11              		.eabi_attribute 18, 4
  12              		.code	16
  13              		.file	"BLE.c"
  14              		.text
  15              	.Ltext0:
  16              		.cfi_sections	.debug_frame
  17              		.global	cyBle_initVar
  18              		.bss
  19              		.type	cyBle_initVar, %object
  20              		.size	cyBle_initVar, 1
  21              	cyBle_initVar:
  22 0000 00       		.space	1
  23              		.comm	CyBle_ApplCallback,4,4
  24              		.global	cyBle_deviceAddress
  25              		.data
  26              		.align	2
  27              		.type	cyBle_deviceAddress, %object
  28              		.size	cyBle_deviceAddress, 7
  29              	cyBle_deviceAddress:
  30 0000 00       		.byte	0
  31 0001 00       		.byte	0
  32 0002 00       		.byte	0
  33 0003 50       		.byte	80
  34 0004 A0       		.byte	-96
  35 0005 00       		.byte	0
  36 0006 00       		.byte	0
  37              		.global	cyBle_sflashDeviceAddress
  38 0007 00       		.align	2
  39              		.type	cyBle_sflashDeviceAddress, %object
  40              		.size	cyBle_sflashDeviceAddress, 4
  41              	cyBle_sflashDeviceAddress:
  42 0008 00F2FF0F 		.word	268431872
  43              		.global	cyBle_discoveryParam
  44              		.align	2
  45              		.type	cyBle_discoveryParam, %object
  46              		.size	cyBle_discoveryParam, 16
  47              	cyBle_discoveryParam:
  48 000c 2000     		.short	32
  49 000e 3000     		.short	48
  50 0010 00       		.byte	0
  51 0011 00       		.byte	0
  52 0012 00       		.byte	0
  53 0013 00       		.byte	0
  54 0014 00       		.byte	0
  55 0015 00       		.byte	0
  56 0016 50       		.byte	80
  57 0017 A0       		.byte	-96
ARM GAS  C:\Users\ENESDU~1\AppData\Local\Temp\ccTCHFTj.s 			page 2


  58 0018 00       		.byte	0
  59 0019 07       		.byte	7
  60 001a 00       		.byte	0
  61 001b 00       		.space	1
  62              		.global	cyBle_discoveryData
  63              		.align	2
  64              		.type	cyBle_discoveryData, %object
  65              		.size	cyBle_discoveryData, 32
  66              	cyBle_discoveryData:
  67 001c 02       		.byte	2
  68 001d 01       		.byte	1
  69 001e 06       		.byte	6
  70 001f 03       		.byte	3
  71 0020 02       		.byte	2
  72 0021 02       		.byte	2
  73 0022 18       		.byte	24
  74 0023 03       		.byte	3
  75 0024 19       		.byte	25
  76 0025 00       		.byte	0
  77 0026 02       		.byte	2
  78 0027 00       		.byte	0
  79 0028 00       		.byte	0
  80 0029 00       		.byte	0
  81 002a 00       		.byte	0
  82 002b 00       		.byte	0
  83 002c 00       		.byte	0
  84 002d 00       		.byte	0
  85 002e 00       		.byte	0
  86 002f 00       		.byte	0
  87 0030 00       		.byte	0
  88 0031 00       		.byte	0
  89 0032 00       		.byte	0
  90 0033 00       		.byte	0
  91 0034 00       		.byte	0
  92 0035 00       		.byte	0
  93 0036 00       		.byte	0
  94 0037 00       		.byte	0
  95 0038 00       		.byte	0
  96 0039 00       		.byte	0
  97 003a 00       		.byte	0
  98 003b 0B       		.byte	11
  99              		.global	cyBle_scanRspData
 100              		.align	2
 101              		.type	cyBle_scanRspData, %object
 102              		.size	cyBle_scanRspData, 32
 103              	cyBle_scanRspData:
 104 003c 0A       		.byte	10
 105 003d 09       		.byte	9
 106 003e 42       		.byte	66
 107 003f 4C       		.byte	76
 108 0040 45       		.byte	69
 109 0041 20       		.byte	32
 110 0042 4C       		.byte	76
 111 0043 61       		.byte	97
 112 0044 62       		.byte	98
 113 0045 20       		.byte	32
 114 0046 32       		.byte	50
ARM GAS  C:\Users\ENESDU~1\AppData\Local\Temp\ccTCHFTj.s 			page 3


 115 0047 00       		.byte	0
 116 0048 00       		.byte	0
 117 0049 00       		.byte	0
 118 004a 00       		.byte	0
 119 004b 00       		.byte	0
 120 004c 00       		.byte	0
 121 004d 00       		.byte	0
 122 004e 00       		.byte	0
 123 004f 00       		.byte	0
 124 0050 00       		.byte	0
 125 0051 00       		.byte	0
 126 0052 00       		.byte	0
 127 0053 00       		.byte	0
 128 0054 00       		.byte	0
 129 0055 00       		.byte	0
 130 0056 00       		.byte	0
 131 0057 00       		.byte	0
 132 0058 00       		.byte	0
 133 0059 00       		.byte	0
 134 005a 00       		.byte	0
 135 005b 0B       		.byte	11
 136              		.global	cyBle_discoveryModeInfo
 137              		.align	2
 138              		.type	cyBle_discoveryModeInfo, %object
 139              		.size	cyBle_discoveryModeInfo, 20
 140              	cyBle_discoveryModeInfo:
 141 005c 02       		.byte	2
 142 005d 000000   		.space	3
 143 0060 00000000 		.word	cyBle_discoveryParam
 144 0064 00000000 		.word	cyBle_discoveryData
 145 0068 00000000 		.word	cyBle_scanRspData
 146 006c 1E00     		.short	30
 147 006e 0000     		.space	2
 148              		.section	.text.CyBle_Init,"ax",%progbits
 149              		.align	2
 150              		.global	CyBle_Init
 151              		.code	16
 152              		.thumb_func
 153              		.type	CyBle_Init, %function
 154              	CyBle_Init:
 155              	.LFB2:
 156              		.file 1 ".\\Generated_Source\\PSoC4\\BLE.c"
   1:.\Generated_Source\PSoC4/BLE.c **** /*******************************************************************************
   2:.\Generated_Source\PSoC4/BLE.c **** File Name: CYBLE.c
   3:.\Generated_Source\PSoC4/BLE.c **** Version 1.10
   4:.\Generated_Source\PSoC4/BLE.c **** 
   5:.\Generated_Source\PSoC4/BLE.c **** Description:
   6:.\Generated_Source\PSoC4/BLE.c ****  This file contains the source code for the Common APIs of the BLE Component.
   7:.\Generated_Source\PSoC4/BLE.c **** 
   8:.\Generated_Source\PSoC4/BLE.c **** ********************************************************************************
   9:.\Generated_Source\PSoC4/BLE.c **** Copyright 2014, Cypress Semiconductor Corporation.  All rights reserved.
  10:.\Generated_Source\PSoC4/BLE.c **** You may use this file only in accordance with the license, terms, conditions,
  11:.\Generated_Source\PSoC4/BLE.c **** disclaimers, and limitations in the end user license agreement accompanying
  12:.\Generated_Source\PSoC4/BLE.c **** the software package with which this file was provided.
  13:.\Generated_Source\PSoC4/BLE.c **** *******************************************************************************/
  14:.\Generated_Source\PSoC4/BLE.c **** 
  15:.\Generated_Source\PSoC4/BLE.c **** #include "BLE_eventHandler.h"
ARM GAS  C:\Users\ENESDU~1\AppData\Local\Temp\ccTCHFTj.s 			page 4


  16:.\Generated_Source\PSoC4/BLE.c **** #include "BLE_HAL_PVT.h"
  17:.\Generated_Source\PSoC4/BLE.c **** 
  18:.\Generated_Source\PSoC4/BLE.c **** 
  19:.\Generated_Source\PSoC4/BLE.c **** /***************************************
  20:.\Generated_Source\PSoC4/BLE.c **** ##Function Prototypes
  21:.\Generated_Source\PSoC4/BLE.c **** ***************************************/
  22:.\Generated_Source\PSoC4/BLE.c **** 
  23:.\Generated_Source\PSoC4/BLE.c **** #if(CYBLE_GATT_ROLE_SERVER)
  24:.\Generated_Source\PSoC4/BLE.c ****     #if(CYBLE_GAP_ROLE_PERIPHERAL)
  25:.\Generated_Source\PSoC4/BLE.c ****         static void CyBle_ChangeAdLocalName(const char8 name[], uint8 dest);
  26:.\Generated_Source\PSoC4/BLE.c ****     #endif /* (CYBLE_GAP_ROLE_PERIPHERAL) */
  27:.\Generated_Source\PSoC4/BLE.c **** #endif /* (CYBLE_GATT_ROLE_SERVER) */
  28:.\Generated_Source\PSoC4/BLE.c ****     
  29:.\Generated_Source\PSoC4/BLE.c **** 
  30:.\Generated_Source\PSoC4/BLE.c **** /***************************************
  31:.\Generated_Source\PSoC4/BLE.c **** ##Global Variables
  32:.\Generated_Source\PSoC4/BLE.c **** ***************************************/
  33:.\Generated_Source\PSoC4/BLE.c **** 
  34:.\Generated_Source\PSoC4/BLE.c **** uint8  cyBle_initVar = 0u;
  35:.\Generated_Source\PSoC4/BLE.c **** 
  36:.\Generated_Source\PSoC4/BLE.c **** CYBLE_CALLBACK_T CyBle_ApplCallback;
  37:.\Generated_Source\PSoC4/BLE.c **** 
  38:.\Generated_Source\PSoC4/BLE.c **** CYBLE_GAP_BD_ADDR_T cyBle_deviceAddress = {{0x00u, 0x00u, 0x00u, 0x50u, 0xA0u, 0x00u}, 0x00u };
  39:.\Generated_Source\PSoC4/BLE.c **** CYBLE_GAP_BD_ADDR_T * cyBle_sflashDeviceAddress = CYBLE_SFLASH_DEVICE_ADDRESS_PTR;
  40:.\Generated_Source\PSoC4/BLE.c **** 
  41:.\Generated_Source\PSoC4/BLE.c **** #if(CYBLE_GAP_ROLE_PERIPHERAL || CYBLE_GAP_ROLE_BROADCASTER)
  42:.\Generated_Source\PSoC4/BLE.c **** 
  43:.\Generated_Source\PSoC4/BLE.c **** CYBLE_GAPP_DISC_PARAM_T cyBle_discoveryParam =
  44:.\Generated_Source\PSoC4/BLE.c **** {
  45:.\Generated_Source\PSoC4/BLE.c ****     0x0020u,    /* uint16 advertising_interval_min */
  46:.\Generated_Source\PSoC4/BLE.c ****     0x0030u,    /* uint16 advertising_interval_max */
  47:.\Generated_Source\PSoC4/BLE.c ****     CYBLE_GAPP_CONNECTABLE_UNDIRECTED_ADV, /* uint8 advertising_type */
  48:.\Generated_Source\PSoC4/BLE.c ****     0x00u,      /* uint8 own_addr_type */
  49:.\Generated_Source\PSoC4/BLE.c ****     0x00u,      /* uint8 direct_addr_type */
  50:.\Generated_Source\PSoC4/BLE.c ****     {0x00u, 0x00u, 0x00u, 0x50u, 0xA0u, 0x00u}, /* uint8* direct_addr */
  51:.\Generated_Source\PSoC4/BLE.c ****     0x07u,      /* uint8 advertising_channel_map */
  52:.\Generated_Source\PSoC4/BLE.c ****     0x00u,      /* uint8 advertising_filter_policy */
  53:.\Generated_Source\PSoC4/BLE.c **** };
  54:.\Generated_Source\PSoC4/BLE.c **** 
  55:.\Generated_Source\PSoC4/BLE.c **** CYBLE_GAPP_DISC_DATA_T cyBle_discoveryData =
  56:.\Generated_Source\PSoC4/BLE.c **** {
  57:.\Generated_Source\PSoC4/BLE.c ****     { 0x02u, 0x01u, 0x06u, 0x03u, 0x02u, 0x02u, 0x18u,
  58:.\Generated_Source\PSoC4/BLE.c ****     0x03u, 0x19u, 0x00u, 0x02u, 0x00u, 0x00u, 0x00u, 0x00u,
  59:.\Generated_Source\PSoC4/BLE.c ****     0x00u, 0x00u, 0x00u, 0x00u, 0x00u, 0x00u, 0x00u, 0x00u,
  60:.\Generated_Source\PSoC4/BLE.c ****     0x00u, 0x00u, 0x00u, 0x00u, 0x00u, 0x00u, 0x00u, 0x00u }, /* uint8 advertising_data[CYBLE_MAX_A
  61:.\Generated_Source\PSoC4/BLE.c ****     0x0Bu,      /* uint8 adv_data_length */
  62:.\Generated_Source\PSoC4/BLE.c **** };
  63:.\Generated_Source\PSoC4/BLE.c **** 
  64:.\Generated_Source\PSoC4/BLE.c **** CYBLE_GAPP_SCAN_RSP_DATA_T cyBle_scanRspData =
  65:.\Generated_Source\PSoC4/BLE.c **** {
  66:.\Generated_Source\PSoC4/BLE.c ****     { 0x0Au, 0x09u, 0x42u, 0x4Cu, 0x45u, 0x20u, 0x4Cu,
  67:.\Generated_Source\PSoC4/BLE.c ****     0x61u, 0x62u, 0x20u, 0x32u, 0x00u, 0x00u, 0x00u, 0x00u,
  68:.\Generated_Source\PSoC4/BLE.c ****     0x00u, 0x00u, 0x00u, 0x00u, 0x00u, 0x00u, 0x00u, 0x00u,
  69:.\Generated_Source\PSoC4/BLE.c ****     0x00u, 0x00u, 0x00u, 0x00u, 0x00u, 0x00u, 0x00u, 0x00u }, /* uint8 scan_rsp_data[CYBLE_MAX_SCAN
  70:.\Generated_Source\PSoC4/BLE.c ****     0x0Bu,      /* uint8 scan_rsp_data_length */
  71:.\Generated_Source\PSoC4/BLE.c **** };
  72:.\Generated_Source\PSoC4/BLE.c **** 
ARM GAS  C:\Users\ENESDU~1\AppData\Local\Temp\ccTCHFTj.s 			page 5


  73:.\Generated_Source\PSoC4/BLE.c **** /* This variable of type CYBLE_GAPP_DISC_MODE_INFO_T is present only when 
  74:.\Generated_Source\PSoC4/BLE.c ****    the BLE component is configured for Peripheral GAP role or Central and 
  75:.\Generated_Source\PSoC4/BLE.c ****    Peripheral GAP role. It contains the Advertisement settings and also the 
  76:.\Generated_Source\PSoC4/BLE.c ****    Advertisement and Scan response data parameters entered in the customizer.
  77:.\Generated_Source\PSoC4/BLE.c ****    This variable can be used by advanced users to change Advertisement settings,
  78:.\Generated_Source\PSoC4/BLE.c ****    Advertisement or Scan response data in runtime. 
  79:.\Generated_Source\PSoC4/BLE.c **** */
  80:.\Generated_Source\PSoC4/BLE.c **** CYBLE_GAPP_DISC_MODE_INFO_T cyBle_discoveryModeInfo =
  81:.\Generated_Source\PSoC4/BLE.c **** {
  82:.\Generated_Source\PSoC4/BLE.c ****     0x02u,      /* uint8 discMode */
  83:.\Generated_Source\PSoC4/BLE.c ****     &cyBle_discoveryParam,
  84:.\Generated_Source\PSoC4/BLE.c ****     &cyBle_discoveryData,
  85:.\Generated_Source\PSoC4/BLE.c ****     &cyBle_scanRspData,
  86:.\Generated_Source\PSoC4/BLE.c ****     0x001Eu,    /* uint16 advTo */
  87:.\Generated_Source\PSoC4/BLE.c **** };
  88:.\Generated_Source\PSoC4/BLE.c **** 
  89:.\Generated_Source\PSoC4/BLE.c **** 
  90:.\Generated_Source\PSoC4/BLE.c **** #endif /* CYBLE_GAP_ROLE_PERIPHERAL || CYBLE_GAP_ROLE_BROADCASTER */
  91:.\Generated_Source\PSoC4/BLE.c **** 
  92:.\Generated_Source\PSoC4/BLE.c **** #if(CYBLE_GAP_ROLE_CENTRAL)
  93:.\Generated_Source\PSoC4/BLE.c ****     
  94:.\Generated_Source\PSoC4/BLE.c **** CYBLE_GAPC_CONN_PARAM_T cyBle_connectionParameters;
  95:.\Generated_Source\PSoC4/BLE.c **** 
  96:.\Generated_Source\PSoC4/BLE.c **** /* Connecting timeout is set to 30 seconds in CyBle_Init function. 
  97:.\Generated_Source\PSoC4/BLE.c ****    Not zero value starts timer in CyBle_GapcConnectDevice API.
  98:.\Generated_Source\PSoC4/BLE.c **** */
  99:.\Generated_Source\PSoC4/BLE.c **** uint16 cyBle_connectingTimeout;
 100:.\Generated_Source\PSoC4/BLE.c ****     
 101:.\Generated_Source\PSoC4/BLE.c **** #endif /* CYBLE_GAP_ROLE_CENTRAL */
 102:.\Generated_Source\PSoC4/BLE.c **** 
 103:.\Generated_Source\PSoC4/BLE.c **** #if(CYBLE_GAP_ROLE_CENTRAL || CYBLE_GAP_ROLE_OBSERVER)
 104:.\Generated_Source\PSoC4/BLE.c ****     
 105:.\Generated_Source\PSoC4/BLE.c **** 
 106:.\Generated_Source\PSoC4/BLE.c ****     
 107:.\Generated_Source\PSoC4/BLE.c **** #endif /* CYBLE_GAP_ROLE_CENTRAL || CYBLE_GAP_ROLE_OBSERVER */
 108:.\Generated_Source\PSoC4/BLE.c **** 
 109:.\Generated_Source\PSoC4/BLE.c **** #if((CYBLE_GAP_ROLE_PERIPHERAL || CYBLE_GAP_ROLE_CENTRAL) && (CYBLE_BONDING_REQUIREMENT == CYBLE_BO
 110:.\Generated_Source\PSoC4/BLE.c **** 
 111:.\Generated_Source\PSoC4/BLE.c **** uint8 cyBle_pendingFlashWrite;
 112:.\Generated_Source\PSoC4/BLE.c ****     
 113:.\Generated_Source\PSoC4/BLE.c **** #endif  /* (CYBLE_BONDING_REQUIREMENT == CYBLE_BONDING_YES) */
 114:.\Generated_Source\PSoC4/BLE.c **** 
 115:.\Generated_Source\PSoC4/BLE.c **** 
 116:.\Generated_Source\PSoC4/BLE.c **** /******************************************************************************
 117:.\Generated_Source\PSoC4/BLE.c **** ##Function Name: CyBle_Init
 118:.\Generated_Source\PSoC4/BLE.c **** *******************************************************************************
 119:.\Generated_Source\PSoC4/BLE.c ****  Summary:
 120:.\Generated_Source\PSoC4/BLE.c ****   Initializes the component with the parameters set in the customizer.
 121:.\Generated_Source\PSoC4/BLE.c **** 
 122:.\Generated_Source\PSoC4/BLE.c ****  Parameters:
 123:.\Generated_Source\PSoC4/BLE.c ****   None
 124:.\Generated_Source\PSoC4/BLE.c **** 
 125:.\Generated_Source\PSoC4/BLE.c ****  Return:
 126:.\Generated_Source\PSoC4/BLE.c ****   None
 127:.\Generated_Source\PSoC4/BLE.c **** 
 128:.\Generated_Source\PSoC4/BLE.c **** ******************************************************************************/
 129:.\Generated_Source\PSoC4/BLE.c **** void CyBle_Init(void)
ARM GAS  C:\Users\ENESDU~1\AppData\Local\Temp\ccTCHFTj.s 			page 6


 130:.\Generated_Source\PSoC4/BLE.c **** {
 157              		.loc 1 130 0
 158              		.cfi_startproc
 159 0000 80B5     		push	{r7, lr}
 160              		.cfi_def_cfa_offset 8
 161              		.cfi_offset 7, -8
 162              		.cfi_offset 14, -4
 163 0002 00AF     		add	r7, sp, #0
 164              		.cfi_def_cfa_register 7
 131:.\Generated_Source\PSoC4/BLE.c ****     cyBle_eventHandlerFlag = 0u;
 165              		.loc 1 131 0
 166 0004 064B     		ldr	r3, .L2
 167 0006 0022     		mov	r2, #0
 168 0008 1A70     		strb	r2, [r3]
 132:.\Generated_Source\PSoC4/BLE.c ****     cyBle_busStatus = CYBLE_STACK_STATE_FREE;
 169              		.loc 1 132 0
 170 000a 064B     		ldr	r3, .L2+4
 171 000c 0022     		mov	r2, #0
 172 000e 1A70     		strb	r2, [r3]
 133:.\Generated_Source\PSoC4/BLE.c ****     
 134:.\Generated_Source\PSoC4/BLE.c ****     #if(CYBLE_GAP_ROLE_PERIPHERAL || CYBLE_GAP_ROLE_BROADCASTER) 
 135:.\Generated_Source\PSoC4/BLE.c ****         cyBle_advertisingIntervalType = CYBLE_ADVERTISING_FAST; 
 173              		.loc 1 135 0
 174 0010 054B     		ldr	r3, .L2+8
 175 0012 0022     		mov	r2, #0
 176 0014 1A70     		strb	r2, [r3]
 136:.\Generated_Source\PSoC4/BLE.c ****     #endif /* (CYBLE_GAP_ROLE_PERIPHERAL || CYBLE_GAP_ROLE_BROADCASTER)  */
 137:.\Generated_Source\PSoC4/BLE.c ****     #if(CYBLE_GAP_ROLE_CENTRAL || CYBLE_GAP_ROLE_OBSERVER)
 138:.\Generated_Source\PSoC4/BLE.c ****         cyBle_scanningIntervalType = CYBLE_SCANNING_FAST; 
 139:.\Generated_Source\PSoC4/BLE.c ****     #endif /* (CYBLE_GAP_ROLE_CENTRAL || CYBLE_GAP_ROLE_OBSERVER) */
 140:.\Generated_Source\PSoC4/BLE.c ****         
 141:.\Generated_Source\PSoC4/BLE.c ****     /* Init default connection parameters. 
 142:.\Generated_Source\PSoC4/BLE.c ****        Application may change it before initiating a connection */
 143:.\Generated_Source\PSoC4/BLE.c ****     #if(CYBLE_GAP_ROLE_CENTRAL)
 144:.\Generated_Source\PSoC4/BLE.c ****         cyBle_connectionParameters.scanIntv = cyBle_discoveryInfo.scanIntv;
 145:.\Generated_Source\PSoC4/BLE.c ****         cyBle_connectionParameters.scanWindow = cyBle_discoveryInfo.scanWindow;
 146:.\Generated_Source\PSoC4/BLE.c ****         cyBle_connectionParameters.ownAddrType = cyBle_discoveryInfo.ownAddrType;
 147:.\Generated_Source\PSoC4/BLE.c ****         cyBle_connectionParameters.initiatorFilterPolicy = cyBle_discoveryInfo.scanFilterPolicy;
 148:.\Generated_Source\PSoC4/BLE.c ****         cyBle_connectionParameters.connIntvMin = CYBLE_GAPC_CONNECTION_INTERVAL_MIN;
 149:.\Generated_Source\PSoC4/BLE.c ****         cyBle_connectionParameters.connIntvMax = CYBLE_GAPC_CONNECTION_INTERVAL_MAX;
 150:.\Generated_Source\PSoC4/BLE.c ****         cyBle_connectionParameters.connLatency = CYBLE_GAPC_CONNECTION_SLAVE_LATENCY;
 151:.\Generated_Source\PSoC4/BLE.c ****         cyBle_connectionParameters.supervisionTO = CYBLE_GAPC_CONNECTION_TIME_OUT;
 152:.\Generated_Source\PSoC4/BLE.c ****         cyBle_connectionParameters.minCeLength = 0x0000u;
 153:.\Generated_Source\PSoC4/BLE.c ****         cyBle_connectionParameters.maxCeLength = 0xFFFFu;
 154:.\Generated_Source\PSoC4/BLE.c ****         
 155:.\Generated_Source\PSoC4/BLE.c ****         cyBle_discoveryInfo.scanType = 0x01u; /* Active scanning (0x01) */
 156:.\Generated_Source\PSoC4/BLE.c ****         
 157:.\Generated_Source\PSoC4/BLE.c ****         cyBle_connectingTimeout = CYBLE_GAPC_CONNECTING_TIMEOUT;
 158:.\Generated_Source\PSoC4/BLE.c ****     #endif /* CYBLE_GAP_ROLE_CENTRAL */
 159:.\Generated_Source\PSoC4/BLE.c **** 
 160:.\Generated_Source\PSoC4/BLE.c ****     CyBle_ServiceInit();
 177              		.loc 1 160 0
 178 0016 FFF7FEFF 		bl	CyBle_ServiceInit
 161:.\Generated_Source\PSoC4/BLE.c **** 
 162:.\Generated_Source\PSoC4/BLE.c **** #if((CYBLE_GAP_ROLE_PERIPHERAL || CYBLE_GAP_ROLE_CENTRAL) && (CYBLE_BONDING_REQUIREMENT == CYBLE_BO
 163:.\Generated_Source\PSoC4/BLE.c ****     cyBle_pendingFlashWrite = 0u;
 164:.\Generated_Source\PSoC4/BLE.c **** #endif  /* (CYBLE_BONDING_REQUIREMENT == CYBLE_BONDING_YES) */
ARM GAS  C:\Users\ENESDU~1\AppData\Local\Temp\ccTCHFTj.s 			page 7


 165:.\Generated_Source\PSoC4/BLE.c **** 
 166:.\Generated_Source\PSoC4/BLE.c **** }
 179              		.loc 1 166 0
 180 001a BD46     		mov	sp, r7
 181              		@ sp needed
 182 001c 80BD     		pop	{r7, pc}
 183              	.L3:
 184 001e C046     		.align	2
 185              	.L2:
 186 0020 00000000 		.word	cyBle_eventHandlerFlag
 187 0024 00000000 		.word	cyBle_busStatus
 188 0028 00000000 		.word	cyBle_advertisingIntervalType
 189              		.cfi_endproc
 190              	.LFE2:
 191              		.size	CyBle_Init, .-CyBle_Init
 192              		.section	.text.CyBle_ServiceInit,"ax",%progbits
 193              		.align	2
 194              		.global	CyBle_ServiceInit
 195              		.code	16
 196              		.thumb_func
 197              		.type	CyBle_ServiceInit, %function
 198              	CyBle_ServiceInit:
 199              	.LFB3:
 167:.\Generated_Source\PSoC4/BLE.c **** 
 168:.\Generated_Source\PSoC4/BLE.c **** 
 169:.\Generated_Source\PSoC4/BLE.c **** /******************************************************************************
 170:.\Generated_Source\PSoC4/BLE.c **** ##Function Name: CyBle_ServiceInit
 171:.\Generated_Source\PSoC4/BLE.c **** *******************************************************************************
 172:.\Generated_Source\PSoC4/BLE.c **** 
 173:.\Generated_Source\PSoC4/BLE.c **** Summary:
 174:.\Generated_Source\PSoC4/BLE.c ****  Initializes all included services.
 175:.\Generated_Source\PSoC4/BLE.c **** 
 176:.\Generated_Source\PSoC4/BLE.c **** Parameters:
 177:.\Generated_Source\PSoC4/BLE.c ****  None
 178:.\Generated_Source\PSoC4/BLE.c **** 
 179:.\Generated_Source\PSoC4/BLE.c **** Return:
 180:.\Generated_Source\PSoC4/BLE.c ****  None
 181:.\Generated_Source\PSoC4/BLE.c **** 
 182:.\Generated_Source\PSoC4/BLE.c **** ******************************************************************************/
 183:.\Generated_Source\PSoC4/BLE.c **** void CyBle_ServiceInit(void)
 184:.\Generated_Source\PSoC4/BLE.c **** {
 200              		.loc 1 184 0
 201              		.cfi_startproc
 202 0000 80B5     		push	{r7, lr}
 203              		.cfi_def_cfa_offset 8
 204              		.cfi_offset 7, -8
 205              		.cfi_offset 14, -4
 206 0002 00AF     		add	r7, sp, #0
 207              		.cfi_def_cfa_register 7
 185:.\Generated_Source\PSoC4/BLE.c ****     #if(CYBLE_GATT_ROLE_CLIENT)
 186:.\Generated_Source\PSoC4/BLE.c ****         (void)memset(&cyBle_gapc, 0, sizeof(cyBle_gapc));
 187:.\Generated_Source\PSoC4/BLE.c ****         (void)memset(&cyBle_gattc, 0, sizeof(cyBle_gattc));
 188:.\Generated_Source\PSoC4/BLE.c ****     #endif /* CYBLE_GATT_ROLE_CLIENT */
 189:.\Generated_Source\PSoC4/BLE.c ****     
 190:.\Generated_Source\PSoC4/BLE.c ****     #ifdef CYBLE_ANS
 191:.\Generated_Source\PSoC4/BLE.c ****         CyBle_AnsInit();
 192:.\Generated_Source\PSoC4/BLE.c ****     #endif /* CYBLE_ANS */
ARM GAS  C:\Users\ENESDU~1\AppData\Local\Temp\ccTCHFTj.s 			page 8


 193:.\Generated_Source\PSoC4/BLE.c ****     
 194:.\Generated_Source\PSoC4/BLE.c ****     #ifdef CYBLE_BAS
 195:.\Generated_Source\PSoC4/BLE.c ****         CyBle_BasInit();
 196:.\Generated_Source\PSoC4/BLE.c ****     #endif /* CYBLE_BAS */
 197:.\Generated_Source\PSoC4/BLE.c ****     
 198:.\Generated_Source\PSoC4/BLE.c ****     #ifdef CYBLE_BLS
 199:.\Generated_Source\PSoC4/BLE.c ****         CyBle_BlsInit();
 200:.\Generated_Source\PSoC4/BLE.c ****     #endif /* CYBLE_BLS */
 201:.\Generated_Source\PSoC4/BLE.c **** 
 202:.\Generated_Source\PSoC4/BLE.c ****     #ifdef CYBLE_CPS
 203:.\Generated_Source\PSoC4/BLE.c ****         CyBle_CpsInit();
 204:.\Generated_Source\PSoC4/BLE.c ****     #endif /* CYBLE_CPS */
 205:.\Generated_Source\PSoC4/BLE.c **** 
 206:.\Generated_Source\PSoC4/BLE.c ****     #ifdef CYBLE_CSCS
 207:.\Generated_Source\PSoC4/BLE.c ****         CyBle_CscsInit();
 208:.\Generated_Source\PSoC4/BLE.c ****     #endif /* CYBLE_CSCS */
 209:.\Generated_Source\PSoC4/BLE.c ****     
 210:.\Generated_Source\PSoC4/BLE.c ****     #ifdef CYBLE_CTS
 211:.\Generated_Source\PSoC4/BLE.c ****         CyBle_CtsInit();
 212:.\Generated_Source\PSoC4/BLE.c ****     #endif /* CYBLE_CTS */
 213:.\Generated_Source\PSoC4/BLE.c **** 
 214:.\Generated_Source\PSoC4/BLE.c ****     #ifdef CYBLE_DIS
 215:.\Generated_Source\PSoC4/BLE.c ****         CyBle_DisInit();
 208              		.loc 1 215 0
 209 0004 FFF7FEFF 		bl	CyBle_DisInit
 216:.\Generated_Source\PSoC4/BLE.c ****     #endif /* CYBLE_DIS */
 217:.\Generated_Source\PSoC4/BLE.c **** 
 218:.\Generated_Source\PSoC4/BLE.c ****     #ifdef CYBLE_GLS
 219:.\Generated_Source\PSoC4/BLE.c ****         CyBle_GlsInit();
 220:.\Generated_Source\PSoC4/BLE.c ****     #endif /* CYBLE_GLS */
 221:.\Generated_Source\PSoC4/BLE.c ****     
 222:.\Generated_Source\PSoC4/BLE.c ****     #ifdef CYBLE_HIDS
 223:.\Generated_Source\PSoC4/BLE.c ****         CyBle_HidsInit();
 224:.\Generated_Source\PSoC4/BLE.c ****     #endif /* CYBLE_HIDS */
 225:.\Generated_Source\PSoC4/BLE.c **** 
 226:.\Generated_Source\PSoC4/BLE.c ****     #ifdef CYBLE_HRS
 227:.\Generated_Source\PSoC4/BLE.c ****         CyBle_HrsInit();
 228:.\Generated_Source\PSoC4/BLE.c ****     #endif /* CYBLE_HRS */
 229:.\Generated_Source\PSoC4/BLE.c ****     
 230:.\Generated_Source\PSoC4/BLE.c ****     #ifdef CYBLE_HTS
 231:.\Generated_Source\PSoC4/BLE.c ****         CyBle_HtsInit();
 232:.\Generated_Source\PSoC4/BLE.c ****     #endif /* CYBLE_RSCS */
 233:.\Generated_Source\PSoC4/BLE.c **** 
 234:.\Generated_Source\PSoC4/BLE.c ****     #ifdef CYBLE_IAS
 235:.\Generated_Source\PSoC4/BLE.c ****         CyBle_IasInit();
 210              		.loc 1 235 0
 211 0008 FFF7FEFF 		bl	CyBle_IasInit
 236:.\Generated_Source\PSoC4/BLE.c ****     #endif /* CYBLE_IAS */
 237:.\Generated_Source\PSoC4/BLE.c **** 
 238:.\Generated_Source\PSoC4/BLE.c ****     #ifdef CYBLE_LLS
 239:.\Generated_Source\PSoC4/BLE.c ****         CyBle_LlsInit();
 240:.\Generated_Source\PSoC4/BLE.c ****     #endif /* CYBLE_LLS */
 241:.\Generated_Source\PSoC4/BLE.c **** 
 242:.\Generated_Source\PSoC4/BLE.c ****     #ifdef CYBLE_RTUS
 243:.\Generated_Source\PSoC4/BLE.c ****         CyBle_RtusInit();
 244:.\Generated_Source\PSoC4/BLE.c ****     #endif /* CYBLE_RTUS */
 245:.\Generated_Source\PSoC4/BLE.c **** 
ARM GAS  C:\Users\ENESDU~1\AppData\Local\Temp\ccTCHFTj.s 			page 9


 246:.\Generated_Source\PSoC4/BLE.c ****     #ifdef CYBLE_LNS
 247:.\Generated_Source\PSoC4/BLE.c ****         CyBle_LnsInit();
 248:.\Generated_Source\PSoC4/BLE.c ****     #endif /* CYBLE_LNS */
 249:.\Generated_Source\PSoC4/BLE.c ****     
 250:.\Generated_Source\PSoC4/BLE.c ****     #ifdef CYBLE_PASS
 251:.\Generated_Source\PSoC4/BLE.c ****         CyBle_PassInit();
 252:.\Generated_Source\PSoC4/BLE.c ****     #endif /* CYBLE_PASS */
 253:.\Generated_Source\PSoC4/BLE.c ****     
 254:.\Generated_Source\PSoC4/BLE.c ****     #ifdef CYBLE_RSCS
 255:.\Generated_Source\PSoC4/BLE.c ****         CyBle_RscsInit();
 256:.\Generated_Source\PSoC4/BLE.c ****     #endif /* CYBLE_RSCS */
 257:.\Generated_Source\PSoC4/BLE.c **** 
 258:.\Generated_Source\PSoC4/BLE.c ****     #ifdef CYBLE_SCPS
 259:.\Generated_Source\PSoC4/BLE.c ****         CyBle_ScpsInit();
 260:.\Generated_Source\PSoC4/BLE.c ****     #endif /* CYBLE_SCPS */
 261:.\Generated_Source\PSoC4/BLE.c ****     
 262:.\Generated_Source\PSoC4/BLE.c ****     #ifdef CYBLE_TPS
 263:.\Generated_Source\PSoC4/BLE.c ****         CyBle_TpsInit();
 264:.\Generated_Source\PSoC4/BLE.c ****     #endif /* CYBLE_TPS */
 265:.\Generated_Source\PSoC4/BLE.c **** 
 266:.\Generated_Source\PSoC4/BLE.c **** }
 212              		.loc 1 266 0
 213 000c BD46     		mov	sp, r7
 214              		@ sp needed
 215 000e 80BD     		pop	{r7, pc}
 216              		.cfi_endproc
 217              	.LFE3:
 218              		.size	CyBle_ServiceInit, .-CyBle_ServiceInit
 219              		.section	.text.CyBle_Start,"ax",%progbits
 220              		.align	2
 221              		.global	CyBle_Start
 222              		.code	16
 223              		.thumb_func
 224              		.type	CyBle_Start, %function
 225              	CyBle_Start:
 226              	.LFB4:
 267:.\Generated_Source\PSoC4/BLE.c **** 
 268:.\Generated_Source\PSoC4/BLE.c **** 
 269:.\Generated_Source\PSoC4/BLE.c **** /******************************************************************************
 270:.\Generated_Source\PSoC4/BLE.c **** ##Function Name: CyBle_Start
 271:.\Generated_Source\PSoC4/BLE.c **** *******************************************************************************
 272:.\Generated_Source\PSoC4/BLE.c **** 
 273:.\Generated_Source\PSoC4/BLE.c **** Summary:
 274:.\Generated_Source\PSoC4/BLE.c ****  This function initializes the BLE Stack, which consists of the BLE Stack 
 275:.\Generated_Source\PSoC4/BLE.c ****  Manager, BLE Controller, and BLE Host modules. It takes care of initializing
 276:.\Generated_Source\PSoC4/BLE.c ****  the Profile layer, schedulers, Timer and other platform related
 277:.\Generated_Source\PSoC4/BLE.c ****  resources required for the BLE component. It also registers the callback 
 278:.\Generated_Source\PSoC4/BLE.c ****  function for BLE events that will be registered in the BLE stack.
 279:.\Generated_Source\PSoC4/BLE.c **** 
 280:.\Generated_Source\PSoC4/BLE.c ****  Note that this function does not reset the BLE Stack.
 281:.\Generated_Source\PSoC4/BLE.c **** 
 282:.\Generated_Source\PSoC4/BLE.c ****  For HCI-Mode of operation, this function will not initialize the BLE Host 
 283:.\Generated_Source\PSoC4/BLE.c ****  module.
 284:.\Generated_Source\PSoC4/BLE.c **** 
 285:.\Generated_Source\PSoC4/BLE.c ****  Calling this function results in the generation of CYBLE_EVT_STACK_ON event
 286:.\Generated_Source\PSoC4/BLE.c ****  on successful initialization of the BLE Stack.
 287:.\Generated_Source\PSoC4/BLE.c **** 
ARM GAS  C:\Users\ENESDU~1\AppData\Local\Temp\ccTCHFTj.s 			page 10


 288:.\Generated_Source\PSoC4/BLE.c **** Parameters:
 289:.\Generated_Source\PSoC4/BLE.c ****  callbackFunc: Event callback function to receive events from BLE stack.
 290:.\Generated_Source\PSoC4/BLE.c ****   CYBLE_CALLBACK_T is a function pointer type.
 291:.\Generated_Source\PSoC4/BLE.c **** 
 292:.\Generated_Source\PSoC4/BLE.c **** Return:
 293:.\Generated_Source\PSoC4/BLE.c ****  CYBLE_API_RESULT_T : Return value indicates if the function succeeded or 
 294:.\Generated_Source\PSoC4/BLE.c ****  failed. Following are the possible error codes.
 295:.\Generated_Source\PSoC4/BLE.c ****  <table>
 296:.\Generated_Source\PSoC4/BLE.c ****   Errors codes                        Description
 297:.\Generated_Source\PSoC4/BLE.c ****   ------------                        -----------------
 298:.\Generated_Source\PSoC4/BLE.c ****   CYBLE_ERROR_OK                      On successful operation.
 299:.\Generated_Source\PSoC4/BLE.c ****   CYBLE_ERROR_INVALID_PARAMETER       On passing a NULL pointer to the 
 300:.\Generated_Source\PSoC4/BLE.c ****                                        function when the BLE stack is not 
 301:.\Generated_Source\PSoC4/BLE.c ****                                        built in HCI mode.
 302:.\Generated_Source\PSoC4/BLE.c ****                                        CYBLE_ERROR_INVALID_PARAMETER
 303:.\Generated_Source\PSoC4/BLE.c ****                                        is never returned in HCI mode.
 304:.\Generated_Source\PSoC4/BLE.c ****   CYBLE_ERROR_REPEATED_ATTEMPTS       On invoking this function more
 305:.\Generated_Source\PSoC4/BLE.c ****                                        than once without calling
 306:.\Generated_Source\PSoC4/BLE.c ****                                        CyBle_Shutdown() function 
 307:.\Generated_Source\PSoC4/BLE.c ****                                        between calls to this function.
 308:.\Generated_Source\PSoC4/BLE.c ****  </table>
 309:.\Generated_Source\PSoC4/BLE.c **** 
 310:.\Generated_Source\PSoC4/BLE.c **** ******************************************************************************/
 311:.\Generated_Source\PSoC4/BLE.c **** CYBLE_API_RESULT_T CyBle_Start(CYBLE_CALLBACK_T callbackFunc)
 312:.\Generated_Source\PSoC4/BLE.c **** {
 227              		.loc 1 312 0
 228              		.cfi_startproc
 229 0000 90B5     		push	{r4, r7, lr}
 230              		.cfi_def_cfa_offset 12
 231              		.cfi_offset 4, -12
 232              		.cfi_offset 7, -8
 233              		.cfi_offset 14, -4
 234 0002 85B0     		sub	sp, sp, #20
 235              		.cfi_def_cfa_offset 32
 236 0004 00AF     		add	r7, sp, #0
 237              		.cfi_def_cfa_register 7
 238 0006 7860     		str	r0, [r7, #4]
 313:.\Generated_Source\PSoC4/BLE.c ****     CYBLE_API_RESULT_T apiResult = CYBLE_ERROR_INVALID_PARAMETER;
 239              		.loc 1 313 0
 240 0008 3B1C     		mov	r3, r7
 241 000a 0E33     		add	r3, r3, #14
 242 000c 0122     		mov	r2, #1
 243 000e 1A80     		strh	r2, [r3]
 314:.\Generated_Source\PSoC4/BLE.c ****     
 315:.\Generated_Source\PSoC4/BLE.c ****     /* Allocate RAM memory for stack */
 316:.\Generated_Source\PSoC4/BLE.c ****     CYBLE_CYALIGNED static uint8 cyBle_stackMemoryRam[CYBLE_STACK_RAM_SIZE];
 317:.\Generated_Source\PSoC4/BLE.c ****     
 318:.\Generated_Source\PSoC4/BLE.c ****     /* If not initialized then initialize all the required hardware and software */
 319:.\Generated_Source\PSoC4/BLE.c ****     if(cyBle_initVar == 0u)
 244              		.loc 1 319 0
 245 0010 194B     		ldr	r3, .L9
 246 0012 1B78     		ldrb	r3, [r3]
 247 0014 002B     		cmp	r3, #0
 248 0016 04D1     		bne	.L6
 320:.\Generated_Source\PSoC4/BLE.c ****     {
 321:.\Generated_Source\PSoC4/BLE.c ****         CyBle_Init();
 249              		.loc 1 321 0
ARM GAS  C:\Users\ENESDU~1\AppData\Local\Temp\ccTCHFTj.s 			page 11


 250 0018 FFF7FEFF 		bl	CyBle_Init
 322:.\Generated_Source\PSoC4/BLE.c ****         cyBle_initVar = 1u;
 251              		.loc 1 322 0
 252 001c 164B     		ldr	r3, .L9
 253 001e 0122     		mov	r2, #1
 254 0020 1A70     		strb	r2, [r3]
 255              	.L6:
 323:.\Generated_Source\PSoC4/BLE.c ****     }
 324:.\Generated_Source\PSoC4/BLE.c ****     
 325:.\Generated_Source\PSoC4/BLE.c ****     if(NULL != callbackFunc)
 256              		.loc 1 325 0
 257 0022 7B68     		ldr	r3, [r7, #4]
 258 0024 002B     		cmp	r3, #0
 259 0026 1FD0     		beq	.L7
 326:.\Generated_Source\PSoC4/BLE.c ****     {
 327:.\Generated_Source\PSoC4/BLE.c ****         CyBle_ApplCallback = callbackFunc;
 260              		.loc 1 327 0
 261 0028 144B     		ldr	r3, .L9+4
 262 002a 7A68     		ldr	r2, [r7, #4]
 263 002c 1A60     		str	r2, [r3]
 328:.\Generated_Source\PSoC4/BLE.c **** 
 329:.\Generated_Source\PSoC4/BLE.c ****         apiResult = CyBle_StackInit(&CyBle_EventHandler, cyBle_stackMemoryRam, CYBLE_GATT_MTU);
 264              		.loc 1 329 0
 265 002e 3C1C     		mov	r4, r7
 266 0030 0E34     		add	r4, r4, #14
 267 0032 134A     		ldr	r2, .L9+8
 268 0034 134B     		ldr	r3, .L9+12
 269 0036 101C     		mov	r0, r2
 270 0038 191C     		mov	r1, r3
 271 003a 1722     		mov	r2, #23
 272 003c FFF7FEFF 		bl	CyBle_StackInit
 273 0040 031C     		mov	r3, r0
 274 0042 2380     		strh	r3, [r4]
 330:.\Generated_Source\PSoC4/BLE.c **** 
 331:.\Generated_Source\PSoC4/BLE.c ****         if(apiResult == CYBLE_ERROR_OK)
 275              		.loc 1 331 0
 276 0044 3B1C     		mov	r3, r7
 277 0046 0E33     		add	r3, r3, #14
 278 0048 1B88     		ldrh	r3, [r3]
 279 004a 002B     		cmp	r3, #0
 280 004c 0CD1     		bne	.L7
 332:.\Generated_Source\PSoC4/BLE.c ****         {
 333:.\Generated_Source\PSoC4/BLE.c ****             CyBle_SetState(CYBLE_STATE_INITIALIZING);
 281              		.loc 1 333 0
 282 004e 0E4B     		ldr	r3, .L9+16
 283 0050 0122     		mov	r2, #1
 284 0052 1A70     		strb	r2, [r3]
 334:.\Generated_Source\PSoC4/BLE.c ****             
 335:.\Generated_Source\PSoC4/BLE.c ****         #if (CYBLE_GATT_ROLE_CLIENT)
 336:.\Generated_Source\PSoC4/BLE.c ****             CyBle_SetClientState(CYBLE_CLIENT_STATE_DISCONNECTED);
 337:.\Generated_Source\PSoC4/BLE.c ****         #endif /* CYBLE_GATT_ROLE_CLIENT */
 338:.\Generated_Source\PSoC4/BLE.c ****             
 339:.\Generated_Source\PSoC4/BLE.c ****         #if(CYBLE_GATT_ROLE_SERVER)
 340:.\Generated_Source\PSoC4/BLE.c ****             apiResult = CyBle_GattsDbRegister(cyBle_gattDB, CYBLE_GATT_DB_INDEX_COUNT, CYBLE_GATT_D
 285              		.loc 1 340 0
 286 0054 3C1C     		mov	r4, r7
 287 0056 0E34     		add	r4, r4, #14
ARM GAS  C:\Users\ENESDU~1\AppData\Local\Temp\ccTCHFTj.s 			page 12


 288 0058 0C4B     		ldr	r3, .L9+20
 289 005a 181C     		mov	r0, r3
 290 005c 2121     		mov	r1, #33
 291 005e 0922     		mov	r2, #9
 292 0060 FFF7FEFF 		bl	CyBle_GattsDbRegister
 293 0064 031C     		mov	r3, r0
 294 0066 2380     		strh	r3, [r4]
 295              	.L7:
 341:.\Generated_Source\PSoC4/BLE.c ****         #endif /* CYBLE_GATT_ROLE_SERVER */
 342:.\Generated_Source\PSoC4/BLE.c ****         }
 343:.\Generated_Source\PSoC4/BLE.c ****     }
 344:.\Generated_Source\PSoC4/BLE.c **** 
 345:.\Generated_Source\PSoC4/BLE.c ****     return (apiResult);
 296              		.loc 1 345 0
 297 0068 3B1C     		mov	r3, r7
 298 006a 0E33     		add	r3, r3, #14
 299 006c 1B88     		ldrh	r3, [r3]
 346:.\Generated_Source\PSoC4/BLE.c **** }
 300              		.loc 1 346 0
 301 006e 181C     		mov	r0, r3
 302 0070 BD46     		mov	sp, r7
 303 0072 05B0     		add	sp, sp, #20
 304              		@ sp needed
 305 0074 90BD     		pop	{r4, r7, pc}
 306              	.L10:
 307 0076 C046     		.align	2
 308              	.L9:
 309 0078 00000000 		.word	cyBle_initVar
 310 007c 00000000 		.word	CyBle_ApplCallback
 311 0080 00000000 		.word	CyBle_EventHandler
 312 0084 08000000 		.word	cyBle_stackMemoryRam.6017
 313 0088 00000000 		.word	cyBle_state
 314 008c 00000000 		.word	cyBle_gattDB
 315              		.cfi_endproc
 316              	.LFE4:
 317              		.size	CyBle_Start, .-CyBle_Start
 318              		.section	.text.CyBle_Stop,"ax",%progbits
 319              		.align	2
 320              		.global	CyBle_Stop
 321              		.code	16
 322              		.thumb_func
 323              		.type	CyBle_Stop, %function
 324              	CyBle_Stop:
 325              	.LFB5:
 347:.\Generated_Source\PSoC4/BLE.c **** 
 348:.\Generated_Source\PSoC4/BLE.c **** 
 349:.\Generated_Source\PSoC4/BLE.c **** /******************************************************************************
 350:.\Generated_Source\PSoC4/BLE.c **** ##Function Name: CyBle_Stop
 351:.\Generated_Source\PSoC4/BLE.c **** *******************************************************************************
 352:.\Generated_Source\PSoC4/BLE.c **** 
 353:.\Generated_Source\PSoC4/BLE.c **** Summary:
 354:.\Generated_Source\PSoC4/BLE.c ****  This function stops any ongoing operation in the BLE Stack and forces the 
 355:.\Generated_Source\PSoC4/BLE.c ****  BLE Stack to shut down. The only function that can be called after calling
 356:.\Generated_Source\PSoC4/BLE.c ****  this function is CyBle_Start(). 
 357:.\Generated_Source\PSoC4/BLE.c **** 
 358:.\Generated_Source\PSoC4/BLE.c **** Parameters:
 359:.\Generated_Source\PSoC4/BLE.c ****  None
ARM GAS  C:\Users\ENESDU~1\AppData\Local\Temp\ccTCHFTj.s 			page 13


 360:.\Generated_Source\PSoC4/BLE.c **** 
 361:.\Generated_Source\PSoC4/BLE.c **** Return:
 362:.\Generated_Source\PSoC4/BLE.c ****  None
 363:.\Generated_Source\PSoC4/BLE.c **** 
 364:.\Generated_Source\PSoC4/BLE.c **** ******************************************************************************/
 365:.\Generated_Source\PSoC4/BLE.c **** void CyBle_Stop(void)
 366:.\Generated_Source\PSoC4/BLE.c **** {
 326              		.loc 1 366 0
 327              		.cfi_startproc
 328 0000 80B5     		push	{r7, lr}
 329              		.cfi_def_cfa_offset 8
 330              		.cfi_offset 7, -8
 331              		.cfi_offset 14, -4
 332 0002 00AF     		add	r7, sp, #0
 333              		.cfi_def_cfa_register 7
 367:.\Generated_Source\PSoC4/BLE.c ****     CyBle_Shutdown(); /* stop all ongoing activities */
 334              		.loc 1 367 0
 335 0004 FFF7FEFF 		bl	CyBle_Shutdown
 368:.\Generated_Source\PSoC4/BLE.c ****     CyBle_ProcessEvents(); /* process all pending events */
 336              		.loc 1 368 0
 337 0008 FFF7FEFF 		bl	CyBle_ProcessEvents
 369:.\Generated_Source\PSoC4/BLE.c ****     CyBle_SetState(CYBLE_STATE_STOPPED);
 338              		.loc 1 369 0
 339 000c 024B     		ldr	r3, .L12
 340 000e 0022     		mov	r2, #0
 341 0010 1A70     		strb	r2, [r3]
 370:.\Generated_Source\PSoC4/BLE.c **** }
 342              		.loc 1 370 0
 343 0012 BD46     		mov	sp, r7
 344              		@ sp needed
 345 0014 80BD     		pop	{r7, pc}
 346              	.L13:
 347 0016 C046     		.align	2
 348              	.L12:
 349 0018 00000000 		.word	cyBle_state
 350              		.cfi_endproc
 351              	.LFE5:
 352              		.size	CyBle_Stop, .-CyBle_Stop
 353              		.section	.text.CyBle_GappStartAdvertisement,"ax",%progbits
 354              		.align	2
 355              		.global	CyBle_GappStartAdvertisement
 356              		.code	16
 357              		.thumb_func
 358              		.type	CyBle_GappStartAdvertisement, %function
 359              	CyBle_GappStartAdvertisement:
 360              	.LFB6:
 371:.\Generated_Source\PSoC4/BLE.c **** 
 372:.\Generated_Source\PSoC4/BLE.c **** 
 373:.\Generated_Source\PSoC4/BLE.c **** #if((CYBLE_GAP_ROLE_PERIPHERAL || CYBLE_GAP_ROLE_CENTRAL) && (CYBLE_BONDING_REQUIREMENT == CYBLE_BO
 374:.\Generated_Source\PSoC4/BLE.c **** 
 375:.\Generated_Source\PSoC4/BLE.c ****     
 376:.\Generated_Source\PSoC4/BLE.c **** /******************************************************************************
 377:.\Generated_Source\PSoC4/BLE.c **** ##Function Name: CyBle_StoreBondingData
 378:.\Generated_Source\PSoC4/BLE.c **** *******************************************************************************
 379:.\Generated_Source\PSoC4/BLE.c **** 
 380:.\Generated_Source\PSoC4/BLE.c **** Summary:
 381:.\Generated_Source\PSoC4/BLE.c ****  This function writes the new bonding data from RAM to the dedicated Flash 
ARM GAS  C:\Users\ENESDU~1\AppData\Local\Temp\ccTCHFTj.s 			page 14


 382:.\Generated_Source\PSoC4/BLE.c ****  location as defined by the component. It performs data comparing between RAM
 383:.\Generated_Source\PSoC4/BLE.c ****  and Flash before writing to Flash. If there is no change between RAM and Flash
 384:.\Generated_Source\PSoC4/BLE.c ****  data, then no write is performed. It writes only one flash row in one call.
 385:.\Generated_Source\PSoC4/BLE.c ****  Application should keep calling this function till API return CYBLE_ERROR_OK. 
 386:.\Generated_Source\PSoC4/BLE.c ****  This function is available only when Bonding requirement is selected in
 387:.\Generated_Source\PSoC4/BLE.c ****  Security settings.    
 388:.\Generated_Source\PSoC4/BLE.c ****     
 389:.\Generated_Source\PSoC4/BLE.c **** Parameters:
 390:.\Generated_Source\PSoC4/BLE.c ****  isForceWrite:  If value is set to 0, then stack will check if flash write 
 391:.\Generated_Source\PSoC4/BLE.c ****                 is permissible. 
 392:.\Generated_Source\PSoC4/BLE.c ****  
 393:.\Generated_Source\PSoC4/BLE.c **** Return:
 394:.\Generated_Source\PSoC4/BLE.c ****  Return value is of type CYBLE_API_RESULT_T.
 395:.\Generated_Source\PSoC4/BLE.c ****  * CYBLE_ERROR_OK - On successful operation
 396:.\Generated_Source\PSoC4/BLE.c ****  * CYBLE_ERROR_FLASH_WRITE_NOT_PERMITED - Flash Write is not complete
 397:.\Generated_Source\PSoC4/BLE.c ****    
 398:.\Generated_Source\PSoC4/BLE.c ****  Side Effects:
 399:.\Generated_Source\PSoC4/BLE.c ****   This API will automatically modify the clock settings for the device.
 400:.\Generated_Source\PSoC4/BLE.c ****   Writing to flash requires changes to be done to the IMO (set to 48 MHz)
 401:.\Generated_Source\PSoC4/BLE.c ****   and HFCLK (source set to IMO) settings. The configuration is restored before
 402:.\Generated_Source\PSoC4/BLE.c ****   returning. This will impact the operation of most of the hardware in the
 403:.\Generated_Source\PSoC4/BLE.c ****   device.
 404:.\Generated_Source\PSoC4/BLE.c **** 
 405:.\Generated_Source\PSoC4/BLE.c **** ******************************************************************************/
 406:.\Generated_Source\PSoC4/BLE.c **** CYBLE_API_RESULT_T CyBle_StoreBondingData(uint8 isForceWrite)
 407:.\Generated_Source\PSoC4/BLE.c **** {
 408:.\Generated_Source\PSoC4/BLE.c ****     CYBLE_API_RESULT_T apiResult = CYBLE_ERROR_OK;
 409:.\Generated_Source\PSoC4/BLE.c ****     
 410:.\Generated_Source\PSoC4/BLE.c ****     /* Store Stack data */
 411:.\Generated_Source\PSoC4/BLE.c ****     if((cyBle_pendingFlashWrite & CYBLE_PENDING_STACK_FLASH_WRITE_BIT) != 0u)
 412:.\Generated_Source\PSoC4/BLE.c ****     {
 413:.\Generated_Source\PSoC4/BLE.c ****         apiResult = CyBle_StoreStackData(isForceWrite);
 414:.\Generated_Source\PSoC4/BLE.c ****         if(apiResult == CYBLE_ERROR_OK)
 415:.\Generated_Source\PSoC4/BLE.c ****         {
 416:.\Generated_Source\PSoC4/BLE.c ****             cyBle_pendingFlashWrite &= (uint8)~CYBLE_PENDING_STACK_FLASH_WRITE_BIT;
 417:.\Generated_Source\PSoC4/BLE.c ****             /* Change apiResult if there are more pending data to store */
 418:.\Generated_Source\PSoC4/BLE.c ****             if((cyBle_pendingFlashWrite & CYBLE_PENDING_CCCD_FLASH_WRITE_BIT) != 0u)
 419:.\Generated_Source\PSoC4/BLE.c ****             {
 420:.\Generated_Source\PSoC4/BLE.c ****                 apiResult = CYBLE_ERROR_FLASH_WRITE_NOT_PERMITED;
 421:.\Generated_Source\PSoC4/BLE.c ****             }
 422:.\Generated_Source\PSoC4/BLE.c ****         }
 423:.\Generated_Source\PSoC4/BLE.c ****     }
 424:.\Generated_Source\PSoC4/BLE.c **** #if(CYBLE_GATT_DB_CCCD_COUNT != 0u)
 425:.\Generated_Source\PSoC4/BLE.c ****     /* Store CCCD values */
 426:.\Generated_Source\PSoC4/BLE.c ****     if( ((apiResult == CYBLE_ERROR_OK) || (isForceWrite != 0u)) && 
 427:.\Generated_Source\PSoC4/BLE.c ****         ((cyBle_pendingFlashWrite & CYBLE_PENDING_CCCD_FLASH_WRITE_BIT) != 0u) &&
 428:.\Generated_Source\PSoC4/BLE.c ****         (cyBle_connHandle.bdHandle <= CYBLE_GAP_MAX_BONDED_DEVICE))
 429:.\Generated_Source\PSoC4/BLE.c ****     {
 430:.\Generated_Source\PSoC4/BLE.c ****         apiResult = CyBle_StoreAppData(cyBle_attValuesCCCD, cyBle_attValuesCCCDFlashMemory[cyBle_co
 431:.\Generated_Source\PSoC4/BLE.c ****                                        CYBLE_GATT_DB_CCCD_COUNT, isForceWrite);
 432:.\Generated_Source\PSoC4/BLE.c ****         if(apiResult == CYBLE_ERROR_OK)
 433:.\Generated_Source\PSoC4/BLE.c ****         {
 434:.\Generated_Source\PSoC4/BLE.c ****             cyBle_pendingFlashWrite &= (uint8)~CYBLE_PENDING_CCCD_FLASH_WRITE_BIT;
 435:.\Generated_Source\PSoC4/BLE.c ****         }
 436:.\Generated_Source\PSoC4/BLE.c ****     }
 437:.\Generated_Source\PSoC4/BLE.c **** #endif /* CYBLE_GATT_DB_CCCD_COUNT != 0u */
 438:.\Generated_Source\PSoC4/BLE.c ****     return(apiResult);
ARM GAS  C:\Users\ENESDU~1\AppData\Local\Temp\ccTCHFTj.s 			page 15


 439:.\Generated_Source\PSoC4/BLE.c **** }
 440:.\Generated_Source\PSoC4/BLE.c **** 
 441:.\Generated_Source\PSoC4/BLE.c **** 
 442:.\Generated_Source\PSoC4/BLE.c **** #endif /* (CYBLE_GAP_ROLE_PERIPHERAL || CYBLE_GAP_ROLE_CENTRAL) && (CYBLE_BONDING_REQUIREMENT == CY
 443:.\Generated_Source\PSoC4/BLE.c **** 
 444:.\Generated_Source\PSoC4/BLE.c **** 
 445:.\Generated_Source\PSoC4/BLE.c **** #if(CYBLE_GAP_ROLE_PERIPHERAL || CYBLE_GAP_ROLE_BROADCASTER)
 446:.\Generated_Source\PSoC4/BLE.c **** 
 447:.\Generated_Source\PSoC4/BLE.c ****     /******************************************************************************
 448:.\Generated_Source\PSoC4/BLE.c ****     ##Function Name: CyBle_GappStartAdvertisement
 449:.\Generated_Source\PSoC4/BLE.c ****     *******************************************************************************
 450:.\Generated_Source\PSoC4/BLE.c ****     
 451:.\Generated_Source\PSoC4/BLE.c ****     Summary:
 452:.\Generated_Source\PSoC4/BLE.c ****      This function is used to start the advertisement using the advertisement data 
 453:.\Generated_Source\PSoC4/BLE.c ****      set in the component customizer's GUI. After invoking this API, the device 
 454:.\Generated_Source\PSoC4/BLE.c ****      will be available for connection by the devices configured for GAP central 
 455:.\Generated_Source\PSoC4/BLE.c ****      role. It is only included if the device is configured for GAP Peripheral or 
 456:.\Generated_Source\PSoC4/BLE.c ****      GAP Peripheral + Central role.
 457:.\Generated_Source\PSoC4/BLE.c ****      
 458:.\Generated_Source\PSoC4/BLE.c ****      On start of advertisement, GAP Peripheral receives the
 459:.\Generated_Source\PSoC4/BLE.c ****      CYBLE_EVT_GAPP_ADVERTISEMENT_START_STOP event. The following events are 
 460:.\Generated_Source\PSoC4/BLE.c ****      possible on invoking this function:
 461:.\Generated_Source\PSoC4/BLE.c ****      
 462:.\Generated_Source\PSoC4/BLE.c ****      * CYBLE_EVT_GAP_DEVICE_CONNECTED: If the device connects to remote GAP 
 463:.\Generated_Source\PSoC4/BLE.c ****                                          Central device
 464:.\Generated_Source\PSoC4/BLE.c ****      * CYBLE_EVT_TIMEOUT: If no device in GAP Central mode connects to this 
 465:.\Generated_Source\PSoC4/BLE.c ****                           device within the specified timeout limit. Stack 
 466:.\Generated_Source\PSoC4/BLE.c ****                           automatically initiate stop advertising when Slow 
 467:.\Generated_Source\PSoC4/BLE.c ****                           advertising was initiated, or starts Slow advertising
 468:.\Generated_Source\PSoC4/BLE.c ****                           after Fast advertising timeout occur.
 469:.\Generated_Source\PSoC4/BLE.c ****      * CYBLE_EVT_GAPP_ADVERTISEMENT_START_STOP: If device started or stopped
 470:.\Generated_Source\PSoC4/BLE.c ****                                                   advertising. Use CyBle_GetState()
 471:.\Generated_Source\PSoC4/BLE.c ****                                                   to determine the state. Sequential 
 472:.\Generated_Source\PSoC4/BLE.c ****                                                   advertising could be started when
 473:.\Generated_Source\PSoC4/BLE.c ****                                                   CYBLE_STATE_DISCONNECTED state is
 474:.\Generated_Source\PSoC4/BLE.c ****                                                   returned.
 475:.\Generated_Source\PSoC4/BLE.c **** 
 476:.\Generated_Source\PSoC4/BLE.c ****     Parameters:
 477:.\Generated_Source\PSoC4/BLE.c ****      uint8 advertisingIntervalType: Fast or slow advertising interval with timings
 478:.\Generated_Source\PSoC4/BLE.c ****                                     entered in Advertising settings section of the
 479:.\Generated_Source\PSoC4/BLE.c ****                                     customizer.
 480:.\Generated_Source\PSoC4/BLE.c ****      * CYBLE_ADVERTISING_FAST   0x00u
 481:.\Generated_Source\PSoC4/BLE.c ****      * CYBLE_ADVERTISING_SLOW   0x01u
 482:.\Generated_Source\PSoC4/BLE.c ****      * CYBLE_ADVERTISING_CUSTOM 0x02u
 483:.\Generated_Source\PSoC4/BLE.c ****     
 484:.\Generated_Source\PSoC4/BLE.c ****     Return:
 485:.\Generated_Source\PSoC4/BLE.c ****      CYBLE_API_RESULT_T : Return value indicates if the function succeeded or
 486:.\Generated_Source\PSoC4/BLE.c ****      failed. Following are the possible error codes.
 487:.\Generated_Source\PSoC4/BLE.c ****      <table>
 488:.\Generated_Source\PSoC4/BLE.c ****       Errors codes                        Description
 489:.\Generated_Source\PSoC4/BLE.c ****       ------------                        -----------
 490:.\Generated_Source\PSoC4/BLE.c ****       CYBLE_ERROR_OK                      On successful operation.
 491:.\Generated_Source\PSoC4/BLE.c ****       CYBLE_ERROR_INVALID_PARAMETER       On passing an invalid parameter.
 492:.\Generated_Source\PSoC4/BLE.c ****      </table>
 493:.\Generated_Source\PSoC4/BLE.c ****     
 494:.\Generated_Source\PSoC4/BLE.c ****     ******************************************************************************/
 495:.\Generated_Source\PSoC4/BLE.c ****     CYBLE_API_RESULT_T CyBle_GappStartAdvertisement(uint8 advertisingIntervalType)
ARM GAS  C:\Users\ENESDU~1\AppData\Local\Temp\ccTCHFTj.s 			page 16


 496:.\Generated_Source\PSoC4/BLE.c ****     {
 361              		.loc 1 496 0
 362              		.cfi_startproc
 363 0000 90B5     		push	{r4, r7, lr}
 364              		.cfi_def_cfa_offset 12
 365              		.cfi_offset 4, -12
 366              		.cfi_offset 7, -8
 367              		.cfi_offset 14, -4
 368 0002 85B0     		sub	sp, sp, #20
 369              		.cfi_def_cfa_offset 32
 370 0004 00AF     		add	r7, sp, #0
 371              		.cfi_def_cfa_register 7
 372 0006 021C     		mov	r2, r0
 373 0008 FB1D     		add	r3, r7, #7
 374 000a 1A70     		strb	r2, [r3]
 497:.\Generated_Source\PSoC4/BLE.c ****         CYBLE_API_RESULT_T apiResult;
 498:.\Generated_Source\PSoC4/BLE.c ****         
 499:.\Generated_Source\PSoC4/BLE.c ****         if((CYBLE_STATE_DISCONNECTED == CyBle_GetState()) && ((cyBle_eventHandlerFlag & CYBLE_START
 375              		.loc 1 499 0
 376 000c 294B     		ldr	r3, .L21
 377 000e 1B78     		ldrb	r3, [r3]
 378 0010 042B     		cmp	r3, #4
 379 0012 42D1     		bne	.L15
 380              		.loc 1 499 0 is_stmt 0 discriminator 1
 381 0014 284B     		ldr	r3, .L21+4
 382 0016 1B78     		ldrb	r3, [r3]
 383 0018 DBB2     		uxtb	r3, r3
 384 001a 1A1C     		mov	r2, r3
 385 001c 0423     		mov	r3, #4
 386 001e 1340     		and	r3, r2
 387 0020 3BD1     		bne	.L15
 500:.\Generated_Source\PSoC4/BLE.c ****         {   
 501:.\Generated_Source\PSoC4/BLE.c ****             if(advertisingIntervalType == CYBLE_ADVERTISING_FAST)
 388              		.loc 1 501 0 is_stmt 1
 389 0022 FB1D     		add	r3, r7, #7
 390 0024 1B78     		ldrb	r3, [r3]
 391 0026 002B     		cmp	r3, #0
 392 0028 0BD1     		bne	.L16
 502:.\Generated_Source\PSoC4/BLE.c ****             {
 503:.\Generated_Source\PSoC4/BLE.c ****                 cyBle_discoveryModeInfo.advTo = CYBLE_FAST_ADV_TIMEOUT;
 393              		.loc 1 503 0
 394 002a 244B     		ldr	r3, .L21+8
 395 002c 1E22     		mov	r2, #30
 396 002e 1A82     		strh	r2, [r3, #16]
 504:.\Generated_Source\PSoC4/BLE.c ****                 cyBle_discoveryModeInfo.advParam->advIntvMin = CYBLE_FAST_ADV_INT_MIN;
 397              		.loc 1 504 0
 398 0030 224B     		ldr	r3, .L21+8
 399 0032 5B68     		ldr	r3, [r3, #4]
 400 0034 2022     		mov	r2, #32
 401 0036 1A80     		strh	r2, [r3]
 505:.\Generated_Source\PSoC4/BLE.c ****                 cyBle_discoveryModeInfo.advParam->advIntvMax = CYBLE_FAST_ADV_INT_MAX;
 402              		.loc 1 505 0
 403 0038 204B     		ldr	r3, .L21+8
 404 003a 5B68     		ldr	r3, [r3, #4]
 405 003c 3022     		mov	r2, #48
 406 003e 5A80     		strh	r2, [r3, #2]
 407 0040 10E0     		b	.L17
ARM GAS  C:\Users\ENESDU~1\AppData\Local\Temp\ccTCHFTj.s 			page 17


 408              	.L16:
 506:.\Generated_Source\PSoC4/BLE.c ****             }
 507:.\Generated_Source\PSoC4/BLE.c ****             else if(advertisingIntervalType == CYBLE_ADVERTISING_SLOW)
 409              		.loc 1 507 0
 410 0042 FB1D     		add	r3, r7, #7
 411 0044 1B78     		ldrb	r3, [r3]
 412 0046 012B     		cmp	r3, #1
 413 0048 0CD1     		bne	.L17
 508:.\Generated_Source\PSoC4/BLE.c ****             {
 509:.\Generated_Source\PSoC4/BLE.c ****                 cyBle_discoveryModeInfo.advTo = CYBLE_SLOW_ADV_TIMEOUT;
 414              		.loc 1 509 0
 415 004a 1C4B     		ldr	r3, .L21+8
 416 004c 9622     		mov	r2, #150
 417 004e 1A82     		strh	r2, [r3, #16]
 510:.\Generated_Source\PSoC4/BLE.c ****                 cyBle_discoveryModeInfo.advParam->advIntvMin = CYBLE_SLOW_ADV_INT_MIN;
 418              		.loc 1 510 0
 419 0050 1A4B     		ldr	r3, .L21+8
 420 0052 5B68     		ldr	r3, [r3, #4]
 421 0054 C822     		mov	r2, #200
 422 0056 D200     		lsl	r2, r2, #3
 423 0058 1A80     		strh	r2, [r3]
 511:.\Generated_Source\PSoC4/BLE.c ****                 cyBle_discoveryModeInfo.advParam->advIntvMax = CYBLE_SLOW_ADV_INT_MAX;
 424              		.loc 1 511 0
 425 005a 184B     		ldr	r3, .L21+8
 426 005c 5B68     		ldr	r3, [r3, #4]
 427 005e 8022     		mov	r2, #128
 428 0060 D201     		lsl	r2, r2, #7
 429 0062 5A80     		strh	r2, [r3, #2]
 430              	.L17:
 512:.\Generated_Source\PSoC4/BLE.c ****             }       
 513:.\Generated_Source\PSoC4/BLE.c ****             else /* Do not update advertising intervals */
 514:.\Generated_Source\PSoC4/BLE.c ****             {
 515:.\Generated_Source\PSoC4/BLE.c ****             }
 516:.\Generated_Source\PSoC4/BLE.c ****             cyBle_advertisingIntervalType = advertisingIntervalType;
 431              		.loc 1 516 0
 432 0064 164B     		ldr	r3, .L21+12
 433 0066 FA1D     		add	r2, r7, #7
 434 0068 1278     		ldrb	r2, [r2]
 435 006a 1A70     		strb	r2, [r3]
 517:.\Generated_Source\PSoC4/BLE.c ****             apiResult = CyBle_GappEnterDiscoveryMode(&cyBle_discoveryModeInfo);
 436              		.loc 1 517 0
 437 006c 3C1C     		mov	r4, r7
 438 006e 0E34     		add	r4, r4, #14
 439 0070 124B     		ldr	r3, .L21+8
 440 0072 181C     		mov	r0, r3
 441 0074 FFF7FEFF 		bl	CyBle_GappEnterDiscoveryMode
 442 0078 031C     		mov	r3, r0
 443 007a 2380     		strh	r3, [r4]
 518:.\Generated_Source\PSoC4/BLE.c ****         
 519:.\Generated_Source\PSoC4/BLE.c ****             if(CYBLE_ERROR_OK == apiResult)
 444              		.loc 1 519 0
 445 007c 3B1C     		mov	r3, r7
 446 007e 0E33     		add	r3, r3, #14
 447 0080 1B88     		ldrh	r3, [r3]
 448 0082 002B     		cmp	r3, #0
 449 0084 08D1     		bne	.L18
 520:.\Generated_Source\PSoC4/BLE.c ****             {
ARM GAS  C:\Users\ENESDU~1\AppData\Local\Temp\ccTCHFTj.s 			page 18


 521:.\Generated_Source\PSoC4/BLE.c ****                 cyBle_eventHandlerFlag |= CYBLE_START_FLAG;
 450              		.loc 1 521 0
 451 0086 0C4B     		ldr	r3, .L21+4
 452 0088 1B78     		ldrb	r3, [r3]
 453 008a DBB2     		uxtb	r3, r3
 454 008c 0422     		mov	r2, #4
 455 008e 1343     		orr	r3, r2
 456 0090 DAB2     		uxtb	r2, r3
 457 0092 094B     		ldr	r3, .L21+4
 458 0094 1A70     		strb	r2, [r3]
 519:.\Generated_Source\PSoC4/BLE.c ****             if(CYBLE_ERROR_OK == apiResult)
 459              		.loc 1 519 0
 460 0096 05E0     		b	.L19
 461              	.L18:
 519:.\Generated_Source\PSoC4/BLE.c ****             if(CYBLE_ERROR_OK == apiResult)
 462              		.loc 1 519 0 is_stmt 0 discriminator 1
 463 0098 04E0     		b	.L19
 464              	.L15:
 522:.\Generated_Source\PSoC4/BLE.c ****             }
 523:.\Generated_Source\PSoC4/BLE.c ****         }
 524:.\Generated_Source\PSoC4/BLE.c ****         else
 525:.\Generated_Source\PSoC4/BLE.c ****         {
 526:.\Generated_Source\PSoC4/BLE.c ****             apiResult = CYBLE_ERROR_INVALID_STATE;
 465              		.loc 1 526 0 is_stmt 1
 466 009a 3B1C     		mov	r3, r7
 467 009c 0E33     		add	r3, r3, #14
 468 009e 8322     		mov	r2, #131
 469 00a0 5200     		lsl	r2, r2, #1
 470 00a2 1A80     		strh	r2, [r3]
 471              	.L19:
 527:.\Generated_Source\PSoC4/BLE.c ****         }
 528:.\Generated_Source\PSoC4/BLE.c **** 
 529:.\Generated_Source\PSoC4/BLE.c ****         return (apiResult);
 472              		.loc 1 529 0
 473 00a4 3B1C     		mov	r3, r7
 474 00a6 0E33     		add	r3, r3, #14
 475 00a8 1B88     		ldrh	r3, [r3]
 530:.\Generated_Source\PSoC4/BLE.c ****     }
 476              		.loc 1 530 0
 477 00aa 181C     		mov	r0, r3
 478 00ac BD46     		mov	sp, r7
 479 00ae 05B0     		add	sp, sp, #20
 480              		@ sp needed
 481 00b0 90BD     		pop	{r4, r7, pc}
 482              	.L22:
 483 00b2 C046     		.align	2
 484              	.L21:
 485 00b4 00000000 		.word	cyBle_state
 486 00b8 00000000 		.word	cyBle_eventHandlerFlag
 487 00bc 00000000 		.word	cyBle_discoveryModeInfo
 488 00c0 00000000 		.word	cyBle_advertisingIntervalType
 489              		.cfi_endproc
 490              	.LFE6:
 491              		.size	CyBle_GappStartAdvertisement, .-CyBle_GappStartAdvertisement
 492              		.section	.text.CyBle_GappStopAdvertisement,"ax",%progbits
 493              		.align	2
 494              		.global	CyBle_GappStopAdvertisement
ARM GAS  C:\Users\ENESDU~1\AppData\Local\Temp\ccTCHFTj.s 			page 19


 495              		.code	16
 496              		.thumb_func
 497              		.type	CyBle_GappStopAdvertisement, %function
 498              	CyBle_GappStopAdvertisement:
 499              	.LFB7:
 531:.\Generated_Source\PSoC4/BLE.c **** 
 532:.\Generated_Source\PSoC4/BLE.c ****     
 533:.\Generated_Source\PSoC4/BLE.c ****     /******************************************************************************
 534:.\Generated_Source\PSoC4/BLE.c ****     ##Function Name: CyBle_GappStopAdvertisement
 535:.\Generated_Source\PSoC4/BLE.c ****     *******************************************************************************
 536:.\Generated_Source\PSoC4/BLE.c ****     
 537:.\Generated_Source\PSoC4/BLE.c ****      Summary:
 538:.\Generated_Source\PSoC4/BLE.c ****       This function can be used to exit from discovery mode. After the execution 
 539:.\Generated_Source\PSoC4/BLE.c ****       of this function, there will no longer be any advertisements. On stopping 
 540:.\Generated_Source\PSoC4/BLE.c ****       advertising, GAP Peripheral receives CYBLE_EVT_GAPP_ADVERTISEMENT_START_STOP
 541:.\Generated_Source\PSoC4/BLE.c ****       event. It is expected that the application layer tracks the function call 
 542:.\Generated_Source\PSoC4/BLE.c ****       performed before occurrence of this event as this event can occur on making 
 543:.\Generated_Source\PSoC4/BLE.c ****       a call to Cy_BleGappStartAdvertisement(), CyBle_GappEnterDiscoveryMode(), 
 544:.\Generated_Source\PSoC4/BLE.c ****       or CyBle_GappStartAdvertisement() functions as well.
 545:.\Generated_Source\PSoC4/BLE.c ****       
 546:.\Generated_Source\PSoC4/BLE.c ****       The following event occurs on invoking this function:
 547:.\Generated_Source\PSoC4/BLE.c ****       * CYBLE_EVT_GAPP_ADVERTISEMENT_START_STOP
 548:.\Generated_Source\PSoC4/BLE.c ****     
 549:.\Generated_Source\PSoC4/BLE.c ****      Parameters:
 550:.\Generated_Source\PSoC4/BLE.c ****       None
 551:.\Generated_Source\PSoC4/BLE.c ****     
 552:.\Generated_Source\PSoC4/BLE.c ****      Return:
 553:.\Generated_Source\PSoC4/BLE.c ****       None
 554:.\Generated_Source\PSoC4/BLE.c ****     
 555:.\Generated_Source\PSoC4/BLE.c ****     ******************************************************************************/
 556:.\Generated_Source\PSoC4/BLE.c ****     void CyBle_GappStopAdvertisement(void)
 557:.\Generated_Source\PSoC4/BLE.c ****     {
 500              		.loc 1 557 0
 501              		.cfi_startproc
 502 0000 80B5     		push	{r7, lr}
 503              		.cfi_def_cfa_offset 8
 504              		.cfi_offset 7, -8
 505              		.cfi_offset 14, -4
 506 0002 00AF     		add	r7, sp, #0
 507              		.cfi_def_cfa_register 7
 558:.\Generated_Source\PSoC4/BLE.c ****         CyBle_GappExitDiscoveryMode();
 508              		.loc 1 558 0
 509 0004 FFF7FEFF 		bl	CyBle_GappExitDiscoveryMode
 559:.\Generated_Source\PSoC4/BLE.c ****         cyBle_eventHandlerFlag |= CYBLE_STOP_FLAG;
 510              		.loc 1 559 0
 511 0008 044B     		ldr	r3, .L24
 512 000a 1B78     		ldrb	r3, [r3]
 513 000c DBB2     		uxtb	r3, r3
 514 000e 0822     		mov	r2, #8
 515 0010 1343     		orr	r3, r2
 516 0012 DAB2     		uxtb	r2, r3
 517 0014 014B     		ldr	r3, .L24
 518 0016 1A70     		strb	r2, [r3]
 560:.\Generated_Source\PSoC4/BLE.c ****     }
 519              		.loc 1 560 0
 520 0018 BD46     		mov	sp, r7
 521              		@ sp needed
ARM GAS  C:\Users\ENESDU~1\AppData\Local\Temp\ccTCHFTj.s 			page 20


 522 001a 80BD     		pop	{r7, pc}
 523              	.L25:
 524              		.align	2
 525              	.L24:
 526 001c 00000000 		.word	cyBle_eventHandlerFlag
 527              		.cfi_endproc
 528              	.LFE7:
 529              		.size	CyBle_GappStopAdvertisement, .-CyBle_GappStopAdvertisement
 530              		.section	.text.CyBle_ChangeAdLocalName,"ax",%progbits
 531              		.align	2
 532              		.code	16
 533              		.thumb_func
 534              		.type	CyBle_ChangeAdLocalName, %function
 535              	CyBle_ChangeAdLocalName:
 536              	.LFB8:
 561:.\Generated_Source\PSoC4/BLE.c ****     
 562:.\Generated_Source\PSoC4/BLE.c **** #endif /* CYBLE_GAP_ROLE_PERIPHERAL || CYBLE_GAP_ROLE_BROADCASTER */
 563:.\Generated_Source\PSoC4/BLE.c **** 
 564:.\Generated_Source\PSoC4/BLE.c **** 
 565:.\Generated_Source\PSoC4/BLE.c **** #if(CYBLE_GAP_ROLE_CENTRAL || CYBLE_GAP_ROLE_OBSERVER)
 566:.\Generated_Source\PSoC4/BLE.c **** 
 567:.\Generated_Source\PSoC4/BLE.c ****     /******************************************************************************
 568:.\Generated_Source\PSoC4/BLE.c ****     ##Function Name: CyBle_GapcStartScan
 569:.\Generated_Source\PSoC4/BLE.c ****     *******************************************************************************
 570:.\Generated_Source\PSoC4/BLE.c ****     
 571:.\Generated_Source\PSoC4/BLE.c ****      Summary:
 572:.\Generated_Source\PSoC4/BLE.c ****       This function is used for discovering GAP peripheral devices that are 
 573:.\Generated_Source\PSoC4/BLE.c ****       available for connection. It performs the scanning routine using the 
 574:.\Generated_Source\PSoC4/BLE.c ****       parameters entered in the component's customizer.
 575:.\Generated_Source\PSoC4/BLE.c ****       
 576:.\Generated_Source\PSoC4/BLE.c ****       As soon as the discovery operation starts, CYBLE_EVT_GAPC_SCAN_START_STOP 
 577:.\Generated_Source\PSoC4/BLE.c ****       event is generated. The CYBLE_EVT_GAPC_SCAN_PROGRESS_RESULT event is 
 578:.\Generated_Source\PSoC4/BLE.c ****       generated when a GAP peripheral device is located. There are three discovery
 579:.\Generated_Source\PSoC4/BLE.c ****       procedures can be selected in the customizer's GUI:
 580:.\Generated_Source\PSoC4/BLE.c ****       
 581:.\Generated_Source\PSoC4/BLE.c ****       * Observation procedure: A device performing the observer role receives only
 582:.\Generated_Source\PSoC4/BLE.c ****                                advertisement data from devices irrespective of 
 583:.\Generated_Source\PSoC4/BLE.c ****                                their discoverable mode settings. Advertisement 
 584:.\Generated_Source\PSoC4/BLE.c ****                                data received is provided by the event,      
 585:.\Generated_Source\PSoC4/BLE.c ****                                CYBLE_EVT_GAPC_SCAN_PROGRESS_RESULT. This procedure
 586:.\Generated_Source\PSoC4/BLE.c ****                                requires the scanType sub parameter to be passive
 587:.\Generated_Source\PSoC4/BLE.c ****                                scanning. 
 588:.\Generated_Source\PSoC4/BLE.c ****       
 589:.\Generated_Source\PSoC4/BLE.c ****       * Limited Discovery procedure: A device performing the limited discovery
 590:.\Generated_Source\PSoC4/BLE.c ****                                      procedure receives advertisement data and 
 591:.\Generated_Source\PSoC4/BLE.c ****                                      scan# response data from devices in the 
 592:.\Generated_Source\PSoC4/BLE.c ****                                      limited discoverable mode only. Received data
 593:.\Generated_Source\PSoC4/BLE.c ****                                      is provided by the event, 
 594:.\Generated_Source\PSoC4/BLE.c ****                                      CYBLE_EVT_GAPC_SCAN_PROGRESS_RESULT. This 
 595:.\Generated_Source\PSoC4/BLE.c ****                                      procedure requires the scanType sub-parameter 
 596:.\Generated_Source\PSoC4/BLE.c ****                                      to be active scanning.
 597:.\Generated_Source\PSoC4/BLE.c ****       
 598:.\Generated_Source\PSoC4/BLE.c ****       * General Discovery procedure: A device performing the general discovery 
 599:.\Generated_Source\PSoC4/BLE.c ****                                      procedure receives the advertisement data and
 600:.\Generated_Source\PSoC4/BLE.c ****                                      scan response data from devices in both 
 601:.\Generated_Source\PSoC4/BLE.c ****                                      limited discoverable mode and the general 
 602:.\Generated_Source\PSoC4/BLE.c ****                                      discoverable mode. Received data is provided
ARM GAS  C:\Users\ENESDU~1\AppData\Local\Temp\ccTCHFTj.s 			page 21


 603:.\Generated_Source\PSoC4/BLE.c ****                                      by the event,
 604:.\Generated_Source\PSoC4/BLE.c ****                                      CYBLE_EVT_GAPC_SCAN_PROGRESS_RESULT. This 
 605:.\Generated_Source\PSoC4/BLE.c ****                                      procedure requires the scanType sub-parameter
 606:.\Generated_Source\PSoC4/BLE.c ****                                      to be active scanning.
 607:.\Generated_Source\PSoC4/BLE.c ****       
 608:.\Generated_Source\PSoC4/BLE.c ****       Every Advertisement / Scan response packet received results in a new event, 
 609:.\Generated_Source\PSoC4/BLE.c ****       CYBLE_EVT_GAPC_SCAN_PROGRESS_RESULT.
 610:.\Generated_Source\PSoC4/BLE.c ****       If 'scanTo' sub-parameter is a non-zero value, then upon commencement of 
 611:.\Generated_Source\PSoC4/BLE.c ****       discovery procedure and elapsed time = 'scanTo', CYBLE_EVT_TIMEOUT event
 612:.\Generated_Source\PSoC4/BLE.c ****       is generated with the event parameter indicating CYBLE_GAP_SCAN_TO.
 613:.\Generated_Source\PSoC4/BLE.c ****       Possible generated events are:
 614:.\Generated_Source\PSoC4/BLE.c ****       * CYBLE_EVT_GAPC_SCAN_START_STOP: If a device started or stopped scanning. 
 615:.\Generated_Source\PSoC4/BLE.c ****                                         Use CyBle_GetState() to determine the 
 616:.\Generated_Source\PSoC4/BLE.c ****                                         state. Sequential scanning could be 
 617:.\Generated_Source\PSoC4/BLE.c ****                                         started when CYBLE_STATE_DISCONNECTED 
 618:.\Generated_Source\PSoC4/BLE.c ****                                         state is returned. 
 619:.\Generated_Source\PSoC4/BLE.c ****       * CYBLE_EVT_GAPC_SCAN_PROGRESS_RESULT 
 620:.\Generated_Source\PSoC4/BLE.c ****       * CYBLE_EVT_TIMEOUT (CYBLE_GAP_SCAN_TO)
 621:.\Generated_Source\PSoC4/BLE.c ****     
 622:.\Generated_Source\PSoC4/BLE.c ****      Parameters:
 623:.\Generated_Source\PSoC4/BLE.c ****       uint8 scanningIntervalType:  Fast or slow scanning interval with
 624:.\Generated_Source\PSoC4/BLE.c ****           timings entered in Scan settings section of the customiser.
 625:.\Generated_Source\PSoC4/BLE.c ****     	  * CYBLE_SCANNING_FAST   0x00u
 626:.\Generated_Source\PSoC4/BLE.c ****     	  * CYBLE_SCANNING_SLOW   0x01u
 627:.\Generated_Source\PSoC4/BLE.c ****     	  * CYBLE_SCANNING_CUSTOM 0x02u
 628:.\Generated_Source\PSoC4/BLE.c ****     
 629:.\Generated_Source\PSoC4/BLE.c ****     Return:
 630:.\Generated_Source\PSoC4/BLE.c ****      CYBLE_API_RESULT_T : Return value indicates if the function succeeded or
 631:.\Generated_Source\PSoC4/BLE.c ****      failed. Following are the possible error codes.
 632:.\Generated_Source\PSoC4/BLE.c ****      <table>
 633:.\Generated_Source\PSoC4/BLE.c ****       Errors codes                        Values  Description
 634:.\Generated_Source\PSoC4/BLE.c ****       ------------                        ------  -----------
 635:.\Generated_Source\PSoC4/BLE.c ****       CYBLE_ERROR_OK                      0x0000  On successful operation.
 636:.\Generated_Source\PSoC4/BLE.c ****       CYBLE_ERROR_STACK_INTERNAL          0x0003  An error occurred in the 
 637:.\Generated_Source\PSoC4/BLE.c ****                                                    BLE stack.
 638:.\Generated_Source\PSoC4/BLE.c ****      </table>
 639:.\Generated_Source\PSoC4/BLE.c ****      
 640:.\Generated_Source\PSoC4/BLE.c ****     ******************************************************************************/
 641:.\Generated_Source\PSoC4/BLE.c ****     CYBLE_API_RESULT_T CyBle_GapcStartScan(uint8 scanningIntervalType)
 642:.\Generated_Source\PSoC4/BLE.c ****     {
 643:.\Generated_Source\PSoC4/BLE.c ****         CYBLE_API_RESULT_T apiResult;
 644:.\Generated_Source\PSoC4/BLE.c **** 
 645:.\Generated_Source\PSoC4/BLE.c ****         if(scanningIntervalType == CYBLE_SCANNING_FAST)
 646:.\Generated_Source\PSoC4/BLE.c ****         {
 647:.\Generated_Source\PSoC4/BLE.c ****             cyBle_discoveryInfo.scanTo = CYBLE_FAST_SCAN_TIMEOUT;
 648:.\Generated_Source\PSoC4/BLE.c ****             cyBle_discoveryInfo.scanIntv = CYBLE_FAST_SCAN_INTERVAL;
 649:.\Generated_Source\PSoC4/BLE.c ****             cyBle_discoveryInfo.scanWindow = CYBLE_FAST_SCAN_WINDOW;
 650:.\Generated_Source\PSoC4/BLE.c ****         }
 651:.\Generated_Source\PSoC4/BLE.c ****         else if(scanningIntervalType == CYBLE_SCANNING_SLOW)
 652:.\Generated_Source\PSoC4/BLE.c ****         {
 653:.\Generated_Source\PSoC4/BLE.c ****             cyBle_discoveryInfo.scanTo = CYBLE_SLOW_SCAN_TIMEOUT;
 654:.\Generated_Source\PSoC4/BLE.c ****             cyBle_discoveryInfo.scanIntv = CYBLE_SLOW_SCAN_INTERVAL;
 655:.\Generated_Source\PSoC4/BLE.c ****             cyBle_discoveryInfo.scanWindow = CYBLE_SLOW_SCAN_WINDOW;
 656:.\Generated_Source\PSoC4/BLE.c ****         }       
 657:.\Generated_Source\PSoC4/BLE.c ****         else /* Do not update scanning intervals */
 658:.\Generated_Source\PSoC4/BLE.c ****         {
 659:.\Generated_Source\PSoC4/BLE.c ****         }
ARM GAS  C:\Users\ENESDU~1\AppData\Local\Temp\ccTCHFTj.s 			page 22


 660:.\Generated_Source\PSoC4/BLE.c ****         
 661:.\Generated_Source\PSoC4/BLE.c ****         cyBle_scanningIntervalType = scanningIntervalType;
 662:.\Generated_Source\PSoC4/BLE.c ****         apiResult = CyBle_GapcStartDiscovery(&cyBle_discoveryInfo);
 663:.\Generated_Source\PSoC4/BLE.c ****     
 664:.\Generated_Source\PSoC4/BLE.c ****         if(CYBLE_ERROR_OK == apiResult)
 665:.\Generated_Source\PSoC4/BLE.c ****         {
 666:.\Generated_Source\PSoC4/BLE.c ****             cyBle_eventHandlerFlag |= CYBLE_START_FLAG;
 667:.\Generated_Source\PSoC4/BLE.c ****         }
 668:.\Generated_Source\PSoC4/BLE.c ****        
 669:.\Generated_Source\PSoC4/BLE.c ****         return (apiResult);
 670:.\Generated_Source\PSoC4/BLE.c ****     }
 671:.\Generated_Source\PSoC4/BLE.c ****     
 672:.\Generated_Source\PSoC4/BLE.c ****     
 673:.\Generated_Source\PSoC4/BLE.c ****     /******************************************************************************
 674:.\Generated_Source\PSoC4/BLE.c ****     ##Function Name: CyBle_GapcStopScan
 675:.\Generated_Source\PSoC4/BLE.c ****     *******************************************************************************
 676:.\Generated_Source\PSoC4/BLE.c ****     
 677:.\Generated_Source\PSoC4/BLE.c ****      Summary:
 678:.\Generated_Source\PSoC4/BLE.c ****       This function used to stop the discovery of devices. On stopping discovery
 679:.\Generated_Source\PSoC4/BLE.c ****       operation, CYBLE_EVT_GAPC_SCAN_START_STOP event is generated. Application
 680:.\Generated_Source\PSoC4/BLE.c ****       layer needs to keep track of the function call made before receiving this
 681:.\Generated_Source\PSoC4/BLE.c ****       event to associate this event with either the start or stop discovery
 682:.\Generated_Source\PSoC4/BLE.c ****       function.
 683:.\Generated_Source\PSoC4/BLE.c ****     
 684:.\Generated_Source\PSoC4/BLE.c ****       Possible events generated are:
 685:.\Generated_Source\PSoC4/BLE.c ****        * CYBLE_EVT_GAPC_SCAN_START_STOP
 686:.\Generated_Source\PSoC4/BLE.c ****     
 687:.\Generated_Source\PSoC4/BLE.c ****      Parameters:
 688:.\Generated_Source\PSoC4/BLE.c ****       None
 689:.\Generated_Source\PSoC4/BLE.c ****     
 690:.\Generated_Source\PSoC4/BLE.c ****      Return:
 691:.\Generated_Source\PSoC4/BLE.c ****       None
 692:.\Generated_Source\PSoC4/BLE.c ****     
 693:.\Generated_Source\PSoC4/BLE.c ****     ******************************************************************************/
 694:.\Generated_Source\PSoC4/BLE.c ****     void CyBle_GapcStopScan(void)
 695:.\Generated_Source\PSoC4/BLE.c ****     {
 696:.\Generated_Source\PSoC4/BLE.c ****         CyBle_GapcStopDiscovery();
 697:.\Generated_Source\PSoC4/BLE.c ****         
 698:.\Generated_Source\PSoC4/BLE.c ****         cyBle_eventHandlerFlag |= CYBLE_STOP_FLAG;
 699:.\Generated_Source\PSoC4/BLE.c ****     }
 700:.\Generated_Source\PSoC4/BLE.c **** 
 701:.\Generated_Source\PSoC4/BLE.c ****     
 702:.\Generated_Source\PSoC4/BLE.c **** #endif /* CYBLE_GAP_ROLE_CENTRAL || CYBLE_GAP_ROLE_OBSERVER */
 703:.\Generated_Source\PSoC4/BLE.c **** 
 704:.\Generated_Source\PSoC4/BLE.c **** 
 705:.\Generated_Source\PSoC4/BLE.c **** #if(CYBLE_GAP_ROLE_CENTRAL)
 706:.\Generated_Source\PSoC4/BLE.c **** 
 707:.\Generated_Source\PSoC4/BLE.c ****     /******************************************************************************
 708:.\Generated_Source\PSoC4/BLE.c ****     ##Function Name: CyBle_GapcConnectDevice
 709:.\Generated_Source\PSoC4/BLE.c ****     *******************************************************************************
 710:.\Generated_Source\PSoC4/BLE.c ****     
 711:.\Generated_Source\PSoC4/BLE.c ****     Summary:
 712:.\Generated_Source\PSoC4/BLE.c ****      This function is used to send a connection request to the remote device with
 713:.\Generated_Source\PSoC4/BLE.c ****      the connection parameters set in the component customizer. This function needs
 714:.\Generated_Source\PSoC4/BLE.c ****      to be called only once after the target device is discovered by 
 715:.\Generated_Source\PSoC4/BLE.c ****      CyBle_GapcStartScan() and further scanning has stopped. Scanning is 
 716:.\Generated_Source\PSoC4/BLE.c ****      successfully stopped on invoking CyBle_GapcStopScan() and then receiving the
ARM GAS  C:\Users\ENESDU~1\AppData\Local\Temp\ccTCHFTj.s 			page 23


 717:.\Generated_Source\PSoC4/BLE.c ****      event CYBLE_EVT_GAPC_SCAN_START_STOP with sub-parameter 'success' = 0x01u.
 718:.\Generated_Source\PSoC4/BLE.c ****      
 719:.\Generated_Source\PSoC4/BLE.c ****      On successful connection, the following events are generated at the GAP 
 720:.\Generated_Source\PSoC4/BLE.c ****      Central device (as well as the GAP Peripheral device), in the following order.
 721:.\Generated_Source\PSoC4/BLE.c ****      * CYBLE_EVT_GATT_CONNECT_IND
 722:.\Generated_Source\PSoC4/BLE.c ****      * CYBLE_EVT_GAP_DEVICE_CONNECTED
 723:.\Generated_Source\PSoC4/BLE.c ****  
 724:.\Generated_Source\PSoC4/BLE.c ****      A procedure is considered to have timed out if a connection response packet is 
 725:.\Generated_Source\PSoC4/BLE.c ****      not received within time set by cyBle_connectingTimeout global variable
 726:.\Generated_Source\PSoC4/BLE.c ****      (30 seconds by default). CYBLE_EVT_TIMEOUT event with CYBLE_GENERIC_TO parameter
 727:.\Generated_Source\PSoC4/BLE.c ****      will indicate about connection procedure timeout. Connection will automatically
 728:.\Generated_Source\PSoC4/BLE.c ****      be cancelled and state will be changed to CYBLE_STATE_DISCONNECTED.
 729:.\Generated_Source\PSoC4/BLE.c ****     
 730:.\Generated_Source\PSoC4/BLE.c ****     Parameters:
 731:.\Generated_Source\PSoC4/BLE.c ****      const CYBLE_GAP_BD_ADDR_T address: The device address of the remote device to 
 732:.\Generated_Source\PSoC4/BLE.c ****                                         connect to. 
 733:.\Generated_Source\PSoC4/BLE.c ****      timeout: Timeout for which timer to be started in seconds.
 734:.\Generated_Source\PSoC4/BLE.c ****  
 735:.\Generated_Source\PSoC4/BLE.c ****     Return:
 736:.\Generated_Source\PSoC4/BLE.c ****      CYBLE_API_RESULT_T : Return value indicates if the function succeeded or 
 737:.\Generated_Source\PSoC4/BLE.c ****      failed. Following are the possible error codes.
 738:.\Generated_Source\PSoC4/BLE.c ****      <table>
 739:.\Generated_Source\PSoC4/BLE.c ****       Errors codes                        Description
 740:.\Generated_Source\PSoC4/BLE.c ****       ------------                        -----------
 741:.\Generated_Source\PSoC4/BLE.c ****       CYBLE_ERROR_OK                      On successful operation.
 742:.\Generated_Source\PSoC4/BLE.c ****       CYBLE_ERROR_STACK_INTERNAL          On error occurred in the 
 743:.\Generated_Source\PSoC4/BLE.c ****                                            BLE stack.
 744:.\Generated_Source\PSoC4/BLE.c ****       CYBLE_ERROR_INVALID_PARAMETER       On specifying NULL as input
 745:.\Generated_Source\PSoC4/BLE.c ****                                            parameter for 'scanInfo' or if
 746:.\Generated_Source\PSoC4/BLE.c ****                                            any element with in 'scanInfo'
 747:.\Generated_Source\PSoC4/BLE.c ****                                            has an invalid value.
 748:.\Generated_Source\PSoC4/BLE.c ****      </table>
 749:.\Generated_Source\PSoC4/BLE.c ****  
 750:.\Generated_Source\PSoC4/BLE.c ****     ******************************************************************************/
 751:.\Generated_Source\PSoC4/BLE.c ****     CYBLE_API_RESULT_T CyBle_GapcConnectDevice(const CYBLE_GAP_BD_ADDR_T * address)
 752:.\Generated_Source\PSoC4/BLE.c ****     {
 753:.\Generated_Source\PSoC4/BLE.c ****         CYBLE_API_RESULT_T apiResult;
 754:.\Generated_Source\PSoC4/BLE.c ****         uint8 i;
 755:.\Generated_Source\PSoC4/BLE.c **** 
 756:.\Generated_Source\PSoC4/BLE.c ****         if(CYBLE_STATE_DISCONNECTED != CyBle_GetState())
 757:.\Generated_Source\PSoC4/BLE.c ****         {
 758:.\Generated_Source\PSoC4/BLE.c ****             apiResult = CYBLE_ERROR_INVALID_STATE;
 759:.\Generated_Source\PSoC4/BLE.c ****         }
 760:.\Generated_Source\PSoC4/BLE.c ****         else if(address == NULL)
 761:.\Generated_Source\PSoC4/BLE.c ****         {
 762:.\Generated_Source\PSoC4/BLE.c ****             apiResult = CYBLE_ERROR_INVALID_PARAMETER;
 763:.\Generated_Source\PSoC4/BLE.c ****         }
 764:.\Generated_Source\PSoC4/BLE.c ****         else
 765:.\Generated_Source\PSoC4/BLE.c ****         {
 766:.\Generated_Source\PSoC4/BLE.c ****             for(i = 0u; i < CYBLE_GAP_BD_ADDR_SIZE; i++)
 767:.\Generated_Source\PSoC4/BLE.c ****             {
 768:.\Generated_Source\PSoC4/BLE.c ****                 cyBle_connectionParameters.peerBdAddr[i] = address->bdAddr[i];
 769:.\Generated_Source\PSoC4/BLE.c ****             }
 770:.\Generated_Source\PSoC4/BLE.c ****             cyBle_connectionParameters.peerAddrType = address -> type;
 771:.\Generated_Source\PSoC4/BLE.c ****             apiResult = CyBle_GapcInitConnection(&cyBle_connectionParameters);
 772:.\Generated_Source\PSoC4/BLE.c ****             
 773:.\Generated_Source\PSoC4/BLE.c ****             if(CYBLE_ERROR_OK == apiResult)
ARM GAS  C:\Users\ENESDU~1\AppData\Local\Temp\ccTCHFTj.s 			page 24


 774:.\Generated_Source\PSoC4/BLE.c ****             {
 775:.\Generated_Source\PSoC4/BLE.c ****                 CyBle_SetState(CYBLE_STATE_CONNECTING);
 776:.\Generated_Source\PSoC4/BLE.c ****                 if(cyBle_connectingTimeout != 0u)
 777:.\Generated_Source\PSoC4/BLE.c ****                 {
 778:.\Generated_Source\PSoC4/BLE.c ****                     (void)CyBle_StartTimer(cyBle_connectingTimeout);
 779:.\Generated_Source\PSoC4/BLE.c ****                 }
 780:.\Generated_Source\PSoC4/BLE.c ****             }
 781:.\Generated_Source\PSoC4/BLE.c ****         }
 782:.\Generated_Source\PSoC4/BLE.c ****         return (apiResult);
 783:.\Generated_Source\PSoC4/BLE.c ****     }
 784:.\Generated_Source\PSoC4/BLE.c ****     
 785:.\Generated_Source\PSoC4/BLE.c **** 
 786:.\Generated_Source\PSoC4/BLE.c ****     /******************************************************************************
 787:.\Generated_Source\PSoC4/BLE.c ****     ##Function Name: CyBle_GapcCancelDeviceConnection
 788:.\Generated_Source\PSoC4/BLE.c ****     *******************************************************************************
 789:.\Generated_Source\PSoC4/BLE.c ****     
 790:.\Generated_Source\PSoC4/BLE.c ****     Summary:
 791:.\Generated_Source\PSoC4/BLE.c ****      This function cancels a previously initiated connection with the remote 
 792:.\Generated_Source\PSoC4/BLE.c ****      device. It is a blocking function. No event is generated on calling this 
 793:.\Generated_Source\PSoC4/BLE.c ****      function. If the devices are already connected then this function should not
 794:.\Generated_Source\PSoC4/BLE.c ****      be used. If you intend to disconnect from an existing connection, the function
 795:.\Generated_Source\PSoC4/BLE.c ****      CyBle_GapDisconnect() should be used.
 796:.\Generated_Source\PSoC4/BLE.c **** 
 797:.\Generated_Source\PSoC4/BLE.c ****     Parameters:
 798:.\Generated_Source\PSoC4/BLE.c ****      None
 799:.\Generated_Source\PSoC4/BLE.c **** 
 800:.\Generated_Source\PSoC4/BLE.c ****     Return:
 801:.\Generated_Source\PSoC4/BLE.c ****      CYBLE_API_RESULT_T : Return value indicates if the function succeeded or 
 802:.\Generated_Source\PSoC4/BLE.c ****      failed. Following are the possible error codes.
 803:.\Generated_Source\PSoC4/BLE.c ****      <table>
 804:.\Generated_Source\PSoC4/BLE.c ****       Errors codes                        Description
 805:.\Generated_Source\PSoC4/BLE.c ****       ------------                        -----------
 806:.\Generated_Source\PSoC4/BLE.c ****       CYBLE_ERROR_OK                      On successful operation.
 807:.\Generated_Source\PSoC4/BLE.c ****       CYBLE_ERROR_STACK_INTERNAL          An error occurred in the 
 808:.\Generated_Source\PSoC4/BLE.c ****                                            BLE stack.
 809:.\Generated_Source\PSoC4/BLE.c ****       CYBLE_ERROR_INVALID_OPERATION       Device is already connected.
 810:.\Generated_Source\PSoC4/BLE.c ****      </table>
 811:.\Generated_Source\PSoC4/BLE.c ****  
 812:.\Generated_Source\PSoC4/BLE.c ****     ******************************************************************************/
 813:.\Generated_Source\PSoC4/BLE.c ****     CYBLE_API_RESULT_T CyBle_GapcCancelDeviceConnection(void)
 814:.\Generated_Source\PSoC4/BLE.c ****     {
 815:.\Generated_Source\PSoC4/BLE.c ****         CYBLE_API_RESULT_T apiResult;
 816:.\Generated_Source\PSoC4/BLE.c ****         
 817:.\Generated_Source\PSoC4/BLE.c ****         apiResult = CyBle_GapcCancelConnection();
 818:.\Generated_Source\PSoC4/BLE.c ****             
 819:.\Generated_Source\PSoC4/BLE.c ****         if(cyBle_connectingTimeout != 0u)
 820:.\Generated_Source\PSoC4/BLE.c ****         {
 821:.\Generated_Source\PSoC4/BLE.c ****             (void)CyBle_StopTimer();
 822:.\Generated_Source\PSoC4/BLE.c ****         }
 823:.\Generated_Source\PSoC4/BLE.c **** 
 824:.\Generated_Source\PSoC4/BLE.c ****         if(CYBLE_ERROR_OK == apiResult)
 825:.\Generated_Source\PSoC4/BLE.c ****         {
 826:.\Generated_Source\PSoC4/BLE.c ****             CyBle_SetState(CYBLE_STATE_DISCONNECTED);
 827:.\Generated_Source\PSoC4/BLE.c ****         }
 828:.\Generated_Source\PSoC4/BLE.c ****         return (apiResult);
 829:.\Generated_Source\PSoC4/BLE.c ****     }    
 830:.\Generated_Source\PSoC4/BLE.c **** 
ARM GAS  C:\Users\ENESDU~1\AppData\Local\Temp\ccTCHFTj.s 			page 25


 831:.\Generated_Source\PSoC4/BLE.c ****     
 832:.\Generated_Source\PSoC4/BLE.c **** #endif /* CYBLE_GAP_ROLE_CENTRAL */
 833:.\Generated_Source\PSoC4/BLE.c **** 
 834:.\Generated_Source\PSoC4/BLE.c **** 
 835:.\Generated_Source\PSoC4/BLE.c **** #if(CYBLE_GATT_ROLE_SERVER)
 836:.\Generated_Source\PSoC4/BLE.c **** 
 837:.\Generated_Source\PSoC4/BLE.c **** #if(CYBLE_GAP_ROLE_PERIPHERAL)
 838:.\Generated_Source\PSoC4/BLE.c **** 
 839:.\Generated_Source\PSoC4/BLE.c ****         /******************************************************************************
 840:.\Generated_Source\PSoC4/BLE.c ****         ##Function Name: CyBle_ChangeAdLocalName
 841:.\Generated_Source\PSoC4/BLE.c ****         *******************************************************************************
 842:.\Generated_Source\PSoC4/BLE.c ****         Summary:
 843:.\Generated_Source\PSoC4/BLE.c ****          This API is used to set the local device name in the advertisement or scan 
 844:.\Generated_Source\PSoC4/BLE.c ****          response data structure.
 845:.\Generated_Source\PSoC4/BLE.c **** 
 846:.\Generated_Source\PSoC4/BLE.c ****         Parameters:
 847:.\Generated_Source\PSoC4/BLE.c ****          char8 name: The local device name string to be set in advertisement data 
 848:.\Generated_Source\PSoC4/BLE.c ****                    structure.
 849:.\Generated_Source\PSoC4/BLE.c ****          uint8 dest: 0 - avrevtisement structure, not zero value selects scan response
 850:.\Generated_Source\PSoC4/BLE.c ****                      structure.
 851:.\Generated_Source\PSoC4/BLE.c **** 
 852:.\Generated_Source\PSoC4/BLE.c ****         Return:
 853:.\Generated_Source\PSoC4/BLE.c ****          None
 854:.\Generated_Source\PSoC4/BLE.c ****      
 855:.\Generated_Source\PSoC4/BLE.c ****         ******************************************************************************/
 856:.\Generated_Source\PSoC4/BLE.c ****         static void CyBle_ChangeAdLocalName(const char8 name[], uint8 dest)
 857:.\Generated_Source\PSoC4/BLE.c ****         {
 537              		.loc 1 857 0
 538              		.cfi_startproc
 539 0000 80B5     		push	{r7, lr}
 540              		.cfi_def_cfa_offset 8
 541              		.cfi_offset 7, -8
 542              		.cfi_offset 14, -4
 543 0002 86B0     		sub	sp, sp, #24
 544              		.cfi_def_cfa_offset 32
 545 0004 00AF     		add	r7, sp, #0
 546              		.cfi_def_cfa_register 7
 547 0006 7860     		str	r0, [r7, #4]
 548 0008 0A1C     		mov	r2, r1
 549 000a FB1C     		add	r3, r7, #3
 550 000c 1A70     		strb	r2, [r3]
 858:.\Generated_Source\PSoC4/BLE.c ****             uint8 i;
 859:.\Generated_Source\PSoC4/BLE.c ****             uint8 flag = 0u;
 551              		.loc 1 859 0
 552 000e 3B1C     		mov	r3, r7
 553 0010 1633     		add	r3, r3, #22
 554 0012 0022     		mov	r2, #0
 555 0014 1A70     		strb	r2, [r3]
 860:.\Generated_Source\PSoC4/BLE.c ****             uint8 adLength = 0u;
 556              		.loc 1 860 0
 557 0016 3B1C     		mov	r3, r7
 558 0018 1533     		add	r3, r3, #21
 559 001a 0022     		mov	r2, #0
 560 001c 1A70     		strb	r2, [r3]
 861:.\Generated_Source\PSoC4/BLE.c ****             uint8 byteCounter = 0u;
 561              		.loc 1 861 0
 562 001e 3B1C     		mov	r3, r7
ARM GAS  C:\Users\ENESDU~1\AppData\Local\Temp\ccTCHFTj.s 			page 26


 563 0020 1433     		add	r3, r3, #20
 564 0022 0022     		mov	r2, #0
 565 0024 1A70     		strb	r2, [r3]
 862:.\Generated_Source\PSoC4/BLE.c ****             uint8 *destBuffer;
 863:.\Generated_Source\PSoC4/BLE.c ****             uint8 maxLength;
 864:.\Generated_Source\PSoC4/BLE.c ****             
 865:.\Generated_Source\PSoC4/BLE.c ****             if(dest == 0u)      /* Destination - advertising structure */
 566              		.loc 1 865 0
 567 0026 FB1C     		add	r3, r7, #3
 568 0028 1B78     		ldrb	r3, [r3]
 569 002a 002B     		cmp	r3, #0
 570 002c 07D1     		bne	.L27
 866:.\Generated_Source\PSoC4/BLE.c ****             {
 867:.\Generated_Source\PSoC4/BLE.c ****                 destBuffer = cyBle_discoveryData.advData;
 571              		.loc 1 867 0
 572 002e 5A4B     		ldr	r3, .L42
 573 0030 3B61     		str	r3, [r7, #16]
 868:.\Generated_Source\PSoC4/BLE.c ****                 maxLength = cyBle_discoveryData.advDataLen;
 574              		.loc 1 868 0
 575 0032 3B1C     		mov	r3, r7
 576 0034 0F33     		add	r3, r3, #15
 577 0036 584A     		ldr	r2, .L42
 578 0038 D27F     		ldrb	r2, [r2, #31]
 579 003a 1A70     		strb	r2, [r3]
 869:.\Generated_Source\PSoC4/BLE.c ****             }
 870:.\Generated_Source\PSoC4/BLE.c ****             else                /* Destination - scan response structure */
 871:.\Generated_Source\PSoC4/BLE.c ****             {
 872:.\Generated_Source\PSoC4/BLE.c ****                 destBuffer = cyBle_scanRspData.scanRspData;
 873:.\Generated_Source\PSoC4/BLE.c ****                 maxLength = cyBle_scanRspData.scanRspDataLen;
 874:.\Generated_Source\PSoC4/BLE.c ****             }
 875:.\Generated_Source\PSoC4/BLE.c ****             
 876:.\Generated_Source\PSoC4/BLE.c ****             while((byteCounter < maxLength) && (0u == flag))
 580              		.loc 1 876 0
 581 003c 3DE0     		b	.L29
 582              	.L27:
 872:.\Generated_Source\PSoC4/BLE.c ****                 destBuffer = cyBle_scanRspData.scanRspData;
 583              		.loc 1 872 0
 584 003e 574B     		ldr	r3, .L42+4
 585 0040 3B61     		str	r3, [r7, #16]
 873:.\Generated_Source\PSoC4/BLE.c ****                 maxLength = cyBle_scanRspData.scanRspDataLen;
 586              		.loc 1 873 0
 587 0042 3B1C     		mov	r3, r7
 588 0044 0F33     		add	r3, r3, #15
 589 0046 554A     		ldr	r2, .L42+4
 590 0048 D27F     		ldrb	r2, [r2, #31]
 591 004a 1A70     		strb	r2, [r3]
 592              		.loc 1 876 0
 593 004c 35E0     		b	.L29
 594              	.L35:
 877:.\Generated_Source\PSoC4/BLE.c ****             {
 878:.\Generated_Source\PSoC4/BLE.c ****                 adLength = destBuffer[byteCounter];
 595              		.loc 1 878 0
 596 004e 3B1C     		mov	r3, r7
 597 0050 1433     		add	r3, r3, #20
 598 0052 1B78     		ldrb	r3, [r3]
 599 0054 3A69     		ldr	r2, [r7, #16]
 600 0056 D218     		add	r2, r2, r3
ARM GAS  C:\Users\ENESDU~1\AppData\Local\Temp\ccTCHFTj.s 			page 27


 601 0058 3B1C     		mov	r3, r7
 602 005a 1533     		add	r3, r3, #21
 603 005c 1278     		ldrb	r2, [r2]
 604 005e 1A70     		strb	r2, [r3]
 879:.\Generated_Source\PSoC4/BLE.c ****                 
 880:.\Generated_Source\PSoC4/BLE.c ****                 if(0u != adLength)
 605              		.loc 1 880 0
 606 0060 3B1C     		mov	r3, r7
 607 0062 1533     		add	r3, r3, #21
 608 0064 1B78     		ldrb	r3, [r3]
 609 0066 002B     		cmp	r3, #0
 610 0068 26D0     		beq	.L30
 881:.\Generated_Source\PSoC4/BLE.c ****                 {
 882:.\Generated_Source\PSoC4/BLE.c ****                     /* Increment byte counter so it can point to AD type */
 883:.\Generated_Source\PSoC4/BLE.c ****                     byteCounter++;
 611              		.loc 1 883 0
 612 006a 3B1C     		mov	r3, r7
 613 006c 1433     		add	r3, r3, #20
 614 006e 1A78     		ldrb	r2, [r3]
 615 0070 3B1C     		mov	r3, r7
 616 0072 1433     		add	r3, r3, #20
 617 0074 0132     		add	r2, r2, #1
 618 0076 1A70     		strb	r2, [r3]
 884:.\Generated_Source\PSoC4/BLE.c ****                     
 885:.\Generated_Source\PSoC4/BLE.c ****                     if((CYBLE_SHORT_LOCAL_NAME == destBuffer[byteCounter]) || 
 619              		.loc 1 885 0
 620 0078 3B1C     		mov	r3, r7
 621 007a 1433     		add	r3, r3, #20
 622 007c 1B78     		ldrb	r3, [r3]
 623 007e 3A69     		ldr	r2, [r7, #16]
 624 0080 D318     		add	r3, r2, r3
 625 0082 1B78     		ldrb	r3, [r3]
 626 0084 082B     		cmp	r3, #8
 627 0086 07D0     		beq	.L31
 886:.\Generated_Source\PSoC4/BLE.c ****                         (CYBLE_COMPLETE_LOCAL_NAME == destBuffer[byteCounter]))
 628              		.loc 1 886 0 discriminator 1
 629 0088 3B1C     		mov	r3, r7
 630 008a 1433     		add	r3, r3, #20
 631 008c 1B78     		ldrb	r3, [r3]
 632 008e 3A69     		ldr	r2, [r7, #16]
 633 0090 D318     		add	r3, r2, r3
 634 0092 1B78     		ldrb	r3, [r3]
 885:.\Generated_Source\PSoC4/BLE.c ****                     if((CYBLE_SHORT_LOCAL_NAME == destBuffer[byteCounter]) || 
 635              		.loc 1 885 0 discriminator 1
 636 0094 092B     		cmp	r3, #9
 637 0096 04D1     		bne	.L32
 638              	.L31:
 887:.\Generated_Source\PSoC4/BLE.c ****                     {
 888:.\Generated_Source\PSoC4/BLE.c ****                         /* Start of the Local Name AD type was fount. Set flag and exit the loop. *
 889:.\Generated_Source\PSoC4/BLE.c ****                         flag = 1u;
 639              		.loc 1 889 0
 640 0098 3B1C     		mov	r3, r7
 641 009a 1633     		add	r3, r3, #22
 642 009c 0122     		mov	r2, #1
 643 009e 1A70     		strb	r2, [r3]
 644 00a0 0BE0     		b	.L29
 645              	.L32:
ARM GAS  C:\Users\ENESDU~1\AppData\Local\Temp\ccTCHFTj.s 			page 28


 890:.\Generated_Source\PSoC4/BLE.c ****                     }
 891:.\Generated_Source\PSoC4/BLE.c ****                     else
 892:.\Generated_Source\PSoC4/BLE.c ****                     {
 893:.\Generated_Source\PSoC4/BLE.c ****                         byteCounter += adLength;
 646              		.loc 1 893 0
 647 00a2 3B1C     		mov	r3, r7
 648 00a4 1433     		add	r3, r3, #20
 649 00a6 391C     		mov	r1, r7
 650 00a8 1431     		add	r1, r1, #20
 651 00aa 3A1C     		mov	r2, r7
 652 00ac 1532     		add	r2, r2, #21
 653 00ae 0978     		ldrb	r1, [r1]
 654 00b0 1278     		ldrb	r2, [r2]
 655 00b2 8A18     		add	r2, r1, r2
 656 00b4 1A70     		strb	r2, [r3]
 657 00b6 00E0     		b	.L29
 658              	.L30:
 894:.\Generated_Source\PSoC4/BLE.c ****                     }
 895:.\Generated_Source\PSoC4/BLE.c ****                 }
 896:.\Generated_Source\PSoC4/BLE.c ****                 else
 897:.\Generated_Source\PSoC4/BLE.c ****                 {
 898:.\Generated_Source\PSoC4/BLE.c ****                     /* The end of advertisement data structure was encountered though exit the 
 899:.\Generated_Source\PSoC4/BLE.c ****                       loop. */
 900:.\Generated_Source\PSoC4/BLE.c ****                     break;
 659              		.loc 1 900 0
 660 00b8 0CE0     		b	.L34
 661              	.L29:
 876:.\Generated_Source\PSoC4/BLE.c ****             while((byteCounter < maxLength) && (0u == flag))
 662              		.loc 1 876 0 discriminator 1
 663 00ba 3A1C     		mov	r2, r7
 664 00bc 1432     		add	r2, r2, #20
 665 00be 3B1C     		mov	r3, r7
 666 00c0 0F33     		add	r3, r3, #15
 667 00c2 1278     		ldrb	r2, [r2]
 668 00c4 1B78     		ldrb	r3, [r3]
 669 00c6 9A42     		cmp	r2, r3
 670 00c8 04D2     		bcs	.L34
 876:.\Generated_Source\PSoC4/BLE.c ****             while((byteCounter < maxLength) && (0u == flag))
 671              		.loc 1 876 0 is_stmt 0 discriminator 2
 672 00ca 3B1C     		mov	r3, r7
 673 00cc 1633     		add	r3, r3, #22
 674 00ce 1B78     		ldrb	r3, [r3]
 675 00d0 002B     		cmp	r3, #0
 676 00d2 BCD0     		beq	.L35
 677              	.L34:
 901:.\Generated_Source\PSoC4/BLE.c ****                 }
 902:.\Generated_Source\PSoC4/BLE.c ****             }
 903:.\Generated_Source\PSoC4/BLE.c ****             
 904:.\Generated_Source\PSoC4/BLE.c ****             if(0u != flag)
 678              		.loc 1 904 0 is_stmt 1
 679 00d4 3B1C     		mov	r3, r7
 680 00d6 1633     		add	r3, r3, #22
 681 00d8 1B78     		ldrb	r3, [r3]
 682 00da 002B     		cmp	r3, #0
 683 00dc 59D0     		beq	.L26
 905:.\Generated_Source\PSoC4/BLE.c ****             {
 906:.\Generated_Source\PSoC4/BLE.c ****                 /* Reuse "adLength" to hold location of the last character of local name in 
ARM GAS  C:\Users\ENESDU~1\AppData\Local\Temp\ccTCHFTj.s 			page 29


 907:.\Generated_Source\PSoC4/BLE.c ****                    AD structure. */
 908:.\Generated_Source\PSoC4/BLE.c ****                 adLength += byteCounter;
 684              		.loc 1 908 0
 685 00de 3B1C     		mov	r3, r7
 686 00e0 1533     		add	r3, r3, #21
 687 00e2 391C     		mov	r1, r7
 688 00e4 1531     		add	r1, r1, #21
 689 00e6 3A1C     		mov	r2, r7
 690 00e8 1432     		add	r2, r2, #20
 691 00ea 0978     		ldrb	r1, [r1]
 692 00ec 1278     		ldrb	r2, [r2]
 693 00ee 8A18     		add	r2, r1, r2
 694 00f0 1A70     		strb	r2, [r3]
 909:.\Generated_Source\PSoC4/BLE.c ****                 
 910:.\Generated_Source\PSoC4/BLE.c ****                 /* Increment byte counter to point to start of the local Name string */
 911:.\Generated_Source\PSoC4/BLE.c ****                 byteCounter++;
 695              		.loc 1 911 0
 696 00f2 3B1C     		mov	r3, r7
 697 00f4 1433     		add	r3, r3, #20
 698 00f6 1A78     		ldrb	r2, [r3]
 699 00f8 3B1C     		mov	r3, r7
 700 00fa 1433     		add	r3, r3, #20
 701 00fc 0132     		add	r2, r2, #1
 702 00fe 1A70     		strb	r2, [r3]
 912:.\Generated_Source\PSoC4/BLE.c ****                 
 913:.\Generated_Source\PSoC4/BLE.c ****                 for(i = byteCounter; ((i < (adLength)) && (CYBLE_NULL_CHARCTER != name[i - byteCoun
 703              		.loc 1 913 0
 704 0100 3B1C     		mov	r3, r7
 705 0102 1733     		add	r3, r3, #23
 706 0104 3A1C     		mov	r2, r7
 707 0106 1432     		add	r2, r2, #20
 708 0108 1278     		ldrb	r2, [r2]
 709 010a 1A70     		strb	r2, [r3]
 710 010c 16E0     		b	.L37
 711              	.L39:
 914:.\Generated_Source\PSoC4/BLE.c ****                 {
 915:.\Generated_Source\PSoC4/BLE.c ****                     destBuffer[i] = (uint8)name[i - byteCounter];
 712              		.loc 1 915 0 discriminator 1
 713 010e 3B1C     		mov	r3, r7
 714 0110 1733     		add	r3, r3, #23
 715 0112 1B78     		ldrb	r3, [r3]
 716 0114 3A69     		ldr	r2, [r7, #16]
 717 0116 D318     		add	r3, r2, r3
 718 0118 3A1C     		mov	r2, r7
 719 011a 1732     		add	r2, r2, #23
 720 011c 1178     		ldrb	r1, [r2]
 721 011e 3A1C     		mov	r2, r7
 722 0120 1432     		add	r2, r2, #20
 723 0122 1278     		ldrb	r2, [r2]
 724 0124 8A1A     		sub	r2, r1, r2
 725 0126 7968     		ldr	r1, [r7, #4]
 726 0128 8A18     		add	r2, r1, r2
 727 012a 1278     		ldrb	r2, [r2]
 728 012c 1A70     		strb	r2, [r3]
 913:.\Generated_Source\PSoC4/BLE.c ****                 for(i = byteCounter; ((i < (adLength)) && (CYBLE_NULL_CHARCTER != name[i - byteCoun
 729              		.loc 1 913 0 discriminator 1
 730 012e 3B1C     		mov	r3, r7
ARM GAS  C:\Users\ENESDU~1\AppData\Local\Temp\ccTCHFTj.s 			page 30


 731 0130 1733     		add	r3, r3, #23
 732 0132 1A78     		ldrb	r2, [r3]
 733 0134 3B1C     		mov	r3, r7
 734 0136 1733     		add	r3, r3, #23
 735 0138 0132     		add	r2, r2, #1
 736 013a 1A70     		strb	r2, [r3]
 737              	.L37:
 738 013c 3A1C     		mov	r2, r7
 739 013e 1732     		add	r2, r2, #23
 740 0140 3B1C     		mov	r3, r7
 741 0142 1533     		add	r3, r3, #21
 742 0144 1278     		ldrb	r2, [r2]
 743 0146 1B78     		ldrb	r3, [r3]
 744 0148 9A42     		cmp	r2, r3
 745 014a 0BD2     		bcs	.L38
 913:.\Generated_Source\PSoC4/BLE.c ****                 for(i = byteCounter; ((i < (adLength)) && (CYBLE_NULL_CHARCTER != name[i - byteCoun
 746              		.loc 1 913 0 is_stmt 0 discriminator 2
 747 014c 3B1C     		mov	r3, r7
 748 014e 1733     		add	r3, r3, #23
 749 0150 1A78     		ldrb	r2, [r3]
 750 0152 3B1C     		mov	r3, r7
 751 0154 1433     		add	r3, r3, #20
 752 0156 1B78     		ldrb	r3, [r3]
 753 0158 D31A     		sub	r3, r2, r3
 754 015a 7A68     		ldr	r2, [r7, #4]
 755 015c D318     		add	r3, r2, r3
 756 015e 1B78     		ldrb	r3, [r3]
 757 0160 002B     		cmp	r3, #0
 758 0162 D4D1     		bne	.L39
 759              	.L38:
 916:.\Generated_Source\PSoC4/BLE.c ****                 }
 917:.\Generated_Source\PSoC4/BLE.c ****                 
 918:.\Generated_Source\PSoC4/BLE.c ****                 /* This loop handles the case when new local name is shorted than old one.
 919:.\Generated_Source\PSoC4/BLE.c ****                    In this case all remaining characters should be null characters. */
 920:.\Generated_Source\PSoC4/BLE.c ****                 while(adLength > i)
 760              		.loc 1 920 0 is_stmt 1
 761 0164 0DE0     		b	.L40
 762              	.L41:
 921:.\Generated_Source\PSoC4/BLE.c ****                 {
 922:.\Generated_Source\PSoC4/BLE.c ****                     /* Terminate string */
 923:.\Generated_Source\PSoC4/BLE.c ****                     destBuffer[i] = (uint8)CYBLE_NULL_CHARCTER;
 763              		.loc 1 923 0
 764 0166 3B1C     		mov	r3, r7
 765 0168 1733     		add	r3, r3, #23
 766 016a 1B78     		ldrb	r3, [r3]
 767 016c 3A69     		ldr	r2, [r7, #16]
 768 016e D318     		add	r3, r2, r3
 769 0170 0022     		mov	r2, #0
 770 0172 1A70     		strb	r2, [r3]
 924:.\Generated_Source\PSoC4/BLE.c ****                     i++;
 771              		.loc 1 924 0
 772 0174 3B1C     		mov	r3, r7
 773 0176 1733     		add	r3, r3, #23
 774 0178 1A78     		ldrb	r2, [r3]
 775 017a 3B1C     		mov	r3, r7
 776 017c 1733     		add	r3, r3, #23
 777 017e 0132     		add	r2, r2, #1
ARM GAS  C:\Users\ENESDU~1\AppData\Local\Temp\ccTCHFTj.s 			page 31


 778 0180 1A70     		strb	r2, [r3]
 779              	.L40:
 920:.\Generated_Source\PSoC4/BLE.c ****                 while(adLength > i)
 780              		.loc 1 920 0 discriminator 1
 781 0182 3A1C     		mov	r2, r7
 782 0184 1532     		add	r2, r2, #21
 783 0186 3B1C     		mov	r3, r7
 784 0188 1733     		add	r3, r3, #23
 785 018a 1278     		ldrb	r2, [r2]
 786 018c 1B78     		ldrb	r3, [r3]
 787 018e 9A42     		cmp	r2, r3
 788 0190 E9D8     		bhi	.L41
 789              	.L26:
 925:.\Generated_Source\PSoC4/BLE.c ****                 }
 926:.\Generated_Source\PSoC4/BLE.c ****             }
 927:.\Generated_Source\PSoC4/BLE.c ****         }
 790              		.loc 1 927 0
 791 0192 BD46     		mov	sp, r7
 792 0194 06B0     		add	sp, sp, #24
 793              		@ sp needed
 794 0196 80BD     		pop	{r7, pc}
 795              	.L43:
 796              		.align	2
 797              	.L42:
 798 0198 00000000 		.word	cyBle_discoveryData
 799 019c 00000000 		.word	cyBle_scanRspData
 800              		.cfi_endproc
 801              	.LFE8:
 802              		.size	CyBle_ChangeAdLocalName, .-CyBle_ChangeAdLocalName
 803              		.section	.text.CyBle_GapSetLocalName,"ax",%progbits
 804              		.align	2
 805              		.global	CyBle_GapSetLocalName
 806              		.code	16
 807              		.thumb_func
 808              		.type	CyBle_GapSetLocalName, %function
 809              	CyBle_GapSetLocalName:
 810              	.LFB9:
 928:.\Generated_Source\PSoC4/BLE.c **** #endif /* (CYBLE_GAP_ROLE_PERIPHERAL) */  
 929:.\Generated_Source\PSoC4/BLE.c ****     
 930:.\Generated_Source\PSoC4/BLE.c ****     
 931:.\Generated_Source\PSoC4/BLE.c ****     /******************************************************************************
 932:.\Generated_Source\PSoC4/BLE.c ****     ##Function Name: CyBle_GapSetLocalName
 933:.\Generated_Source\PSoC4/BLE.c ****     *******************************************************************************
 934:.\Generated_Source\PSoC4/BLE.c ****     Summary:
 935:.\Generated_Source\PSoC4/BLE.c ****      This API is used to set the local device name - a Characteristic of the 
 936:.\Generated_Source\PSoC4/BLE.c ****      GAP Service. If the characteristic length entered in the component customizer
 937:.\Generated_Source\PSoC4/BLE.c ****      is shorter than the string specified by the "name" parameter, the local device
 938:.\Generated_Source\PSoC4/BLE.c ****      name will be cut to the length specified in the customizer.
 939:.\Generated_Source\PSoC4/BLE.c **** 
 940:.\Generated_Source\PSoC4/BLE.c ****     Parameters:
 941:.\Generated_Source\PSoC4/BLE.c ****      char8 name: The local device name string. The name string to be written as
 942:.\Generated_Source\PSoC4/BLE.c ****                  the local device name. It represents a UTF-8 encoded User
 943:.\Generated_Source\PSoC4/BLE.c ****                  Friendly Descriptive Name for the device. The length of the local
 944:.\Generated_Source\PSoC4/BLE.c ****                  device string is entered into the component customizer and it can
 945:.\Generated_Source\PSoC4/BLE.c ****                  be set to a value from 0 to 248 bytes. If the name contained in
 946:.\Generated_Source\PSoC4/BLE.c ****                  the parameter is shorter than the length from the customizer, the
 947:.\Generated_Source\PSoC4/BLE.c ****                  end of the name is indicated by a NULL octet (0x00).
ARM GAS  C:\Users\ENESDU~1\AppData\Local\Temp\ccTCHFTj.s 			page 32


 948:.\Generated_Source\PSoC4/BLE.c **** 
 949:.\Generated_Source\PSoC4/BLE.c ****     Return:
 950:.\Generated_Source\PSoC4/BLE.c ****      CYBLE_API_RESULT_T : Return value indicates if the function succeeded or 
 951:.\Generated_Source\PSoC4/BLE.c ****      failed. Following are the possible error codes.
 952:.\Generated_Source\PSoC4/BLE.c ****      <table>
 953:.\Generated_Source\PSoC4/BLE.c ****       Errors codes                        Description
 954:.\Generated_Source\PSoC4/BLE.c ****       ------------                        -----------
 955:.\Generated_Source\PSoC4/BLE.c ****       CYBLE_ERROR_OK                      Function completed successfully.
 956:.\Generated_Source\PSoC4/BLE.c ****       CYBLE_ERROR_INVALID_PARAMETER       On specifying NULL as input parameter
 957:.\Generated_Source\PSoC4/BLE.c ****      </table>
 958:.\Generated_Source\PSoC4/BLE.c ****  
 959:.\Generated_Source\PSoC4/BLE.c ****     ******************************************************************************/
 960:.\Generated_Source\PSoC4/BLE.c ****     CYBLE_API_RESULT_T CyBle_GapSetLocalName(const char8 name[])
 961:.\Generated_Source\PSoC4/BLE.c ****     {
 811              		.loc 1 961 0
 812              		.cfi_startproc
 813 0000 80B5     		push	{r7, lr}
 814              		.cfi_def_cfa_offset 8
 815              		.cfi_offset 7, -8
 816              		.cfi_offset 14, -4
 817 0002 86B0     		sub	sp, sp, #24
 818              		.cfi_def_cfa_offset 32
 819 0004 00AF     		add	r7, sp, #0
 820              		.cfi_def_cfa_register 7
 821 0006 7860     		str	r0, [r7, #4]
 962:.\Generated_Source\PSoC4/BLE.c ****         CYBLE_API_RESULT_T apiResult = CYBLE_ERROR_OK;
 822              		.loc 1 962 0
 823 0008 3B1C     		mov	r3, r7
 824 000a 1633     		add	r3, r3, #22
 825 000c 0022     		mov	r2, #0
 826 000e 1A80     		strh	r2, [r3]
 963:.\Generated_Source\PSoC4/BLE.c ****         uint8 i;
 964:.\Generated_Source\PSoC4/BLE.c ****         char8 *ptr;
 965:.\Generated_Source\PSoC4/BLE.c ****         uint8 charLen;
 966:.\Generated_Source\PSoC4/BLE.c **** 
 967:.\Generated_Source\PSoC4/BLE.c ****         if(NULL != name)
 827              		.loc 1 967 0
 828 0010 7B68     		ldr	r3, [r7, #4]
 829 0012 002B     		cmp	r3, #0
 830 0014 42D0     		beq	.L45
 968:.\Generated_Source\PSoC4/BLE.c ****         {
 969:.\Generated_Source\PSoC4/BLE.c ****             /* Get the pointer to the Device Name characteristic  */
 970:.\Generated_Source\PSoC4/BLE.c ****             ptr = (char8 *)
 831              		.loc 1 970 0
 832 0016 274B     		ldr	r3, .L51
 833 0018 9B6B     		ldr	r3, [r3, #56]
 834 001a 3B61     		str	r3, [r7, #16]
 971:.\Generated_Source\PSoC4/BLE.c ****                 cyBle_gattDB[CYBLE_GAP_DEVICE_NAME_INDEX].attValue.attFormatValue.attGenericVal;
 972:.\Generated_Source\PSoC4/BLE.c **** 
 973:.\Generated_Source\PSoC4/BLE.c ****             /* First need to get the length of the characteristic data in the GATT
 974:.\Generated_Source\PSoC4/BLE.c ****                 database to make sure there is enough place for the data. The length
 975:.\Generated_Source\PSoC4/BLE.c ****                 can't be longer than 248, so only the LSB of 16 bit of length is to
 976:.\Generated_Source\PSoC4/BLE.c ****                 be used. */
 977:.\Generated_Source\PSoC4/BLE.c ****             charLen = (uint8) cyBle_gattDB[CYBLE_GAP_DEVICE_NAME_INDEX].attValue.attFormatValue.len
 835              		.loc 1 977 0
 836 001c 254B     		ldr	r3, .L51
 837 001e 9A8E     		ldrh	r2, [r3, #52]
ARM GAS  C:\Users\ENESDU~1\AppData\Local\Temp\ccTCHFTj.s 			page 33


 838 0020 3B1C     		mov	r3, r7
 839 0022 0F33     		add	r3, r3, #15
 840 0024 1A70     		strb	r2, [r3]
 978:.\Generated_Source\PSoC4/BLE.c **** 
 979:.\Generated_Source\PSoC4/BLE.c ****             /* Copy name into characteristic */
 980:.\Generated_Source\PSoC4/BLE.c ****             for(i = 0u; ((i < (charLen - 1u)) && (CYBLE_NULL_CHARCTER != name[i])); i++)
 841              		.loc 1 980 0
 842 0026 3B1C     		mov	r3, r7
 843 0028 1533     		add	r3, r3, #21
 844 002a 0022     		mov	r2, #0
 845 002c 1A70     		strb	r2, [r3]
 846 002e 12E0     		b	.L46
 847              	.L48:
 981:.\Generated_Source\PSoC4/BLE.c ****             {
 982:.\Generated_Source\PSoC4/BLE.c ****                 ptr[i] = name[i];
 848              		.loc 1 982 0 discriminator 1
 849 0030 3B1C     		mov	r3, r7
 850 0032 1533     		add	r3, r3, #21
 851 0034 1B78     		ldrb	r3, [r3]
 852 0036 3A69     		ldr	r2, [r7, #16]
 853 0038 D318     		add	r3, r2, r3
 854 003a 3A1C     		mov	r2, r7
 855 003c 1532     		add	r2, r2, #21
 856 003e 1278     		ldrb	r2, [r2]
 857 0040 7968     		ldr	r1, [r7, #4]
 858 0042 8A18     		add	r2, r1, r2
 859 0044 1278     		ldrb	r2, [r2]
 860 0046 1A70     		strb	r2, [r3]
 980:.\Generated_Source\PSoC4/BLE.c ****             for(i = 0u; ((i < (charLen - 1u)) && (CYBLE_NULL_CHARCTER != name[i])); i++)
 861              		.loc 1 980 0 discriminator 1
 862 0048 3B1C     		mov	r3, r7
 863 004a 1533     		add	r3, r3, #21
 864 004c 1A78     		ldrb	r2, [r3]
 865 004e 3B1C     		mov	r3, r7
 866 0050 1533     		add	r3, r3, #21
 867 0052 0132     		add	r2, r2, #1
 868 0054 1A70     		strb	r2, [r3]
 869              	.L46:
 870 0056 3B1C     		mov	r3, r7
 871 0058 1533     		add	r3, r3, #21
 872 005a 1A78     		ldrb	r2, [r3]
 873 005c 3B1C     		mov	r3, r7
 874 005e 0F33     		add	r3, r3, #15
 875 0060 1B78     		ldrb	r3, [r3]
 876 0062 013B     		sub	r3, r3, #1
 877 0064 9A42     		cmp	r2, r3
 878 0066 07D2     		bcs	.L47
 980:.\Generated_Source\PSoC4/BLE.c ****             for(i = 0u; ((i < (charLen - 1u)) && (CYBLE_NULL_CHARCTER != name[i])); i++)
 879              		.loc 1 980 0 is_stmt 0 discriminator 2
 880 0068 3B1C     		mov	r3, r7
 881 006a 1533     		add	r3, r3, #21
 882 006c 1B78     		ldrb	r3, [r3]
 883 006e 7A68     		ldr	r2, [r7, #4]
 884 0070 D318     		add	r3, r2, r3
 885 0072 1B78     		ldrb	r3, [r3]
 886 0074 002B     		cmp	r3, #0
 887 0076 DBD1     		bne	.L48
ARM GAS  C:\Users\ENESDU~1\AppData\Local\Temp\ccTCHFTj.s 			page 34


 888              	.L47:
 983:.\Generated_Source\PSoC4/BLE.c ****             }
 984:.\Generated_Source\PSoC4/BLE.c **** 
 985:.\Generated_Source\PSoC4/BLE.c ****             /* Terminate string */
 986:.\Generated_Source\PSoC4/BLE.c ****             ptr[i] = CYBLE_NULL_CHARCTER;
 889              		.loc 1 986 0 is_stmt 1
 890 0078 3B1C     		mov	r3, r7
 891 007a 1533     		add	r3, r3, #21
 892 007c 1B78     		ldrb	r3, [r3]
 893 007e 3A69     		ldr	r2, [r7, #16]
 894 0080 D318     		add	r3, r2, r3
 895 0082 0022     		mov	r2, #0
 896 0084 1A70     		strb	r2, [r3]
 987:.\Generated_Source\PSoC4/BLE.c ****             
 988:.\Generated_Source\PSoC4/BLE.c ****             /* Update device name in advertising and scan response structure */
 989:.\Generated_Source\PSoC4/BLE.c ****             #if(CYBLE_GAP_ROLE_PERIPHERAL)
 990:.\Generated_Source\PSoC4/BLE.c ****                 CyBle_ChangeAdLocalName(name, 0u);
 897              		.loc 1 990 0
 898 0086 7B68     		ldr	r3, [r7, #4]
 899 0088 181C     		mov	r0, r3
 900 008a 0021     		mov	r1, #0
 901 008c FFF7FEFF 		bl	CyBle_ChangeAdLocalName
 991:.\Generated_Source\PSoC4/BLE.c ****                 CyBle_ChangeAdLocalName(name, 1u);
 902              		.loc 1 991 0
 903 0090 7B68     		ldr	r3, [r7, #4]
 904 0092 181C     		mov	r0, r3
 905 0094 0121     		mov	r1, #1
 906 0096 FFF7FEFF 		bl	CyBle_ChangeAdLocalName
 907 009a 03E0     		b	.L49
 908              	.L45:
 992:.\Generated_Source\PSoC4/BLE.c ****             #endif /* (CYBLE_GAP_ROLE_PERIPHERAL) */
 993:.\Generated_Source\PSoC4/BLE.c ****         }
 994:.\Generated_Source\PSoC4/BLE.c ****         else
 995:.\Generated_Source\PSoC4/BLE.c ****         {
 996:.\Generated_Source\PSoC4/BLE.c ****             apiResult = CYBLE_ERROR_INVALID_PARAMETER;
 909              		.loc 1 996 0
 910 009c 3B1C     		mov	r3, r7
 911 009e 1633     		add	r3, r3, #22
 912 00a0 0122     		mov	r2, #1
 913 00a2 1A80     		strh	r2, [r3]
 914              	.L49:
 997:.\Generated_Source\PSoC4/BLE.c ****         }
 998:.\Generated_Source\PSoC4/BLE.c ****         
 999:.\Generated_Source\PSoC4/BLE.c ****         return(apiResult);
 915              		.loc 1 999 0
 916 00a4 3B1C     		mov	r3, r7
 917 00a6 1633     		add	r3, r3, #22
 918 00a8 1B88     		ldrh	r3, [r3]
1000:.\Generated_Source\PSoC4/BLE.c ****     }
 919              		.loc 1 1000 0
 920 00aa 181C     		mov	r0, r3
 921 00ac BD46     		mov	sp, r7
 922 00ae 06B0     		add	sp, sp, #24
 923              		@ sp needed
 924 00b0 80BD     		pop	{r7, pc}
 925              	.L52:
 926 00b2 C046     		.align	2
ARM GAS  C:\Users\ENESDU~1\AppData\Local\Temp\ccTCHFTj.s 			page 35


 927              	.L51:
 928 00b4 00000000 		.word	cyBle_gattDB
 929              		.cfi_endproc
 930              	.LFE9:
 931              		.size	CyBle_GapSetLocalName, .-CyBle_GapSetLocalName
 932              		.section	.text.CyBle_GapGetLocalName,"ax",%progbits
 933              		.align	2
 934              		.global	CyBle_GapGetLocalName
 935              		.code	16
 936              		.thumb_func
 937              		.type	CyBle_GapGetLocalName, %function
 938              	CyBle_GapGetLocalName:
 939              	.LFB10:
1001:.\Generated_Source\PSoC4/BLE.c **** 
1002:.\Generated_Source\PSoC4/BLE.c **** 
1003:.\Generated_Source\PSoC4/BLE.c ****     /******************************************************************************
1004:.\Generated_Source\PSoC4/BLE.c ****     ##Function Name: CyBle_GapGetLocalName
1005:.\Generated_Source\PSoC4/BLE.c ****     *******************************************************************************
1006:.\Generated_Source\PSoC4/BLE.c ****  
1007:.\Generated_Source\PSoC4/BLE.c ****     Summary:
1008:.\Generated_Source\PSoC4/BLE.c ****      This API is used to read the local device name - a Characteristic of the 
1009:.\Generated_Source\PSoC4/BLE.c ****      GAP Service.
1010:.\Generated_Source\PSoC4/BLE.c **** 
1011:.\Generated_Source\PSoC4/BLE.c ****     Parameters:
1012:.\Generated_Source\PSoC4/BLE.c ****     char8 name: The local device name string. Used to read the local name to the
1013:.\Generated_Source\PSoC4/BLE.c ****                 given string array. It represents a UTF-8 encoded User Friendly 
1014:.\Generated_Source\PSoC4/BLE.c ****                 Descriptive Name for the device. The length of the local device
1015:.\Generated_Source\PSoC4/BLE.c ****                 string is entered into the component customizer and it can be set
1016:.\Generated_Source\PSoC4/BLE.c ****                 to a value from 0 to 248 bytes. If the name contained in the
1017:.\Generated_Source\PSoC4/BLE.c ****                 parameter is shorter than the length from the customizer, the end
1018:.\Generated_Source\PSoC4/BLE.c ****                 of the name is indicated by a NULL octet (0x00).
1019:.\Generated_Source\PSoC4/BLE.c **** 
1020:.\Generated_Source\PSoC4/BLE.c ****     Return:
1021:.\Generated_Source\PSoC4/BLE.c ****      CYBLE_API_RESULT_T : Return value indicates if the function succeeded or 
1022:.\Generated_Source\PSoC4/BLE.c ****      failed. Following are the possible error codes.
1023:.\Generated_Source\PSoC4/BLE.c ****      <table>
1024:.\Generated_Source\PSoC4/BLE.c ****       Errors codes                        Description
1025:.\Generated_Source\PSoC4/BLE.c ****       ------------                        -----------
1026:.\Generated_Source\PSoC4/BLE.c ****       CYBLE_ERROR_OK                      Function completed successfully.
1027:.\Generated_Source\PSoC4/BLE.c ****       CYBLE_ERROR_INVALID_PARAMETER       On specifying NULL as input parameter
1028:.\Generated_Source\PSoC4/BLE.c ****      </table>
1029:.\Generated_Source\PSoC4/BLE.c **** 
1030:.\Generated_Source\PSoC4/BLE.c ****     ******************************************************************************/
1031:.\Generated_Source\PSoC4/BLE.c ****     CYBLE_API_RESULT_T CyBle_GapGetLocalName(char8 name[])
1032:.\Generated_Source\PSoC4/BLE.c ****     {
 940              		.loc 1 1032 0
 941              		.cfi_startproc
 942 0000 80B5     		push	{r7, lr}
 943              		.cfi_def_cfa_offset 8
 944              		.cfi_offset 7, -8
 945              		.cfi_offset 14, -4
 946 0002 86B0     		sub	sp, sp, #24
 947              		.cfi_def_cfa_offset 32
 948 0004 00AF     		add	r7, sp, #0
 949              		.cfi_def_cfa_register 7
 950 0006 7860     		str	r0, [r7, #4]
1033:.\Generated_Source\PSoC4/BLE.c ****         CYBLE_API_RESULT_T apiResult = CYBLE_ERROR_OK;
ARM GAS  C:\Users\ENESDU~1\AppData\Local\Temp\ccTCHFTj.s 			page 36


 951              		.loc 1 1033 0
 952 0008 3B1C     		mov	r3, r7
 953 000a 1633     		add	r3, r3, #22
 954 000c 0022     		mov	r2, #0
 955 000e 1A80     		strh	r2, [r3]
1034:.\Generated_Source\PSoC4/BLE.c ****         uint8 charLen;
1035:.\Generated_Source\PSoC4/BLE.c ****         uint8 i;
1036:.\Generated_Source\PSoC4/BLE.c ****         char8 *ptr;
1037:.\Generated_Source\PSoC4/BLE.c **** 
1038:.\Generated_Source\PSoC4/BLE.c ****         if(NULL != name)
 956              		.loc 1 1038 0
 957 0010 7B68     		ldr	r3, [r7, #4]
 958 0012 002B     		cmp	r3, #0
 959 0014 38D0     		beq	.L54
1039:.\Generated_Source\PSoC4/BLE.c ****         {
1040:.\Generated_Source\PSoC4/BLE.c ****             /* Get the pointer to the Device Name characteristic  */
1041:.\Generated_Source\PSoC4/BLE.c ****             ptr = (char8 *) cyBle_gattDB[CYBLE_GAP_DEVICE_NAME_INDEX].attValue.attFormatValue.attGe
 960              		.loc 1 1041 0
 961 0016 224B     		ldr	r3, .L60
 962 0018 9B6B     		ldr	r3, [r3, #56]
 963 001a 3B61     		str	r3, [r7, #16]
1042:.\Generated_Source\PSoC4/BLE.c **** 
1043:.\Generated_Source\PSoC4/BLE.c ****             /* First need to get the length of the characteristic data in the GATT
1044:.\Generated_Source\PSoC4/BLE.c ****                 database to make sure there is enough place for the data. The length
1045:.\Generated_Source\PSoC4/BLE.c ****                 can't be longer than 248, so only the LSB of 16 bit of length is to
1046:.\Generated_Source\PSoC4/BLE.c ****                 be used. */
1047:.\Generated_Source\PSoC4/BLE.c ****             charLen = (uint8)cyBle_gattDB[CYBLE_GAP_DEVICE_NAME_INDEX].attValue.attFormatValue.leng
 964              		.loc 1 1047 0
 965 001c 204B     		ldr	r3, .L60
 966 001e 9A8E     		ldrh	r2, [r3, #52]
 967 0020 3B1C     		mov	r3, r7
 968 0022 0F33     		add	r3, r3, #15
 969 0024 1A70     		strb	r2, [r3]
1048:.\Generated_Source\PSoC4/BLE.c **** 
1049:.\Generated_Source\PSoC4/BLE.c ****             /* Copy name from characteristic */
1050:.\Generated_Source\PSoC4/BLE.c ****             for(i = 0u; ((i < (charLen - 1u)) && (CYBLE_NULL_CHARCTER != ptr[i])); i++)
 970              		.loc 1 1050 0
 971 0026 3B1C     		mov	r3, r7
 972 0028 1533     		add	r3, r3, #21
 973 002a 0022     		mov	r2, #0
 974 002c 1A70     		strb	r2, [r3]
 975 002e 12E0     		b	.L55
 976              	.L57:
1051:.\Generated_Source\PSoC4/BLE.c ****             {
1052:.\Generated_Source\PSoC4/BLE.c ****                 name[i] = ptr[i];
 977              		.loc 1 1052 0 discriminator 1
 978 0030 3B1C     		mov	r3, r7
 979 0032 1533     		add	r3, r3, #21
 980 0034 1B78     		ldrb	r3, [r3]
 981 0036 7A68     		ldr	r2, [r7, #4]
 982 0038 D318     		add	r3, r2, r3
 983 003a 3A1C     		mov	r2, r7
 984 003c 1532     		add	r2, r2, #21
 985 003e 1278     		ldrb	r2, [r2]
 986 0040 3969     		ldr	r1, [r7, #16]
 987 0042 8A18     		add	r2, r1, r2
 988 0044 1278     		ldrb	r2, [r2]
ARM GAS  C:\Users\ENESDU~1\AppData\Local\Temp\ccTCHFTj.s 			page 37


 989 0046 1A70     		strb	r2, [r3]
1050:.\Generated_Source\PSoC4/BLE.c ****             for(i = 0u; ((i < (charLen - 1u)) && (CYBLE_NULL_CHARCTER != ptr[i])); i++)
 990              		.loc 1 1050 0 discriminator 1
 991 0048 3B1C     		mov	r3, r7
 992 004a 1533     		add	r3, r3, #21
 993 004c 1A78     		ldrb	r2, [r3]
 994 004e 3B1C     		mov	r3, r7
 995 0050 1533     		add	r3, r3, #21
 996 0052 0132     		add	r2, r2, #1
 997 0054 1A70     		strb	r2, [r3]
 998              	.L55:
 999 0056 3B1C     		mov	r3, r7
 1000 0058 1533     		add	r3, r3, #21
 1001 005a 1A78     		ldrb	r2, [r3]
 1002 005c 3B1C     		mov	r3, r7
 1003 005e 0F33     		add	r3, r3, #15
 1004 0060 1B78     		ldrb	r3, [r3]
 1005 0062 013B     		sub	r3, r3, #1
 1006 0064 9A42     		cmp	r2, r3
 1007 0066 07D2     		bcs	.L56
1050:.\Generated_Source\PSoC4/BLE.c ****             for(i = 0u; ((i < (charLen - 1u)) && (CYBLE_NULL_CHARCTER != ptr[i])); i++)
 1008              		.loc 1 1050 0 is_stmt 0 discriminator 2
 1009 0068 3B1C     		mov	r3, r7
 1010 006a 1533     		add	r3, r3, #21
 1011 006c 1B78     		ldrb	r3, [r3]
 1012 006e 3A69     		ldr	r2, [r7, #16]
 1013 0070 D318     		add	r3, r2, r3
 1014 0072 1B78     		ldrb	r3, [r3]
 1015 0074 002B     		cmp	r3, #0
 1016 0076 DBD1     		bne	.L57
 1017              	.L56:
1053:.\Generated_Source\PSoC4/BLE.c ****             }
1054:.\Generated_Source\PSoC4/BLE.c **** 
1055:.\Generated_Source\PSoC4/BLE.c ****             /* Terminate string */
1056:.\Generated_Source\PSoC4/BLE.c ****             name[i] = CYBLE_NULL_CHARCTER;
 1018              		.loc 1 1056 0 is_stmt 1
 1019 0078 3B1C     		mov	r3, r7
 1020 007a 1533     		add	r3, r3, #21
 1021 007c 1B78     		ldrb	r3, [r3]
 1022 007e 7A68     		ldr	r2, [r7, #4]
 1023 0080 D318     		add	r3, r2, r3
 1024 0082 0022     		mov	r2, #0
 1025 0084 1A70     		strb	r2, [r3]
 1026 0086 03E0     		b	.L58
 1027              	.L54:
1057:.\Generated_Source\PSoC4/BLE.c ****         }
1058:.\Generated_Source\PSoC4/BLE.c ****         else
1059:.\Generated_Source\PSoC4/BLE.c ****         {
1060:.\Generated_Source\PSoC4/BLE.c ****             apiResult = CYBLE_ERROR_INVALID_PARAMETER;
 1028              		.loc 1 1060 0
 1029 0088 3B1C     		mov	r3, r7
 1030 008a 1633     		add	r3, r3, #22
 1031 008c 0122     		mov	r2, #1
 1032 008e 1A80     		strh	r2, [r3]
 1033              	.L58:
1061:.\Generated_Source\PSoC4/BLE.c ****         }
1062:.\Generated_Source\PSoC4/BLE.c ****         
ARM GAS  C:\Users\ENESDU~1\AppData\Local\Temp\ccTCHFTj.s 			page 38


1063:.\Generated_Source\PSoC4/BLE.c ****         return(apiResult);
 1034              		.loc 1 1063 0
 1035 0090 3B1C     		mov	r3, r7
 1036 0092 1633     		add	r3, r3, #22
 1037 0094 1B88     		ldrh	r3, [r3]
1064:.\Generated_Source\PSoC4/BLE.c ****     }
 1038              		.loc 1 1064 0
 1039 0096 181C     		mov	r0, r3
 1040 0098 BD46     		mov	sp, r7
 1041 009a 06B0     		add	sp, sp, #24
 1042              		@ sp needed
 1043 009c 80BD     		pop	{r7, pc}
 1044              	.L61:
 1045 009e C046     		.align	2
 1046              	.L60:
 1047 00a0 00000000 		.word	cyBle_gattDB
 1048              		.cfi_endproc
 1049              	.LFE10:
 1050              		.size	CyBle_GapGetLocalName, .-CyBle_GapGetLocalName
 1051              		.section	.text.CyBle_Get16ByPtr,"ax",%progbits
 1052              		.align	2
 1053              		.global	CyBle_Get16ByPtr
 1054              		.code	16
 1055              		.thumb_func
 1056              		.type	CyBle_Get16ByPtr, %function
 1057              	CyBle_Get16ByPtr:
 1058              	.LFB11:
1065:.\Generated_Source\PSoC4/BLE.c **** 
1066:.\Generated_Source\PSoC4/BLE.c **** #endif /* (CYBLE_GATT_ROLE_SERVER) */
1067:.\Generated_Source\PSoC4/BLE.c **** 
1068:.\Generated_Source\PSoC4/BLE.c **** 
1069:.\Generated_Source\PSoC4/BLE.c **** /******************************************************************************
1070:.\Generated_Source\PSoC4/BLE.c **** ##Function Name: CyBle_Get16ByPtr
1071:.\Generated_Source\PSoC4/BLE.c **** *******************************************************************************
1072:.\Generated_Source\PSoC4/BLE.c **** 
1073:.\Generated_Source\PSoC4/BLE.c **** Summary:
1074:.\Generated_Source\PSoC4/BLE.c ****  Returns the two-bytes value by using a pointer to the LSB.
1075:.\Generated_Source\PSoC4/BLE.c **** 
1076:.\Generated_Source\PSoC4/BLE.c **** Parameters:
1077:.\Generated_Source\PSoC4/BLE.c ****  uint8 * ptr: Pointer to the LSB of two-bytes data (little endian).
1078:.\Generated_Source\PSoC4/BLE.c **** 
1079:.\Generated_Source\PSoC4/BLE.c **** Return:
1080:.\Generated_Source\PSoC4/BLE.c ****  uint16 value: Two-bytes data.
1081:.\Generated_Source\PSoC4/BLE.c **** 
1082:.\Generated_Source\PSoC4/BLE.c **** ******************************************************************************/
1083:.\Generated_Source\PSoC4/BLE.c **** uint16 CyBle_Get16ByPtr(const uint8 ptr[])
1084:.\Generated_Source\PSoC4/BLE.c **** {
 1059              		.loc 1 1084 0
 1060              		.cfi_startproc
 1061 0000 80B5     		push	{r7, lr}
 1062              		.cfi_def_cfa_offset 8
 1063              		.cfi_offset 7, -8
 1064              		.cfi_offset 14, -4
 1065 0002 82B0     		sub	sp, sp, #8
 1066              		.cfi_def_cfa_offset 16
 1067 0004 00AF     		add	r7, sp, #0
 1068              		.cfi_def_cfa_register 7
ARM GAS  C:\Users\ENESDU~1\AppData\Local\Temp\ccTCHFTj.s 			page 39


 1069 0006 7860     		str	r0, [r7, #4]
1085:.\Generated_Source\PSoC4/BLE.c ****     return ((uint16) ptr[0u] | ((uint16) (((uint16) ptr[1u]) << 8u)));
 1070              		.loc 1 1085 0
 1071 0008 7B68     		ldr	r3, [r7, #4]
 1072 000a 1B78     		ldrb	r3, [r3]
 1073 000c 1A1C     		mov	r2, r3
 1074 000e 7B68     		ldr	r3, [r7, #4]
 1075 0010 0133     		add	r3, r3, #1
 1076 0012 1B78     		ldrb	r3, [r3]
 1077 0014 1B02     		lsl	r3, r3, #8
 1078 0016 9BB2     		uxth	r3, r3
 1079 0018 1343     		orr	r3, r2
 1080 001a 9BB2     		uxth	r3, r3
1086:.\Generated_Source\PSoC4/BLE.c **** }
 1081              		.loc 1 1086 0
 1082 001c 181C     		mov	r0, r3
 1083 001e BD46     		mov	sp, r7
 1084 0020 02B0     		add	sp, sp, #8
 1085              		@ sp needed
 1086 0022 80BD     		pop	{r7, pc}
 1087              		.cfi_endproc
 1088              	.LFE11:
 1089              		.size	CyBle_Get16ByPtr, .-CyBle_Get16ByPtr
 1090              		.section	.text.CyBle_Set16ByPtr,"ax",%progbits
 1091              		.align	2
 1092              		.global	CyBle_Set16ByPtr
 1093              		.code	16
 1094              		.thumb_func
 1095              		.type	CyBle_Set16ByPtr, %function
 1096              	CyBle_Set16ByPtr:
 1097              	.LFB12:
1087:.\Generated_Source\PSoC4/BLE.c **** 
1088:.\Generated_Source\PSoC4/BLE.c **** 
1089:.\Generated_Source\PSoC4/BLE.c **** /******************************************************************************
1090:.\Generated_Source\PSoC4/BLE.c **** ##Function Name: CyBle_Set16ByPtr
1091:.\Generated_Source\PSoC4/BLE.c **** *******************************************************************************
1092:.\Generated_Source\PSoC4/BLE.c **** 
1093:.\Generated_Source\PSoC4/BLE.c **** Summary:
1094:.\Generated_Source\PSoC4/BLE.c ****  Sets the two-bytes value by using a pointer to the LSB.
1095:.\Generated_Source\PSoC4/BLE.c **** 
1096:.\Generated_Source\PSoC4/BLE.c **** Parameters:
1097:.\Generated_Source\PSoC4/BLE.c ****  uint8 * ptr:   Pointer to the LSB of two-bytes data (little endian).
1098:.\Generated_Source\PSoC4/BLE.c ****  uint16 value:  Two-bytes data to be written.
1099:.\Generated_Source\PSoC4/BLE.c **** 
1100:.\Generated_Source\PSoC4/BLE.c **** Return:
1101:.\Generated_Source\PSoC4/BLE.c ****  None
1102:.\Generated_Source\PSoC4/BLE.c **** 
1103:.\Generated_Source\PSoC4/BLE.c **** ******************************************************************************/
1104:.\Generated_Source\PSoC4/BLE.c **** void CyBle_Set16ByPtr(uint8 ptr[], uint16 value)
1105:.\Generated_Source\PSoC4/BLE.c **** {
 1098              		.loc 1 1105 0
 1099              		.cfi_startproc
 1100 0000 80B5     		push	{r7, lr}
 1101              		.cfi_def_cfa_offset 8
 1102              		.cfi_offset 7, -8
 1103              		.cfi_offset 14, -4
 1104 0002 82B0     		sub	sp, sp, #8
ARM GAS  C:\Users\ENESDU~1\AppData\Local\Temp\ccTCHFTj.s 			page 40


 1105              		.cfi_def_cfa_offset 16
 1106 0004 00AF     		add	r7, sp, #0
 1107              		.cfi_def_cfa_register 7
 1108 0006 7860     		str	r0, [r7, #4]
 1109 0008 0A1C     		mov	r2, r1
 1110 000a BB1C     		add	r3, r7, #2
 1111 000c 1A80     		strh	r2, [r3]
1106:.\Generated_Source\PSoC4/BLE.c ****     ptr[0u] = (uint8) value;
 1112              		.loc 1 1106 0
 1113 000e BB1C     		add	r3, r7, #2
 1114 0010 1B88     		ldrh	r3, [r3]
 1115 0012 DAB2     		uxtb	r2, r3
 1116 0014 7B68     		ldr	r3, [r7, #4]
 1117 0016 1A70     		strb	r2, [r3]
1107:.\Generated_Source\PSoC4/BLE.c ****     ptr[1u] = (uint8) (value >> 8u);
 1118              		.loc 1 1107 0
 1119 0018 7B68     		ldr	r3, [r7, #4]
 1120 001a 0133     		add	r3, r3, #1
 1121 001c BA1C     		add	r2, r7, #2
 1122 001e 1288     		ldrh	r2, [r2]
 1123 0020 120A     		lsr	r2, r2, #8
 1124 0022 92B2     		uxth	r2, r2
 1125 0024 D2B2     		uxtb	r2, r2
 1126 0026 1A70     		strb	r2, [r3]
1108:.\Generated_Source\PSoC4/BLE.c **** }
 1127              		.loc 1 1108 0
 1128 0028 BD46     		mov	sp, r7
 1129 002a 02B0     		add	sp, sp, #8
 1130              		@ sp needed
 1131 002c 80BD     		pop	{r7, pc}
 1132              		.cfi_endproc
 1133              	.LFE12:
 1134              		.size	CyBle_Set16ByPtr, .-CyBle_Set16ByPtr
 1135 002e C046     		.bss
 1136 0001 00000000 		.align	3
 1136      000000
 1137              	cyBle_stackMemoryRam.6017:
 1138 0008 00000000 		.space	3220
 1138      00000000 
 1138      00000000 
 1138      00000000 
 1138      00000000 
 1139 0c9c 00000000 		.text
 1140              	.Letext0:
 1141              		.file 2 ".\\Generated_Source\\PSoC4\\cytypes.h"
 1142              		.file 3 ".\\Generated_Source\\PSoC4\\BLE_Stack.h"
 1143              		.file 4 ".\\Generated_Source\\PSoC4\\BLE_StackGap.h"
 1144              		.file 5 ".\\Generated_Source\\PSoC4\\BLE_StackGattDb.h"
 1145              		.file 6 ".\\Generated_Source\\PSoC4\\BLE.h"
 1146              		.file 7 ".\\Generated_Source\\PSoC4\\BLE_dis.h"
 1147              		.file 8 ".\\Generated_Source\\PSoC4\\BLE_eventHandler.h"
 1148              		.file 9 ".\\Generated_Source\\PSoC4\\BLE_gatt.h"