ARM GAS  C:\Users\ENESDU~1\AppData\Local\Temp\ccTCHFTj.s 			page 1


   1              		.cpu cortex-m0
   2              		.fpu softvfp
   3              		.eabi_attribute 20, 1
   4              		.eabi_attribute 21, 1
   5              		.eabi_attribute 23, 3
   6              		.eabi_attribute 24, 1
   7              		.eabi_attribute 25, 1
   8              		.eabi_attribute 26, 1
   9              		.eabi_attribute 30, 6
  10              		.eabi_attribute 34, 0
  11              		.eabi_attribute 18, 4
  12              		.code	16
  13              		.file	"BLE.c"
  14              		.text
  15              	.Ltext0:
  16              		.cfi_sections	.debug_frame
  17              		.global	cyBle_initVar
  18              		.bss
  19              		.type	cyBle_initVar, %object
  20              		.size	cyBle_initVar, 1
  21              	cyBle_initVar:
  22 0000 00       		.space	1
  23              		.comm	CyBle_ApplCallback,4,4
  24              		.global	cyBle_deviceAddress
  25              		.data
  26              		.align	2
  27              		.type	cyBle_deviceAddress, %object
  28              		.size	cyBle_deviceAddress, 7
  29              	cyBle_deviceAddress:
  30 0000 00       		.byte	0
  31 0001 00       		.byte	0
  32 0002 00       		.byte	0
  33 0003 50       		.byte	80
  34 0004 A0       		.byte	-96
  35 0005 00       		.byte	0
  36 0006 00       		.byte	0
  37              		.global	cyBle_sflashDeviceAddress
  38 0007 00       		.align	2
  39              		.type	cyBle_sflashDeviceAddress, %object
  40              		.size	cyBle_sflashDeviceAddress, 4
  41              	cyBle_sflashDeviceAddress:
  42 0008 00F2FF0F 		.word	268431872
  43              		.global	cyBle_discoveryParam
  44              		.align	2
  45              		.type	cyBle_discoveryParam, %object
  46              		.size	cyBle_discoveryParam, 16
  47              	cyBle_discoveryParam:
  48 000c 2000     		.short	32
  49 000e 3000     		.short	48
  50 0010 00       		.byte	0
  51 0011 00       		.byte	0
  52 0012 00       		.byte	0
  53 0013 00       		.byte	0
  54 0014 00       		.byte	0
  55 0015 00       		.byte	0
  56 0016 50       		.byte	80
  57 0017 A0       		.byte	-96
ARM GAS  C:\Users\ENESDU~1\AppData\Local\Temp\ccTCHFTj.s 			page 2


  58 0018 00       		.byte	0
  59 0019 07       		.byte	7
  60 001a 00       		.byte	0
  61 001b 00       		.space	1
  62              		.global	cyBle_discoveryData
  63              		.align	2
  64              		.type	cyBle_discoveryData, %object
  65              		.size	cyBle_discoveryData, 32
  66              	cyBle_discoveryData:
  67 001c 02       		.byte	2
  68 001d 01       		.byte	1
  69 001e 06       		.byte	6
  70 001f 03       		.byte	3
  71 0020 02       		.byte	2
  72 0021 02       		.byte	2
  73 0022 18       		.byte	24
  74 0023 03       		.byte	3
  75 0024 19       		.byte	25
  76 0025 00       		.byte	0
  77 0026 02       		.byte	2
  78 0027 00       		.byte	0
  79 0028 00       		.byte	0
  80 0029 00       		.byte	0
  81 002a 00       		.byte	0
  82 002b 00       		.byte	0
  83 002c 00       		.byte	0
  84 002d 00       		.byte	0
  85 002e 00       		.byte	0
  86 002f 00       		.byte	0
  87 0030 00       		.byte	0
  88 0031 00       		.byte	0
  89 0032 00       		.byte	0
  90 0033 00       		.byte	0
  91 0034 00       		.byte	0
  92 0035 00       		.byte	0
  93 0036 00       		.byte	0
  94 0037 00       		.byte	0
  95 0038 00       		.byte	0
  96 0039 00       		.byte	0
  97 003a 00       		.byte	0
  98 003b 0B       		.byte	11
  99              		.global	cyBle_scanRspData
 100              		.align	2
 101              		.type	cyBle_scanRspData, %object
 102              		.size	cyBle_scanRspData, 32
 103              	cyBle_scanRspData:
 104 003c 0A       		.byte	10
 105 003d 09       		.byte	9
 106 003e 42       		.byte	66
 107 003f 4C       		.byte	76
 108 0040 45       		.byte	69
 109 0041 20       		.byte	32
 110 0042 4C       		.byte	76
 111 0043 61       		.byte	97
 112 0044 62       		.byte	98
 113 0045 20       		.byte	32
 114 0046 32       		.byte	50
ARM GAS  C:\Users\ENESDU~1\AppData\Local\Temp\ccTCHFTj.s 			page 3


 115 0047 00       		.byte	0
 116 0048 00       		.byte	0
 117 0049 00       		.byte	0
 118 004a 00       		.byte	0
 119 004b 00       		.byte	0
 120 004c 00       		.byte	0
 121 004d 00       		.byte	0
 122 004e 00       		.byte	0
 123 004f 00       		.byte	0
 124 0050 00       		.byte	0
 125 0051 00       		.byte	0
 126 0052 00       		.byte	0
 127 0053 00       		.byte	0
 128 0054 00       		.byte	0
 129 0055 00       		.byte	0
 130 0056 00       		.byte	0
 131 0057 00       		.byte	0
 132 0058 00       		.byte	0
 133 0059 00       		.byte	0
 134 005a 00       		.byte	0
 135 005b 0B       		.byte	11
 136              		.global	cyBle_discoveryModeInfo
 137              		.align	2
 138              		.type	cyBle_discoveryModeInfo, %object
 139              		.size	cyBle_discoveryModeInfo, 20
 140              	cyBle_discoveryModeInfo:
 141 005c 02       		.byte	2
 142 005d 000000   		.space	3
 143 0060 00000000 		.word	cyBle_discoveryParam
 144 0064 00000000 		.word	cyBle_discoveryData
 145 0068 00000000 		.word	cyBle_scanRspData
 146 006c 1E00     		.short	30
 147 006e 0000     		.space	2
 148              		.section	.text.CyBle_Init,"ax",%progbits
 149              		.align	2
 150              		.global	CyBle_Init
 151              		.code	16
 152              		.thumb_func
 153              		.type	CyBle_Init, %function
 154              	CyBle_Init:
 155              	.LFB2:
 156              		.file 1 ".\\Generated_Source\\PSoC4\\BLE.c"
   1:.\Generated_Source\PSoC4/BLE.c **** /*******************************************************************************
   2:.\Generated_Source\PSoC4/BLE.c **** File Name: CYBLE.c
   3:.\Generated_Source\PSoC4/BLE.c **** Version 1.10
   4:.\Generated_Source\PSoC4/BLE.c **** 
   5:.\Generated_Source\PSoC4/BLE.c **** Description:
   6:.\Generated_Source\PSoC4/BLE.c ****  This file contains the source code for the Common APIs of the BLE Component.
   7:.\Generated_Source\PSoC4/BLE.c **** 
   8:.\Generated_Source\PSoC4/BLE.c **** ********************************************************************************
   9:.\Generated_Source\PSoC4/BLE.c **** Copyright 2014, Cypress Semiconductor Corporation.  All rights reserved.
  10:.\Generated_Source\PSoC4/BLE.c **** You may use this file only in accordance with the license, terms, conditions,
  11:.\Generated_Source\PSoC4/BLE.c **** disclaimers, and limitations in the end user license agreement accompanying
  12:.\Generated_Source\PSoC4/BLE.c **** the software package with which this file was provided.
  13:.\Generated_Source\PSoC4/BLE.c **** *******************************************************************************/
  14:.\Generated_Source\PSoC4/BLE.c **** 
  15:.\Generated_Source\PSoC4/BLE.c **** #include "BLE_eventHandler.h"
ARM GAS  C:\Users\ENESDU~1\AppData\Local\Temp\ccTCHFTj.s 			page 4


  16:.\Generated_Source\PSoC4/BLE.c **** #include "BLE_HAL_PVT.h"
  17:.\Generated_Source\PSoC4/BLE.c **** 
  18:.\Generated_Source\PSoC4/BLE.c **** 
  19:.\Generated_Source\PSoC4/BLE.c **** /***************************************
  20:.\Generated_Source\PSoC4/BLE.c **** ##Function Prototypes
  21:.\Generated_Source\PSoC4/BLE.c **** ***************************************/
  22:.\Generated_Source\PSoC4/BLE.c **** 
  23:.\Generated_Source\PSoC4/BLE.c **** #if(CYBLE_GATT_ROLE_SERVER)
  24:.\Generated_Source\PSoC4/BLE.c ****     #if(CYBLE_GAP_ROLE_PERIPHERAL)
  25:.\Generated_Source\PSoC4/BLE.c ****         static void CyBle_ChangeAdLocalName(const char8 name[], uint8 dest);
  26:.\Generated_Source\PSoC4/BLE.c ****     #endif /* (CYBLE_GAP_ROLE_PERIPHERAL) */
  27:.\Generated_Source\PSoC4/BLE.c **** #endif /* (CYBLE_GATT_ROLE_SERVER) */
  28:.\Generated_Source\PSoC4/BLE.c ****     
  29:.\Generated_Source\PSoC4/BLE.c **** 
  30:.\Generated_Source\PSoC4/BLE.c **** /***************************************
  31:.\Generated_Source\PSoC4/BLE.c **** ##Global Variables
  32:.\Generated_Source\PSoC4/BLE.c **** ***************************************/
  33:.\Generated_Source\PSoC4/BLE.c **** 
  34:.\Generated_Source\PSoC4/BLE.c **** uint8  cyBle_initVar = 0u;
  35:.\Generated_Source\PSoC4/BLE.c **** 
  36:.\Generated_Source\PSoC4/BLE.c **** CYBLE_CALLBACK_T CyBle_ApplCallback;
  37:.\Generated_Source\PSoC4/BLE.c **** 
  38:.\Generated_Source\PSoC4/BLE.c **** CYBLE_GAP_BD_ADDR_T cyBle_deviceAddress = {{0x00u, 0x00u, 0x00u, 0x50u, 0xA0u, 0x00u}, 0x00u };
  39:.\Generated_Source\PSoC4/BLE.c **** CYBLE_GAP_BD_ADDR_T * cyBle_sflashDeviceAddress = CYBLE_SFLASH_DEVICE_ADDRESS_PTR;
  40:.\Generated_Source\PSoC4/BLE.c **** 
  41:.\Generated_Source\PSoC4/BLE.c **** #if(CYBLE_GAP_ROLE_PERIPHERAL || CYBLE_GAP_ROLE_BROADCASTER)
  42:.\Generated_Source\PSoC4/BLE.c **** 
  43:.\Generated_Source\PSoC4/BLE.c **** CYBLE_GAPP_DISC_PARAM_T cyBle_discoveryParam =
  44:.\Generated_Source\PSoC4/BLE.c **** {
  45:.\Generated_Source\PSoC4/BLE.c ****     0x0020u,    /* uint16 advertising_interval_min */
  46:.\Generated_Source\PSoC4/BLE.c ****     0x0030u,    /* uint16 advertising_interval_max */
  47:.\Generated_Source\PSoC4/BLE.c ****     CYBLE_GAPP_CONNECTABLE_UNDIRECTED_ADV, /* uint8 advertising_type */
  48:.\Generated_Source\PSoC4/BLE.c ****     0x00u,      /* uint8 own_addr_type */
  49:.\Generated_Source\PSoC4/BLE.c ****     0x00u,      /* uint8 direct_addr_type */
  50:.\Generated_Source\PSoC4/BLE.c ****     {0x00u, 0x00u, 0x00u, 0x50u, 0xA0u, 0x00u}, /* uint8* direct_addr */
  51:.\Generated_Source\PSoC4/BLE.c ****     0x07u,      /* uint8 advertising_channel_map */
  52:.\Generated_Source\PSoC4/BLE.c ****     0x00u,      /* uint8 advertising_filter_policy */
  53:.\Generated_Source\PSoC4/BLE.c **** };
  54:.\Generated_Source\PSoC4/BLE.c **** 
  55:.\Generated_Source\PSoC4/BLE.c **** CYBLE_GAPP_DISC_DATA_T cyBle_discoveryData =
  56:.\Generated_Source\PSoC4/BLE.c **** {
  57:.\Generated_Source\PSoC4/BLE.c ****     { 0x02u, 0x01u, 0x06u, 0x03u, 0x02u, 0x02u, 0x18u,
  58:.\Generated_Source\PSoC4/BLE.c ****     0x03u, 0x19u, 0x00u, 0x02u, 0x00u, 0x00u, 0x00u, 0x00u,
  59:.\Generated_Source\PSoC4/BLE.c ****     0x00u, 0x00u, 0x00u, 0x00u, 0x00u, 0x00u, 0x00u, 0x00u,
  60:.\Generated_Source\PSoC4/BLE.c ****     0x00u, 0x00u, 0x00u, 0x00u, 0x00u, 0x00u, 0x00u, 0x00u }, /* uint8 advertising_data[CYBLE_MAX_A
  61:.\Generated_Source\PSoC4/BLE.c ****     0x0Bu,      /* uint8 adv_data_length */
  62:.\Generated_Source\PSoC4/BLE.c **** };
  63:.\Generated_Source\PSoC4/BLE.c **** 
  64:.\Generated_Source\PSoC4/BLE.c **** CYBLE_GAPP_SCAN_RSP_DATA_T cyBle_scanRspData =
  65:.\Generated_Source\PSoC4/BLE.c **** {
  66:.\Generated_Source\PSoC4/BLE.c ****     { 0x0Au, 0x09u, 0x42u, 0x4Cu, 0x45u, 0x20u, 0x4Cu,
  67:.\Generated_Source\PSoC4/BLE.c ****     0x61u, 0x62u, 0x20u, 0x32u, 0x00u, 0x00u, 0x00u, 0x00u,
  68:.\Generated_Source\PSoC4/BLE.c ****     0x00u, 0x00u, 0x00u, 0x00u, 0x00u, 0x00u, 0x00u, 0x00u,
  69:.\Generated_Source\PSoC4/BLE.c ****     0x00u, 0x00u, 0x00u, 0x00u, 0x00u, 0x00u, 0x00u, 0x00u }, /* uint8 scan_rsp_data[CYBLE_MAX_SCAN
  70:.\Generated_Source\PSoC4/BLE.c ****     0x0Bu,      /* uint8 scan_rsp_data_length */
  71:.\Generated_Source\PSoC4/BLE.c **** };
  72:.\Generated_Source\PSoC4/BLE.c **** 
ARM GAS  C:\Users\ENESDU~1\AppData\Local\Temp\ccTCHFTj.s 			page 5


  73:.\Generated_Source\PSoC4/BLE.c **** /* This variable of type CYBLE_GAPP_DISC_MODE_INFO_T is present only when 
  74:.\Generated_Source\PSoC4/BLE.c ****    the BLE component is configured for Peripheral GAP role or Central and 
  75:.\Generated_Source\PSoC4/BLE.c ****    Peripheral GAP role. It contains the Advertisement settings and also the 
  76:.\Generated_Source\PSoC4/BLE.c ****    Advertisement and Scan response data parameters entered in the customizer.
  77:.\Generated_Source\PSoC4/BLE.c ****    This variable can be used by advanced users to change Advertisement settings,
  78:.\Generated_Source\PSoC4/BLE.c ****    Advertisement or Scan response data in runtime. 
  79:.\Generated_Source\PSoC4/BLE.c **** */
  80:.\Generated_Source\PSoC4/BLE.c **** CYBLE_GAPP_DISC_MODE_INFO_T cyBle_discoveryModeInfo =
  81:.\Generated_Source\PSoC4/BLE.c **** {
  82:.\Generated_Source\PSoC4/BLE.c ****     0x02u,      /* uint8 discMode */
  83:.\Generated_Source\PSoC4/BLE.c ****     &cyBle_discoveryParam,
  84:.\Generated_Source\PSoC4/BLE.c ****     &cyBle_discoveryData,
  85:.\Generated_Source\PSoC4/BLE.c ****     &cyBle_scanRspData,
  86:.\Generated_Source\PSoC4/BLE.c ****     0x001Eu,    /* uint16 advTo */
  87:.\Generated_Source\PSoC4/BLE.c **** };
  88:.\Generated_Source\PSoC4/BLE.c **** 
  89:.\Generated_Source\PSoC4/BLE.c **** 
  90:.\Generated_Source\PSoC4/BLE.c **** #endif /* CYBLE_GAP_ROLE_PERIPHERAL || CYBLE_GAP_ROLE_BROADCASTER */
  91:.\Generated_Source\PSoC4/BLE.c **** 
  92:.\Generated_Source\PSoC4/BLE.c **** #if(CYBLE_GAP_ROLE_CENTRAL)
  93:.\Generated_Source\PSoC4/BLE.c ****     
  94:.\Generated_Source\PSoC4/BLE.c **** CYBLE_GAPC_CONN_PARAM_T cyBle_connectionParameters;
  95:.\Generated_Source\PSoC4/BLE.c **** 
  96:.\Generated_Source\PSoC4/BLE.c **** /* Connecting timeout is set to 30 seconds in CyBle_Init function. 
  97:.\Generated_Source\PSoC4/BLE.c ****    Not zero value starts timer in CyBle_GapcConnectDevice API.
  98:.\Generated_Source\PSoC4/BLE.c **** */
  99:.\Generated_Source\PSoC4/BLE.c **** uint16 cyBle_connectingTimeout;
 100:.\Generated_Source\PSoC4/BLE.c ****     
 101:.\Generated_Source\PSoC4/BLE.c **** #endif /* CYBLE_GAP_ROLE_CENTRAL */
 102:.\Generated_Source\PSoC4/BLE.c **** 
 103:.\Generated_Source\PSoC4/BLE.c **** #if(CYBLE_GAP_ROLE_CENTRAL || CYBLE_GAP_ROLE_OBSERVER)
 104:.\Generated_Source\PSoC4/BLE.c ****     
 105:.\Generated_Source\PSoC4/BLE.c **** 
 106:.\Generated_Source\PSoC4/BLE.c ****     
 107:.\Generated_Source\PSoC4/BLE.c **** #endif /* CYBLE_GAP_ROLE_CENTRAL || CYBLE_GAP_ROLE_OBSERVER */
 108:.\Generated_Source\PSoC4/BLE.c **** 
 109:.\Generated_Source\PSoC4/BLE.c **** #if((CYBLE_GAP_ROLE_PERIPHERAL || CYBLE_GAP_ROLE_CENTRAL) && (CYBLE_BONDING_REQUIREMENT == CYBLE_BO
 110:.\Generated_Source\PSoC4/BLE.c **** 
 111:.\Generated_Source\PSoC4/BLE.c **** uint8 cyBle_pendingFlashWrite;
 112:.\Generated_Source\PSoC4/BLE.c ****     
 113:.\Generated_Source\PSoC4/BLE.c **** #endif  /* (CYBLE_BONDING_REQUIREMENT == CYBLE_BONDING_YES) */
 114:.\Generated_Source\PSoC4/BLE.c **** 
 115:.\Generated_Source\PSoC4/BLE.c **** 
 116:.\Generated_Source\PSoC4/BLE.c **** /******************************************************************************
 117:.\Generated_Source\PSoC4/BLE.c **** ##Function Name: CyBle_Init
 118:.\Generated_Source\PSoC4/BLE.c **** *******************************************************************************
 119:.\Generated_Source\PSoC4/BLE.c ****  Summary:
 120:.\Generated_Source\PSoC4/BLE.c ****   Initializes the component with the parameters set in the customizer.
 121:.\Generated_Source\PSoC4/BLE.c **** 
 122:.\Generated_Source\PSoC4/BLE.c ****  Parameters:
 123:.\Generated_Source\PSoC4/BLE.c ****   None
 124:.\Generated_Source\PSoC4/BLE.c **** 
 125:.\Generated_Source\PSoC4/BLE.c ****  Return:
 126:.\Generated_Source\PSoC4/BLE.c ****   None
 127:.\Generated_Source\PSoC4/BLE.c **** 
 128:.\Generated_Source\PSoC4/BLE.c **** ******************************************************************************/
 129:.\Generated_Source\PSoC4/BLE.c **** void CyBle_Init(void)
ARM GAS  C:\Users\ENESDU~1\AppData\Local\Temp\ccTCHFTj.s 			page 6


 130:.\Generated_Source\PSoC4/BLE.c **** {
 157              		.loc 1 130 0
 158              		.cfi_startproc
 159 0000 80B5     		push	{r7, lr}
 160              		.cfi_def_cfa_offset 8
 161              		.cfi_offset 7, -8
 162              		.cfi_offset 14, -4
 163 0002 00AF     		add	r7, sp, #0
 164              		.cfi_def_cfa_register 7
 131:.\Generated_Source\PSoC4/BLE.c ****     cyBle_eventHandlerFlag = 0u;
 165              		.loc 1 131 0
 166 0004 064B     		ldr	r3, .L2
 167 0006 0022     		mov	r2, #0
 168 0008 1A70     		strb	r2, [r3]
 132:.\Generated_Source\PSoC4/BLE.c ****     cyBle_busStatus = CYBLE_STACK_STATE_FREE;
 169              		.loc 1 132 0
 170 000a 064B     		ldr	r3, .L2+4
 171 000c 0022     		mov	r2, #0
 172 000e 1A70     		strb	r2, [r3]
 133:.\Generated_Source\PSoC4/BLE.c ****     
 134:.\Generated_Source\PSoC4/BLE.c ****     #if(CYBLE_GAP_ROLE_PERIPHERAL || CYBLE_GAP_ROLE_BROADCASTER) 
 135:.\Generated_Source\PSoC4/BLE.c ****         cyBle_advertisingIntervalType = CYBLE_ADVERTISING_FAST; 
 173              		.loc 1 135 0
 174 0010 054B     		ldr	r3, .L2+8
 175 0012 0022     		mov	r2, #0
 176 0014 1A70     		strb	r2, [r3]
 136:.\Generated_Source\PSoC4/BLE.c ****     #endif /* (CYBLE_GAP_ROLE_PERIPHERAL || CYBLE_GAP_ROLE_BROADCASTER)  */
 137:.\Generated_Source\PSoC4/BLE.c ****     #if(CYBLE_GAP_ROLE_CENTRAL || CYBLE_GAP_ROLE_OBSERVER)
 138:.\Generated_Source\PSoC4/BLE.c ****         cyBle_scanningIntervalType = CYBLE_SCANNING_FAST; 
 139:.\Generated_Source\PSoC4/BLE.c ****     #endif /* (CYBLE_GAP_ROLE_CENTRAL || CYBLE_GAP_ROLE_OBSERVER) */
 140:.\Generated_Source\PSoC4/BLE.c ****         
 141:.\Generated_Source\PSoC4/BLE.c ****     /* Init default connection parameters. 
 142:.\Generated_Source\PSoC4/BLE.c ****        Application may change it before initiating a connection */
 143:.\Generated_Source\PSoC4/BLE.c ****     #if(CYBLE_GAP_ROLE_CENTRAL)
 144:.\Generated_Source\PSoC4/BLE.c ****         cyBle_connectionParameters.scanIntv = cyBle_discoveryInfo.scanIntv;
 145:.\Generated_Source\PSoC4/BLE.c ****         cyBle_connectionParameters.scanWindow = cyBle_discoveryInfo.scanWindow;
 146:.\Generated_Source\PSoC4/BLE.c ****         cyBle_connectionParameters.ownAddrType = cyBle_discoveryInfo.ownAddrType;
 147:.\Generated_Source\PSoC4/BLE.c ****         cyBle_connectionParameters.initiatorFilterPolicy = cyBle_discoveryInfo.scanFilterPolicy;
 148:.\Generated_Source\PSoC4/BLE.c ****         cyBle_connectionParameters.connIntvMin = CYBLE_GAPC_CONNECTION_INTERVAL_MIN;
 149:.\Generated_Source\PSoC4/BLE.c ****         cyBle_connectionParameters.connIntvMax = CYBLE_GAPC_CONNECTION_INTERVAL_MAX;
 150:.\Generated_Source\PSoC4/BLE.c ****         cyBle_connectionParameters.connLatency = CYBLE_GAPC_CONNECTION_SLAVE_LATENCY;
 151:.\Generated_Source\PSoC4/BLE.c ****         cyBle_connectionParameters.supervisionTO = CYBLE_GAPC_CONNECTION_TIME_OUT;
 152:.\Generated_Source\PSoC4/BLE.c ****         cyBle_connectionParameters.minCeLength = 0x0000u;
 153:.\Generated_Source\PSoC4/BLE.c ****         cyBle_connectionParameters.maxCeLength = 0xFFFFu;
 154:.\Generated_Source\PSoC4/BLE.c ****         
 155:.\Generated_Source\PSoC4/BLE.c ****         cyBle_discoveryInfo.scanType = 0x01u; /* Active scanning (0x01) */
 156:.\Generated_Source\PSoC4/BLE.c ****         
 157:.\Generated_Source\PSoC4/BLE.c ****         cyBle_connectingTimeout = CYBLE_GAPC_CONNECTING_TIMEOUT;
 158:.\Generated_Source\PSoC4/BLE.c ****     #endif /* CYBLE_GAP_ROLE_CENTRAL */
 159:.\Generated_Source\PSoC4/BLE.c **** 
 160:.\Generated_Source\PSoC4/BLE.c ****     CyBle_ServiceInit();
 177              		.loc 1 160 0
 178 0016 FFF7FEFF 		bl	CyBle_ServiceInit
 161:.\Generated_Source\PSoC4/BLE.c **** 
 162:.\Generated_Source\PSoC4/BLE.c **** #if((CYBLE_GAP_ROLE_PERIPHERAL || CYBLE_GAP_ROLE_CENTRAL) && (CYBLE_BONDING_REQUIREMENT == CYBLE_BO
 163:.\Generated_Source\PSoC4/BLE.c ****     cyBle_pendingFlashWrite = 0u;
 164:.\Generated_Source\PSoC4/BLE.c **** #endif  /* (CYBLE_BONDING_REQUIREMENT == CYBLE_BONDING_YES) */
ARM GAS  C:\Users\ENESDU~1\AppData\Local\Temp\ccTCHFTj.s 			page 7


 165:.\Generated_Source\PSoC4/BLE.c **** 
 166:.\Generated_Source\PSoC4/BLE.c **** }
 179              		.loc 1 166 0
 180 001a BD46     		mov	sp, r7
 181              		@ sp needed
 182 001c 80BD     		pop	{r7, pc}
 183              	.L3:
 184 001e C046     		.align	2
 185              	.L2:
 186 0020 00000000 		.word	cyBle_eventHandlerFlag
 187 0024 00000000 		.word	cyBle_busStatus
 188 0028 00000000 		.word	cyBle_advertisingIntervalType
 189              		.cfi_endproc
 190              	.LFE2:
 191              		.size	CyBle_Init, .-CyBle_Init
 192              		.section	.text.CyBle_ServiceInit,"ax",%progbits
 193              		.align	2
 194              		.global	CyBle_ServiceInit
 195              		.code	16
 196              		.thumb_func
 197              		.type	CyBle_ServiceInit, %function
 198              	CyBle_ServiceInit:
 199              	.LFB3:
 167:.\Generated_Source\PSoC4/BLE.c **** 
 168:.\Generated_Source\PSoC4/BLE.c **** 
 169:.\Generated_Source\PSoC4/BLE.c **** /******************************************************************************
 170:.\Generated_Source\PSoC4/BLE.c **** ##Function Name: CyBle_ServiceInit
 171:.\Generated_Source\PSoC4/BLE.c **** *******************************************************************************
 172:.\Generated_Source\PSoC4/BLE.c **** 
 173:.\Generated_Source\PSoC4/BLE.c **** Summary:
 174:.\Generated_Source\PSoC4/BLE.c ****  Initializes all included services.
 175:.\Generated_Source\PSoC4/BLE.c **** 
 176:.\Generated_Source\PSoC4/BLE.c **** Parameters:
 177:.\Generated_Source\PSoC4/BLE.c ****  None
 178:.\Generated_Source\PSoC4/BLE.c **** 
 179:.\Generated_Source\PSoC4/BLE.c **** Return:
 180:.\Generated_Source\PSoC4/BLE.c ****  None
 181:.\Generated_Source\PSoC4/BLE.c **** 
 182:.\Generated_Source\PSoC4/BLE.c **** ******************************************************************************/
 183:.\Generated_Source\PSoC4/BLE.c **** void CyBle_ServiceInit(void)
 184:.\Generated_Source\PSoC4/BLE.c **** {
 200              		.loc 1 184 0
 201              		.cfi_startproc
 202 0000 80B5     		push	{r7, lr}
 203              		.cfi_def_cfa_offset 8
 204              		.cfi_offset 7, -8
 205              		.cfi_offset 14, -4
 206 0002 00AF     		add	r7, sp, #0
 207              		.cfi_def_cfa_register 7
 185:.\Generated_Source\PSoC4/BLE.c ****     #if(CYBLE_GATT_ROLE_CLIENT)
 186:.\Generated_Source\PSoC4/BLE.c ****         (void)memset(&cyBle_gapc, 0, sizeof(cyBle_gapc));
 187:.\Generated_Source\PSoC4/BLE.c ****         (void)memset(&cyBle_gattc, 0, sizeof(cyBle_gattc));
 188:.\Generated_Source\PSoC4/BLE.c ****     #endif /* CYBLE_GATT_ROLE_CLIENT */
 189:.\Generated_Source\PSoC4/BLE.c ****     
 190:.\Generated_Source\PSoC4/BLE.c ****     #ifdef CYBLE_ANS
 191:.\Generated_Source\PSoC4/BLE.c ****         CyBle_AnsInit();
 192:.\Generated_Source\PSoC4/BLE.c ****     #endif /* CYBLE_ANS */
ARM GAS  C:\Users\ENESDU~1\AppData\Local\Temp\ccTCHFTj.s 			page 8


 193:.\Generated_Source\PSoC4/BLE.c ****     
 194:.\Generated_Source\PSoC4/BLE.c ****     #ifdef CYBLE_BAS
 195:.\Generated_Source\PSoC4/BLE.c ****         CyBle_BasInit();
 196:.\Generated_Source\PSoC4/BLE.c ****     #endif /* CYBLE_BAS */
 197:.\Generated_Source\PSoC4/BLE.c ****     
 198:.\Generated_Source\PSoC4/BLE.c ****     #ifdef CYBLE_BLS
 199:.\Generated_Source\PSoC4/BLE.c ****         CyBle_BlsInit();
 200:.\Generated_Source\PSoC4/BLE.c ****     #endif /* CYBLE_BLS */
 201:.\Generated_Source\PSoC4/BLE.c **** 
 202:.\Generated_Source\PSoC4/BLE.c ****     #ifdef CYBLE_CPS
 203:.\Generated_Source\PSoC4/BLE.c ****         CyBle_CpsInit();
 204:.\Generated_Source\PSoC4/BLE.c ****     #endif /* CYBLE_CPS */
 205:.\Generated_Source\PSoC4/BLE.c **** 
 206:.\Generated_Source\PSoC4/BLE.c ****     #ifdef CYBLE_CSCS
 207:.\Generated_Source\PSoC4/BLE.c ****         CyBle_CscsInit();
 208:.\Generated_Source\PSoC4/BLE.c ****     #endif /* CYBLE_CSCS */
 209:.\Generated_Source\PSoC4/BLE.c ****     
 210:.\Generated_Source\PSoC4/BLE.c ****     #ifdef CYBLE_CTS
 211:.\Generated_Source\PSoC4/BLE.c ****         CyBle_CtsInit();
 212:.\Generated_Source\PSoC4/BLE.c ****     #endif /* CYBLE_CTS */
 213:.\Generated_Source\PSoC4/BLE.c **** 
 214:.\Generated_Source\PSoC4/BLE.c ****     #ifdef CYBLE_DIS
 215:.\Generated_Source\PSoC4/BLE.c ****         CyBle_DisInit();
 208              		.loc 1 215 0
 209 0004 FFF7FEFF 		bl	CyBle_DisInit
 216:.\Generated_Source\PSoC4/BLE.c ****     #endif /* CYBLE_DIS */
 217:.\Generated_Source\PSoC4/BLE.c **** 
 218:.\Generated_Source\PSoC4/BLE.c ****     #ifdef CYBLE_GLS
 219:.\Generated_Source\PSoC4/BLE.c ****         CyBle_GlsInit();
 220:.\Generated_Source\PSoC4/BLE.c ****     #endif /* CYBLE_GLS */
 221:.\Generated_Source\PSoC4/BLE.c ****     
 222:.\Generated_Source\PSoC4/BLE.c ****     #ifdef CYBLE_HIDS
 223:.\Generated_Source\PSoC4/BLE.c ****         CyBle_HidsInit();
 224:.\Generated_Source\PSoC4/BLE.c ****     #endif /* CYBLE_HIDS */
 225:.\Generated_Source\PSoC4/BLE.c **** 
 226:.\Generated_Source\PSoC4/BLE.c ****     #ifdef CYBLE_HRS
 227:.\Generated_Source\PSoC4/BLE.c ****         CyBle_HrsInit();
 228:.\Generated_Source\PSoC4/BLE.c ****     #endif /* CYBLE_HRS */
 229:.\Generated_Source\PSoC4/BLE.c ****     
 230:.\Generated_Source\PSoC4/BLE.c ****     #ifdef CYBLE_HTS
 231:.\Generated_Source\PSoC4/BLE.c ****         CyBle_HtsInit();
 232:.\Generated_Source\PSoC4/BLE.c ****     #endif /* CYBLE_RSCS */
 233:.\Generated_Source\PSoC4/BLE.c **** 
 234:.\Generated_Source\PSoC4/BLE.c ****     #ifdef CYBLE_IAS
 235:.\Generated_Source\PSoC4/BLE.c ****         CyBle_IasInit();
 210              		.loc 1 235 0
 211 0008 FFF7FEFF 		bl	CyBle_IasInit
 236:.\Generated_Source\PSoC4/BLE.c ****     #endif /* CYBLE_IAS */
 237:.\Generated_Source\PSoC4/BLE.c **** 
 238:.\Generated_Source\PSoC4/BLE.c ****     #ifdef CYBLE_LLS
 239:.\Generated_Source\PSoC4/BLE.c ****         CyBle_LlsInit();
 240:.\Generated_Source\PSoC4/BLE.c ****     #endif /* CYBLE_LLS */
 241:.\Generated_Source\PSoC4/BLE.c **** 
 242:.\Generated_Source\PSoC4/BLE.c ****     #ifdef CYBLE_RTUS
 243:.\Generated_Source\PSoC4/BLE.c ****         CyBle_RtusInit();
 244:.\Generated_Source\PSoC4/BLE.c ****     #endif /* CYBLE_RTUS */
 245:.\Generated_Source\PSoC4/BLE.c **** 
ARM GAS  C:\Users\ENESDU~1\AppData\Local\Temp\ccTCHFTj.s 			page 9


 246:.\Generated_Source\PSoC4/BLE.c ****     #ifdef CYBLE_LNS
 247:.\Generated_Source\PSoC4/BLE.c ****         CyBle_LnsInit();
 248:.\Generated_Source\PSoC4/BLE.c ****     #endif /* CYBLE_LNS */
 249:.\Generated_Source\PSoC4/BLE.c ****     
 250:.\Generated_Source\PSoC4/BLE.c ****     #ifdef CYBLE_PASS
 251:.\Generated_Source\PSoC4/BLE.c ****         CyBle_PassInit();
 252:.\Generated_Source\PSoC4/BLE.c ****     #endif /* CYBLE_PASS */
 253:.\Generated_Source\PSoC4/BLE.c ****     
 254:.\Generated_Source\PSoC4/BLE.c ****     #ifdef CYBLE_RSCS
 255:.\Generated_Source\PSoC4/BLE.c ****         CyBle_RscsInit();
 256:.\Generated_Source\PSoC4/BLE.c ****     #endif /* CYBLE_RSCS */
 257:.\Generated_Source\PSoC4/BLE.c **** 
 258:.\Generated_Source\PSoC4/BLE.c ****     #ifdef CYBLE_SCPS
 259:.\Generated_Source\PSoC4/BLE.c ****         CyBle_ScpsInit();
 260:.\Generated_Source\PSoC4/BLE.c ****     #endif /* CYBLE_SCPS */
 261:.\Generated_Source\PSoC4/BLE.c ****     
 262:.\Generated_Source\PSoC4/BLE.c ****     #ifdef CYBLE_TPS
 263:.\Generated_Source\PSoC4/BLE.c ****         CyBle_TpsInit();
 264:.\Generated_Source\PSoC4/BLE.c ****     #endif /* CYBLE_TPS */
 265:.\Generated_Source\PSoC4/BLE.c **** 
 266:.\Generated_Source\PSoC4/BLE.c **** }
 212              		.loc 1 266 0
 213 000c BD46     		mov	sp, r7
 214              		@ sp needed
 215 000e 80BD     		pop	{r7, pc}
 216              		.cfi_endproc
 217              	.LFE3:
 218              		.size	CyBle_ServiceInit, .-CyBle_ServiceInit
 219              		.section	.text.CyBle_Start,"ax",%progbits
 220              		.align	2
 221              		.global	CyBle_Start
 222              		.code	16
 223              		.thumb_func
 224              		.type	CyBle_Start, %function
 225              	CyBle_Start:
 226              	.LFB4:
 267:.\Generated_Source\PSoC4/BLE.c **** 
 268:.\Generated_Source\PSoC4/BLE.c **** 
 269:.\Generated_Source\PSoC4/BLE.c **** /******************************************************************************
 270:.\Generated_Source\PSoC4/BLE.c **** ##Function Name: CyBle_Start
 271:.\Generated_Source\PSoC4/BLE.c **** *******************************************************************************
 272:.\Generated_Source\PSoC4/BLE.c **** 
 273:.\Generated_Source\PSoC4/BLE.c **** Summary:
 274:.\Generated_Source\PSoC4/BLE.c ****  This function initializes the BLE Stack, which consists of the BLE Stack 
 275:.\Generated_Source\PSoC4/BLE.c ****  Manager, BLE Controller, and BLE Host modules. It takes care of initializing
 276:.\Generated_Source\PSoC4/BLE.c ****  the Profile layer, schedulers, Timer and other platform related
 277:.\Generated_Source\PSoC4/BLE.c ****  resources required for the BLE component. It also registers the callback 
 278:.\Generated_Source\PSoC4/BLE.c ****  function for BLE events that will be registered in the BLE stack.
 279:.\Generated_Source\PSoC4/BLE.c **** 
 280:.\Generated_Source\PSoC4/BLE.c ****  Note that this function does not reset the BLE Stack.
 281:.\Generated_Source\PSoC4/BLE.c **** 
 282:.\Generated_Source\PSoC4/BLE.c ****  For HCI-Mode of operation, this function will not initialize the BLE Host 
 283:.\Generated_Source\PSoC4/BLE.c ****  module.
 284:.\Generated_Source\PSoC4/BLE.c **** 
 285:.\Generated_Source\PSoC4/BLE.c ****  Calling this function results in the generation of CYBLE_EVT_STACK_ON event
 286:.\Generated_Source\PSoC4/BLE.c ****  on successful initialization of the BLE Stack.
 287:.\Generated_Source\PSoC4/BLE.c **** 
ARM GAS  C:\Users\ENESDU~1\AppData\Local\Temp\ccTCHFTj.s 			page 10


 288:.\Generated_Source\PSoC4/BLE.c **** Parameters:
 289:.\Generated_Source\PSoC4/BLE.c ****  callbackFunc: Event callback function to receive events from BLE stack.
 290:.\Generated_Source\PSoC4/BLE.c ****   CYBLE_CALLBACK_T is a function pointer type.
 291:.\Generated_Source\PSoC4/BLE.c **** 
 292:.\Generated_Source\PSoC4/BLE.c **** Return:
 293:.\Generated_Source\PSoC4/BLE.c ****  CYBLE_API_RESULT_T : Return value indicates if the function succeeded or 
 294:.\Generated_Source\PSoC4/BLE.c ****  failed. Following are the possible error codes.
 295:.\Generated_Source\PSoC4/BLE.c ****  <table>
 296:.\Generated_Source\PSoC4/BLE.c ****   Errors codes                        Description
 297:.\Generated_Source\PSoC4/BLE.c ****   ------------                        -----------------
 298:.\Generated_Source\PSoC4/BLE.c ****   CYBLE_ERROR_OK                      On successful operation.
 299:.\Generated_Source\PSoC4/BLE.c ****   CYBLE_ERROR_INVALID_PARAMETER       On passing a NULL pointer to the 
 300:.\Generated_Source\PSoC4/BLE.c ****                                        function when the BLE stack is not 
 301:.\Generated_Source\PSoC4/BLE.c ****                                        built in HCI mode.
 302:.\Generated_Source\PSoC4/BLE.c ****                                        CYBLE_ERROR_INVALID_PARAMETER
 303:.\Generated_Source\PSoC4/BLE.c ****                                        is never returned in HCI mode.
 304:.\Generated_Source\PSoC4/BLE.c ****   CYBLE_ERROR_REPEATED_ATTEMPTS       On invoking this function more
 305:.\Generated_Source\PSoC4/BLE.c ****                                        than once without calling
 306:.\Generated_Source\PSoC4/BLE.c ****                                        CyBle_Shutdown() function 
 307:.\Generated_Source\PSoC4/BLE.c ****                                        between calls to this function.
 308:.\Generated_Source\PSoC4/BLE.c ****  </table>
 309:.\Generated_Source\PSoC4/BLE.c **** 
 310:.\Generated_Source\PSoC4/BLE.c **** ******************************************************************************/
 311:.\Generated_Source\PSoC4/BLE.c **** CYBLE_API_RESULT_T CyBle_Start(CYBLE_CALLBACK_T callbackFunc)
 312:.\Generated_Source\PSoC4/BLE.c **** {
 227              		.loc 1 312 0
 228              		.cfi_startproc
 229 0000 90B5     		push	{r4, r7, lr}
 230              		.cfi_def_cfa_offset 12
 231              		.cfi_offset 4, -12
 232              		.cfi_offset 7, -8
 233              		.cfi_offset 14, -4
 234 0002 85B0     		sub	sp, sp, #20
 235              		.cfi_def_cfa_offset 32
 236 0004 00AF     		add	r7, sp, #0
 237              		.cfi_def_cfa_register 7
 238 0006 7860     		str	r0, [r7, #4]
 313:.\Generated_Source\PSoC4/BLE.c ****     CYBLE_API_RESULT_T apiResult = CYBLE_ERROR_INVALID_PARAMETER;
 239              		.loc 1 313 0
 240 0008 3B1C     		mov	r3, r7
 241 000a 0E33     		add	r3, r3, #14
 242 000c 0122     		mov	r2, #1
 243 000e 1A80     		strh	r2, [r3]
 314:.\Generated_Source\PSoC4/BLE.c ****     
 315:.\Generated_Source\PSoC4/BLE.c ****     /* Allocate RAM memory for stack */
 316:.\Generated_Source\PSoC4/BLE.c ****     CYBLE_CYALIGNED static uint8 cyBle_stackMemoryRam[CYBLE_STACK_RAM_SIZE];
 317:.\Generated_Source\PSoC4/BLE.c ****     
 318:.\Generated_Source\PSoC4/BLE.c ****     /* If not initialized then initialize all the required hardware and software */
 319:.\Generated_Source\PSoC4/BLE.c ****     if(cyBle_initVar == 0u)
 244              		.loc 1 319 0
 245 0010 194B     		ldr	r3, .L9
 246 0012 1B78     		ldrb	r3, [r3]
 247 0014 002B     		cmp	r3, #0
 248 0016 04D1     		bne	.L6
 320:.\Generated_Source\PSoC4/BLE.c ****     {
 321:.\Generated_Source\PSoC4/BLE.c ****         CyBle_Init();
 249              		.loc 1 321 0
ARM GAS  C:\Users\ENESDU~1\AppData\Local\Temp\ccTCHFTj.s 			page 11


 250 0018 FFF7FEFF 		bl	CyBle_Init
 322:.\Generated_Source\PSoC4/BLE.c ****         cyBle_initVar = 1u;
 251              		.loc 1 322 0
 252 001c 164B     		ldr	r3, .L9
 253 001e 0122     		mov	r2, #1
 254 0020 1A70     		strb	r2, [r3]
 255              	.L6:
 323:.\Generated_Source\PSoC4/BLE.c ****     }
 324:.\Generated_Source\PSoC4/BLE.c ****     
 325:.\Generated_Source\PSoC4/BLE.c ****     if(NULL != callbackFunc)
 256              		.loc 1 325 0
 257 0022 7B68     		ldr	r3, [r7, #4]
 258 0024 002B     		cmp	r3, #0
 259 0026 1FD0     		beq	.L7
 326:.\Generated_Source\PSoC4/BLE.c ****     {
 327:.\Generated_Source\PSoC4/BLE.c ****         CyBle_ApplCallback = callbackFunc;
 260              		.loc 1 327 0
 261 0028 144B     		ldr	r3, .L9+4
 262 002a 7A68     		ldr	r2, [r7, #4]
 263 002c 1A60     		str	r2, [r3]
 328:.\Generated_Source\PSoC4/BLE.c **** 
 329:.\Generated_Source\PSoC4/BLE.c ****         apiResult = CyBle_StackInit(&CyBle_EventHandler, cyBle_stackMemoryRam, CYBLE_GATT_MTU);
 264              		.loc 1 329 0
 265 002e 3C1C     		mov	r4, r7
 266 0030 0E34     		add	r4, r4, #14
 267 0032 134A     		ldr	r2, .L9+8
 268 0034 134B     		ldr	r3, .L9+12
 269 0036 101C     		mov	r0, r2
 270 0038 191C     		mov	r1, r3
 271 003a 1722     		mov	r2, #23
 272 003c FFF7FEFF 		bl	CyBle_StackInit
 273 0040 031C     		mov	r3, r0
 274 0042 2380     		strh	r3, [r4]
 330:.\Generated_Source\PSoC4/BLE.c **** 
 331:.\Generated_Source\PSoC4/BLE.c ****         if(apiResult == CYBLE_ERROR_OK)
 275              		.loc 1 331 0
 276 0044 3B1C     		mov	r3, r7
 277 0046 0E33     		add	r3, r3, #14
 278 0048 1B88     		ldrh	r3, [r3]
 279 004a 002B     		cmp	r3, #0
 280 004c 0CD1     		bne	.L7
 332:.\Generated_Source\PSoC4/BLE.c ****         {
 333:.\Generated_Source\PSoC4/BLE.c ****             CyBle_SetState(CYBLE_STATE_INITIALIZING);
 281              		.loc 1 333 0
 282 004e 0E4B     		ldr	r3, .L9+16
 283 0050 0122     		mov	r2, #1
 284 0052 1A70     		strb	r2, [r3]
 334:.\Generated_Source\PSoC4/BLE.c ****             
 335:.\Generated_Source\PSoC4/BLE.c ****         #if (CYBLE_GATT_ROLE_CLIENT)
 336:.\Generated_Source\PSoC4/BLE.c ****             CyBle_SetClientState(CYBLE_CLIENT_STATE_DISCONNECTED);
 337:.\Generated_Source\PSoC4/BLE.c ****         #endif /* CYBLE_GATT_ROLE_CLIENT */
 338:.\Generated_Source\PSoC4/BLE.c ****             
 339:.\Generated_Source\PSoC4/BLE.c ****         #if(CYBLE_GATT_ROLE_SERVER)
 340:.\Generated_Source\PSoC4/BLE.c ****             apiResult = CyBle_GattsDbRegister(cyBle_gattDB, CYBLE_GATT_DB_INDEX_COUNT, CYBLE_GATT_D
 285              		.loc 1 340 0
 286 0054 3C1C     		mov	r4, r7
 287 0056 0E34     		add	r4, r4, #14
ARM GAS  C:\Users\ENESDU~1\AppData\Local\Temp\ccTCHFTj.s 			page 12


 288 0058 0C4B     		ldr	r3, .L9+20
 289 005a 181C     		mov	r0, r3
 290 005c 2121     		mov	r1, #33
 291 005e 0922     		mov	r2, #9
 292 0060 FFF7FEFF 		bl	CyBle_GattsDbRegister
 293 0064 031C     		mov	r3, r0
 294 0066 2380     		strh	r3, [r4]
 295              	.L7:
 341:.\Generated_Source\PSoC4/BLE.c ****         #endif /* CYBLE_GATT_ROLE_SERVER */
 342:.\Generated_Source\PSoC4/BLE.c ****         }
 343:.\Generated_Source\PSoC4/BLE.c ****     }
 344:.\Generated_Source\PSoC4/BLE.c **** 
 345:.\Generated_Source\PSoC4/BLE.c ****     return (apiResult);
 296              		.loc 1 345 0
 297 0068 3B1C     		mov	r3, r7
 298 006a 0E33     		add	r3, r3, #14
 299 006c 1B88     		ldrh	r3, [r3]
 346:.\Generated_Source\PSoC4/BLE.c **** }
 300              		.loc 1 346 0
 301 006e 181C     		mov	r0, r3
 302 0070 BD46     		mov	sp, r7
 303 0072 05B0     		add	sp, sp, #20
 304              		@ sp needed
 305 0074 90BD     		pop	{r4, r7, pc}
 306              	.L10:
 307 0076 C046     		.align	2
 308              	.L9:
 309 0078 00000000 		.word	cyBle_initVar
 310 007c 00000000 		.word	CyBle_ApplCallback
 311 0080 00000000 		.word	CyBle_EventHandler
 312 0084 08000000 		.word	cyBle_stackMemoryRam.6017
 313 0088 00000000 		.word	cyBle_state
 314 008c 00000000 		.word	cyBle_gattDB
 315              		.cfi_endproc
 316              	.LFE4:
 317              		.size	CyBle_Start, .-CyBle_Start
 318              		.section	.text.CyBle_Stop,"ax",%progbits
 319              		.align	2
 320              		.global	CyBle_Stop
 321              		.code	16
 322              		.thumb_func
 323              		.type	CyBle_Stop, %function
 324              	CyBle_Stop:
 325              	.LFB5:
 347:.\Generated_Source\PSoC4/BLE.c **** 
 348:.\Generated_Source\PSoC4/BLE.c **** 
 349:.\Generated_Source\PSoC4/BLE.c **** /******************************************************************************
 350:.\Generated_Source\PSoC4/BLE.c **** ##Function Name: CyBle_Stop
 351:.\Generated_Source\PSoC4/BLE.c **** *******************************************************************************
 352:.\Generated_Source\PSoC4/BLE.c **** 
 353:.\Generated_Source\PSoC4/BLE.c **** Summary:
 354:.\Generated_Source\PSoC4/BLE.c ****  This function stops any ongoing operation in the BLE Stack and forces the 
 355:.\Generated_Source\PSoC4/BLE.c ****  BLE Stack to shut down. The only function that can be called after calling
 356:.\Generated_Source\PSoC4/BLE.c ****  this function is CyBle_Start(). 
 357:.\Generated_Source\PSoC4/BLE.c **** 
 358:.\Generated_Source\PSoC4/BLE.c **** Parameters:
 359:.\Generated_Source\PSoC4/BLE.c ****  None
ARM GAS  C:\Users\ENESDU~1\AppData\Local\Temp\ccTCHFTj.s 			page 13


 360:.\Generated_Source\PSoC4/BLE.c **** 
 361:.\Generated_Source\PSoC4/BLE.c **** Return:
 362:.\Generated_Source\PSoC4/BLE.c ****  None
 363:.\Generated_Source\PSoC4/BLE.c **** 
 364:.\Generated_Source\PSoC4/BLE.c **** ******************************************************************************/
 365:.\Generated_Source\PSoC4/BLE.c **** void CyBle_Stop(void)
 366:.\Generated_Source\PSoC4/BLE.c **** {
 326              		.loc 1 366 0
 327              		.cfi_startproc
 328 0000 80B5     		push	{r7, lr}
 329              		.cfi_def_cfa_offset 8
 330              		.cfi_offset 7, -8
 331              		.cfi_offset 14, -4
 332 0002 00AF     		add	r7, sp, #0
 333              		.cfi_def_cfa_register 7
 367:.\Generated_Source\PSoC4/BLE.c ****     CyBle_Shutdown(); /* stop all ongoing activities */
 334              		.loc 1 367 0
 335 0004 FFF7FEFF 		bl	CyBle_Shutdown
 368:.\Generated_Source\PSoC4/BLE.c ****     CyBle_ProcessEvents(); /* process all pending events */
 336              		.loc 1 368 0
 337 0008 FFF7FEFF 		bl	CyBle_ProcessEvents
 369:.\Generated_Source\PSoC4/BLE.c ****     CyBle_SetState(CYBLE_STATE_STOPPED);
 338              		.loc 1 369 0
 339 000c 024B     		ldr	r3, .L12
 340 000e 0022     		mov	r2, #0
 341 0010 1A70     		strb	r2, [r3]
 370:.\Generated_Source\PSoC4/BLE.c **** }
 342              		.loc 1 370 0
 343 0012 BD46     		mov	sp, r7
 344              		@ sp needed
 345 0014 80BD     		pop	{r7, pc}
 346              	.L13:
 347 0016 C046     		.align	2
 348              	.L12:
 349 0018 00000000 		.word	cyBle_state
 350              		.cfi_endproc
 351              	.LFE5:
 352              		.size	CyBle_Stop, .-CyBle_Stop
 353              		.section	.text.CyBle_GappStartAdvertisement,"ax",%progbits
 354              		.align	2
 355              		.global	CyBle_GappStartAdvertisement
 356              		.code	16
 357              		.thumb_func
 358              		.type	CyBle_GappStartAdvertisement, %function
 359              	CyBle_GappStartAdvertisement:
 360              	.LFB6:
 371:.\Generated_Source\PSoC4/BLE.c **** 
 372:.\Generated_Source\PSoC4/BLE.c **** 
 373:.\Generated_Source\PSoC4/BLE.c **** #if((CYBLE_GAP_ROLE_PERIPHERAL || CYBLE_GAP_ROLE_CENTRAL) && (CYBLE_BONDING_REQUIREMENT == CYBLE_BO
 374:.\Generated_Source\PSoC4/BLE.c **** 
 375:.\Generated_Source\PSoC4/BLE.c ****     
 376:.\Generated_Source\PSoC4/BLE.c **** /******************************************************************************
 377:.\Generated_Source\PSoC4/BLE.c **** ##Function Name: CyBle_StoreBondingData
 378:.\Generated_Source\PSoC4/BLE.c **** *******************************************************************************
 379:.\Generated_Source\PSoC4/BLE.c **** 
 380:.\Generated_Source\PSoC4/BLE.c **** Summary:
 381:.\Generated_Source\PSoC4/BLE.c ****  This function writes the new bonding data from RAM to the dedicated Flash 
ARM GAS  C:\Users\ENESDU~1\AppData\Local\Temp\ccTCHFTj.s 			page 14


 382:.\Generated_Source\PSoC4/BLE.c ****  location as defined by the component. It performs data comparing between RAM
 383:.\Generated_Source\PSoC4/BLE.c ****  and Flash before writing to Flash. If there is no change between RAM and Flash
 384:.\Generated_Source\PSoC4/BLE.c ****  data, then no write is performed. It writes only one flash row in one call.
 385:.\Generated_Source\PSoC4/BLE.c ****  Application should keep calling this function till API return CYBLE_ERROR_OK. 
 386:.\Generated_Source\PSoC4/BLE.c ****  This function is available only when Bonding requirement is selected in
 387:.\Generated_Source\PSoC4/BLE.c ****  Security settings.    
 388:.\Generated_Source\PSoC4/BLE.c ****     
 389:.\Generated_Source\PSoC4/BLE.c **** Parameters:
 390:.\Generated_Source\PSoC4/BLE.c ****  isForceWrite:  If value is set to 0, then stack will check if flash write 
 391:.\Generated_Source\PSoC4/BLE.c ****                 is permissible. 
 392:.\Generated_Source\PSoC4/BLE.c ****  
 393:.\Generated_Source\PSoC4/BLE.c **** Return:
 394:.\Generated_Source\PSoC4/BLE.c ****  Return value is of type CYBLE_API_RESULT_T.
 395:.\Generated_Source\PSoC4/BLE.c ****  * CYBLE_ERROR_OK - On successful operation
 396:.\Generated_Source\PSoC4/BLE.c ****  * CYBLE_ERROR_FLASH_WRITE_NOT_PERMITED - Flash Write is not complete
 397:.\Generated_Source\PSoC4/BLE.c ****    
 398:.\Generated_Source\PSoC4/BLE.c ****  Side Effects:
 399:.\Generated_Source\PSoC4/BLE.c ****   This API will automatically modify the clock settings for the device.
 400:.\Generated_Source\PSoC4/BLE.c ****   Writing to flash requires changes to be done to the IMO (set to 48 MHz)
 401:.\Generated_Source\PSoC4/BLE.c ****   and HFCLK (source set to IMO) settings. The configuration is restored before
 402:.\Generated_Source\PSoC4/BLE.c ****   returning. This will impact the operation of most of the hardware in the
 403:.\Generated_Source\PSoC4/BLE.c ****   device.
 404:.\Generated_Source\PSoC4/BLE.c **** 
 405:.\Generated_Source\PSoC4/BLE.c **** ******************************************************************************/
 406:.\Generated_Source\PSoC4/BLE.c **** CYBLE_API_RESULT_T CyBle_StoreBondingData(uint8 isForceWrite)
 407:.\Generated_Source\PSoC4/BLE.c **** {
 408:.\Generated_Source\PSoC4/BLE.c ****     CYBLE_API_RESULT_T apiResult = CYBLE_ERROR_OK;
 409:.\Generated_Source\PSoC4/BLE.c ****     
 410:.\Generated_Source\PSoC4/BLE.c ****     /* Store Stack data */
 411:.\Generated_Source\PSoC4/BLE.c ****     if((cyBle_pendingFlashWrite & CYBLE_PENDING_STACK_FLASH_WRITE_BIT) != 0u)
 412:.\Generated_Source\PSoC4/BLE.c ****     {
 413:.\Generated_Source\PSoC4/BLE.c ****         apiResult = CyBle_StoreStackData(isForceWrite);
 414:.\Generated_Source\PSoC4/BLE.c ****         if(apiResult == CYBLE_ERROR_OK)
 415:.\Generated_Source\PSoC4/BLE.c ****         {
 416:.\Generated_Source\PSoC4/BLE.c ****             cyBle_pendingFlashWrite &= (uint8)~CYBLE_PENDING_STACK_FLASH_WRITE_BIT;
 417:.\Generated_Source\PSoC4/BLE.c ****             /* Change apiResult if there are more pending data to store */
 418:.\Generated_Source\PSoC4/BLE.c ****             if((cyBle_pendingFlashWrite & CYBLE_PENDING_CCCD_FLASH_WRITE_BIT) != 0u)
 419:.\Generated_Source\PSoC4/BLE.c ****             {
 420:.\Generated_Source\PSoC4/BLE.c ****                 apiResult = CYBLE_ERROR_FLASH_WRITE_NOT_PERMITED;
 421:.\Generated_Source\PSoC4/BLE.c ****             }
 422:.\Generated_Source\PSoC4/BLE.c ****         }
 423:.\Generated_Source\PSoC4/BLE.c ****     }
 424:.\Generated_Source\PSoC4/BLE.c **** #if(CYBLE_GATT_DB_CCCD_COUNT != 0u)
 425:.\Generated_Source\PSoC4/BLE.c ****     /* Store CCCD values */
 426:.\Generated_Source\PSoC4/BLE.c ****     if( ((apiResult == CYBLE_ERROR_OK) || (isForceWrite != 0u)) && 
 427:.\Generated_Source\PSoC4/BLE.c ****         ((cyBle_pendingFlashWrite & CYBLE_PENDING_CCCD_FLASH_WRITE_BIT) != 0u) &&
 428:.\Generated_Source\PSoC4/BLE.c ****         (cyBle_connHandle.bdHandle <= CYBLE_GAP_MAX_BONDED_DEVICE))
 429:.\Generated_Source\PSoC4/BLE.c ****     {
 430:.\Generated_Source\PSoC4/BLE.c ****         apiResult = CyBle_StoreAppData(cyBle_attValuesCCCD, cyBle_attValuesCCCDFlashMemory[cyBle_co
 431:.\Generated_Source\PSoC4/BLE.c ****                                        CYBLE_GATT_DB_CCCD_COUNT, isForceWrite);
 432:.\Generated_Source\PSoC4/BLE.c ****         if(apiResult == CYBLE_ERROR_OK)
 433:.\Generated_Source\PSoC4/BLE.c ****         {
 434:.\Generated_Source\PSoC4/BLE.c ****             cyBle_pendingFlashWrite &= (uint8)~CYBLE_PENDING_CCCD_FLASH_WRITE_BIT;
 435:.\Generated_Source\PSoC4/BLE.c ****         }
 436:.\Generated_Source\PSoC4/BLE.c ****     }
 437:.\Generated_Source\PSoC4/BLE.c **** #endif /* CYBLE_GATT_DB_CCCD_COUNT != 0u */
 438:.\Generated_Source\PSoC4/BLE.c ****     return(apiResult);
ARM GAS  C:\Users\ENESDU~1\AppData\Local\Temp\ccTCHFTj.s 			page 15


 439:.\Generated_Source\PSoC4/BLE.c **** }
 440:.\Generated_Source\PSoC4/BLE.c **** 
 441:.\Generated_Source\PSoC4/BLE.c **** 
 442:.\Generated_Source\PSoC4/BLE.c **** #endif /* (CYBLE_GAP_ROLE_PERIPHERAL || CYBLE_GAP_ROLE_CENTRAL) && (CYBLE_BONDING_REQUIREMENT == CY
 443:.\Generated_Source\PSoC4/BLE.c **** 
 444:.\Generated_Source\PSoC4/BLE.c **** 
 445:.\Generated_Source\PSoC4/BLE.c **** #if(CYBLE_GAP_ROLE_PERIPHERAL || CYBLE_GAP_ROLE_BROADCASTER)
 446:.\Generated_Source\PSoC4/BLE.c **** 
 447:.\Generated_Source\PSoC4/BLE.c ****     /******************************************************************************
 448:.\Generated_Source\PSoC4/BLE.c ****     ##Function Name: CyBle_GappStartAdvertisement
 449:.\Generated_Source\PSoC4/BLE.c ****     *******************************************************************************
 450:.\Generated_Source\PSoC4/BLE.c ****     
 451:.\Generated_Source\PSoC4/BLE.c ****     Summary:
 452:.\Generated_Source\PSoC4/BLE.c ****      This function is used to start the advertisement using the advertisement data 
 453:.\Generated_Source\PSoC4/BLE.c ****      set in the component customizer's GUI. After invoking this API, the device 
 454:.\Generated_Source\PSoC4/BLE.c ****      will be available for connection by the devices configured for GAP central 
 455:.\Generated_Source\PSoC4/BLE.c ****      role. It is only included if the device is configured for GAP Peripheral or 
 456:.\Generated_Source\PSoC4/BLE.c ****      GAP Peripheral + Central role.
 457:.\Generated_Source\PSoC4/BLE.c ****      
 458:.\Generated_Source\PSoC4/BLE.c ****      On start of advertisement, GAP Peripheral receives the
 459:.\Generated_Source\PSoC4/BLE.c ****      CYBLE_EVT_GAPP_ADVERTISEMENT_START_STOP event. The following events are 
 460:.\Generated_Source\PSoC4/BLE.c ****      possible on invoking this function:
 461:.\Generated_Source\PSoC4/BLE.c ****      
 462:.\Generated_Source\PSoC4/BLE.c ****      * CYBLE_EVT_GAP_DEVICE_CONNECTED: If the device connects to remote GAP 
 463:.\Generated_Source\PSoC4/BLE.c ****                                          Central device
 464:.\Generated_Source\PSoC4/BLE.c ****      * CYBLE_EVT_TIMEOUT: If no device in GAP Central mode connects to this 
 465:.\Generated_Source\PSoC4/BLE.c ****                           device within the specified timeout limit. Stack 
 466:.\Generated_Source\PSoC4/BLE.c ****                           automatically initiate stop advertising when Slow 
 467:.\Generated_Source\PSoC4/BLE.c ****                           advertising was initiated, or starts Slow advertising
 468:.\Generated_Source\PSoC4/BLE.c ****                           after Fast advertising timeout occur.
 469:.\Generated_Source\PSoC4/BLE.c ****      * CYBLE_EVT_GAPP_ADVERTISEMENT_START_STOP: If device started or stopped
 470:.\Generated_Source\PSoC4/BLE.c ****                                                   advertising. Use CyBle_GetState()
 471:.\Generated_Source\PSoC4/BLE.c ****                                                   to determine the state. Sequential 
 472:.\Generated_Source\PSoC4/BLE.c ****                                                   advertising could be started when
 473:.\Generated_Source\PSoC4/BLE.c ****                                                   CYBLE_STATE_DISCONNECTED state is
 474:.\Generated_Source\PSoC4/BLE.c ****                                                   returned.
 475:.\Generated_Source\PSoC4/BLE.c **** 
 476:.\Generated_Source\PSoC4/BLE.c ****     Parameters:
 477:.\Generated_Source\PSoC4/BLE.c ****      uint8 advertisingIntervalType: Fast or slow advertising interval with timings
 478:.\Generated_Source\PSoC4/BLE.c ****                                     entered in Advertising settings section of the
 479:.\Generated_Source\PSoC4/BLE.c ****                                     customizer.
 480:.\Generated_Source\PSoC4/BLE.c ****      * CYBLE_ADVERTISING_FAST   0x00u
 481:.\Generated_Source\PSoC4/BLE.c ****      * CYBLE_ADVERTISING_SLOW   0x01u
 482:.\Generated_Source\PSoC4/BLE.c ****      * CYBLE_ADVERTISING_CUSTOM 0x02u
 483:.\Generated_Source\PSoC4/BLE.c ****     
 484:.\Generated_Source\PSoC4/BLE.c ****     Return:
 485:.\Generated_Source\PSoC4/BLE.c ****      CYBLE_API_RESULT_T : Return value indicates if the function succeeded or
 486:.\Generated_Source\PSoC4/BLE.c ****      failed. Following are the possible error codes.
 487:.\Generated_Source\PSoC4/BLE.c ****      <table>
 488:.\Generated_Source\PSoC4/BLE.c ****       Errors codes                        Description
 489:.\Generated_Source\PSoC4/BLE.c ****       ------------                        -----------
 490:.\Generated_Source\PSoC4/BLE.c ****       CYBLE_ERROR_OK                      On successful operation.
 491:.\Generated_Source\PSoC4/BLE.c ****       CYBLE_ERROR_INVALID_PARAMETER       On passing an invalid parameter.
 492:.\Generated_Source\PSoC4/BLE.c ****      </table>
 493:.\Generated_Source\PSoC4/BLE.c ****     
 494:.\Generated_Source\PSoC4/BLE.c ****     ******************************************************************************/
 495:.\Generated_Source\PSoC4/BLE.c ****     CYBLE_API_RESULT_T CyBle_GappStartAdvertisement(uint8 advertisingIntervalType)
ARM GAS  C:\Users\ENESDU~1\AppData\Local\Temp\ccTCHFTj.s 			page 16


 496:.\Generated_Source\PSoC4/BLE.c ****     {
 361              		.loc 1 496 0
 362              		.cfi_startproc
 363 0000 90B5     		push	{r4, r7, lr}
 364              		.cfi_def_cfa_offset 12
 365              		.cfi_offset 4, -12
 366              		.cfi_offset 7, -8
 367              		.cfi_offset 14, -4
 368 0002 85B0     		sub	sp, sp, #20
 369              		.cfi_def_cfa_offset 32
 370 0004 00AF     		add	r7, sp, #0
 371              		.cfi_def_cfa_register 7
 372 0006 021C     		mov	r2, r0
 373 0008 FB1D     		add	r3, r7, #7
 374 000a 1A70     		strb	r2, [r3]
 497:.\Generated_Source\PSoC4/BLE.c ****         CYBLE_API_RESULT_T apiResult;
 498:.\Generated_Source\PSoC4/BLE.c ****         
 499:.\Generated_Source\PSoC4/BLE.c ****         if((CYBLE_STATE_DISCONNECTED == CyBle_GetState()) && ((cyBle_eventHandlerFlag & CYBLE_START
 375              		.loc 1 499 0
 376 000c 294B     		ldr	r3, .L21
 377 000e 1B78     		ldrb	r3, [r3]
 378 0010 042B     		cmp	r3, #4
 379 0012 42D1     		bne	.L15
 380              		.loc 1 499 0 is_stmt 0 discriminator 1
 381 0014 284B     		ldr	r3, .L21+4
 382 0016 1B78     		ldrb	r3, [r3]
 383 0018 DBB2     		uxtb	r3, r3
 384 001a 1A1C     		mov	r2, r3
 385 001c 0423     		mov	r3, #4
 386 001e 1340     		and	r3, r2
 387 0020 3BD1     		bne	.L15
 500:.\Generated_Source\PSoC4/BLE.c ****         {   
 501:.\Generated_Source\PSoC4/BLE.c ****             if(advertisingIntervalType == CYBLE_ADVERTISING_FAST)
 388              		.loc 1 501 0 is_stmt 1
 389 0022 FB1D     		add	r3, r7, #7
 390 0024 1B78     		ldrb	r3, [r3]
 391 0026 002B     		cmp	r3, #0
 392 0028 0BD1     		bne	.L16
 502:.\Generated_Source\PSoC4/BLE.c ****             {
 503:.\Generated_Source\PSoC4/BLE.c ****                 cyBle_discoveryModeInfo.advTo = CYBLE_FAST_ADV_TIMEOUT;
 393              		.loc 1 503 0
 394 002a 244B     		ldr	r3, .L21+8
 395 002c 1E22     		mov	r2, #30
 396 002e 1A82     		strh	r2, [r3, #16]
 504:.\Generated_Source\PSoC4/BLE.c ****                 cyBle_discoveryModeInfo.advParam->advIntvMin = CYBLE_FAST_ADV_INT_MIN;
 397              		.loc 1 504 0
 398 0030 224B     		ldr	r3, .L21+8
 399 0032 5B68     		ldr	r3, [r3, #4]
 400 0034 2022     		mov	r2, #32
 401 0036 1A80     		strh	r2, [r3]
 505:.\Generated_Source\PSoC4/BLE.c ****                 cyBle_discoveryModeInfo.advParam->advIntvMax = CYBLE_FAST_ADV_INT_MAX;
 402              		.loc 1 505 0
 403 0038 204B     		ldr	r3, .L21+8
 404 003a 5B68     		ldr	r3, [r3, #4]
 405 003c 3022     		mov	r2, #48
 406 003e 5A80     		strh	r2, [r3, #2]
 407 0040 10E0     		b	.L17
ARM GAS  C:\Users\ENESDU~1\AppData\Local\Temp\ccTCHFTj.s 			page 17


 408              	.L16:
 506:.\Generated_Source\PSoC4/BLE.c ****             }
 507:.\Generated_Source\PSoC4/BLE.c ****             else if(advertisingIntervalType == CYBLE_ADVERTISING_SLOW)
 409              		.loc 1 507 0
 410 0042 FB1D     		add	r3, r7, #7
 411 0044 1B78     		ldrb	r3, [r3]
 412 0046 012B     		cmp	r3, #1
 413 0048 0CD1     		bne	.L17
 508:.\Generated_Source\PSoC4/BLE.c ****             {
 509:.\Generated_Source\PSoC4/BLE.c ****                 cyBle_discoveryModeInfo.advTo = CYBLE_SLOW_ADV_TIMEOUT;
 414              		.loc 1 509 0
 415 004a 1C4B     		ldr	r3, .L21+8
 416 004c 9622     		mov	r2, #150
 417 004e 1A82     		strh	r2, [r3, #16]
 510:.\Generated_Source\PSoC4/BLE.c ****                 cyBle_discoveryModeInfo.advParam->advIntvMin = CYBLE_SLOW_ADV_INT_MIN;
 418              		.loc 1 510 0
 419 0050 1A4B     		ldr	r3, .L21+8
 420 0052 5B68     		ldr	r3, [r3, #4]
 421 0054 C822     		mov	r2, #200
 422 0056 D200     		lsl	r2, r2, #3
 423 0058 1A80     		strh	r2, [r3]
 511:.\Generated_Source\PSoC4/BLE.c ****                 cyBle_discoveryModeInfo.advParam->advIntvMax = CYBLE_SLOW_ADV_INT_MAX;
 424              		.loc 1 511 0
 425 005a 184B     		ldr	r3, .L21+8
 426 005c 5B68     		ldr	r3, [r3, #4]
 427 005e 8022     		mov	r2, #128
 428 0060 D201     		lsl	r2, r2, #7
 429 0062 5A80     		strh	r2, [r3, #2]
 430              	.L17:
 512:.\Generated_Source\PSoC4/BLE.c ****             }       
 513:.\Generated_Source\PSoC4/BLE.c ****             else /* Do not update advertising intervals */
 514:.\Generated_Source\PSoC4/BLE.c ****             {
 515:.\Generated_Source\PSoC4/BLE.c ****             }
 516:.\Generated_Source\PSoC4/BLE.c ****             cyBle_advertisingIntervalType = advertisingIntervalType;
 431              		.loc 1 516 0
 432 0064 164B     		ldr	r3, .L21+12
 433 0066 FA1D     		add	r2, r7, #7
 434 0068 1278     		ldrb	r2, [r2]
 435 006a 1A70     		strb	r2, [r3]
 517:.\Generated_Source\PSoC4/BLE.c ****             apiResult = CyBle_GappEnterDiscoveryMode(&cyBle_discoveryModeInfo);
 436              		.loc 1 517 0
 437 006c 3C1C     		mov	r4, r7
 438 006e 0E34     		add	r4, r4, #14
 439 0070 124B     		ldr	r3, .L21+8
 440 0072 181C     		mov	r0, r3
 441 0074 FFF7FEFF 		bl	CyBle_GappEnterDiscoveryMode
 442 0078 031C     		mov	r3, r0
 443 007a 2380     		strh	r3, [r4]
 518:.\Generated_Source\PSoC4/BLE.c ****         
 519:.\Generated_Source\PSoC4/BLE.c ****             if(CYBLE_ERROR_OK == apiResult)
 444              		.loc 1 519 0
 445 007c 3B1C     		mov	r3, r7
 446 007e 0E33     		add	r3, r3, #14
 447 0080 1B88     		ldrh	r3, [r3]
 448 0082 002B     		cmp	r3, #0
 449 0084 08D1     		bne	.L18
 520:.\Generated_Source\PSoC4/BLE.c ****             {
ARM GAS  C:\Users\ENESDU~1\AppData\Local\Temp\ccTCHFTj.s 			page 18


 521:.\Generated_Source\PSoC4/BLE.c ****                 cyBle_eventHandlerFlag |= CYBLE_START_FLAG;
 450              		.loc 1 521 0
 451 0086 0C4B     		ldr	r3, .L21+4
 452 0088 1B78     		ldrb	r3, [r3]
 453 008a DBB2     		uxtb	r3, r3
 454 008c 0422     		mov	r2, #4
 455 008e 1343     		orr	r3, r2
 456 0090 DAB2     		uxtb	r2, r3
 457 0092 094B     		ldr	r3, .L21+4
 458 0094 1A70     		strb	r2, [r3]
 519:.\Generated_Source\PSoC4/BLE.c ****             if(CYBLE_ERROR_OK == apiResult)
 459              		.loc 1 519 0
 460 0096 05E0     		b	.L19
 461              	.L18:
 519:.\Generated_Source\PSoC4/BLE.c ****             if(CYBLE_ERROR_OK == apiResult)
 462              		.loc 1 519 0 is_stmt 0 discriminator 1
 463 0098 04E0     		b	.L19
 464              	.L15:
 522:.\Generated_Source\PSoC4/BLE.c ****             }
 523:.\Generated_Source\PSoC4/BLE.c ****         }
 524:.\Generated_Source\PSoC4/BLE.c ****         else
 525:.\Generated_Source\PSoC4/BLE.c ****         {
 526:.\Generated_Source\PSoC4/BLE.c ****             apiResult = CYBLE_ERROR_INVALID_STATE;
 465              		.loc 1 526 0 is_stmt 1
 466 009a 3B1C     		mov	r3, r7
 467 009c 0E33     		add	r3, r3, #14
 468 009e 8322     		mov	r2, #131
 469 00a0 5200     		lsl	r2, r2, #1
 470 00a2 1A80     		strh	r2, [r3]
 471              	.L19:
 527:.\Generated_Source\PSoC4/BLE.c ****         }
 528:.\Generated_Source\PSoC4/BLE.c **** 
 529:.\Generated_Source\PSoC4/BLE.c ****         return (apiResult);
 472              		.loc 1 529 0
 473 00a4 3B1C     		mov	r3, r7
 474 00a6 0E33     		add	r3, r3, #14
 475 00a8 1B88     		ldrh	r3, [r3]
 530:.\Generated_Source\PSoC4/BLE.c ****     }
 476              		.loc 1 530 0
 477 00aa 181C     		mov	r0, r3
 478 00ac BD46     		mov	sp, r7
 479 00ae 05B0     		add	sp, sp, #20
 480              		@ sp needed
 481 00b0 90BD     		pop	{r4, r7, pc}
 482              	.L22:
 483 00b2 C046     		.align	2
 484              	.L21:
 485 00b4 00000000 		.word	cyBle_state
 486 00b8 00000000 		.word	cyBle_eventHandlerFlag
 487 00bc 00000000 		.word	cyBle_discoveryModeInfo
 488 00c0 00000000 		.word	cyBle_advertisingIntervalType
 489              		.cfi_endproc
 490              	.LFE6:
 491              		.size	CyBle_GappStartAdvertisement, .-CyBle_GappStartAdvertisement
 492              		.section	.text.CyBle_GappStopAdvertisement,"ax",%progbits
 493              		.align	2
 494              		.global	CyBle_GappStopAdvertisement
ARM GAS  C:\Users\ENESDU~1\AppData\Local\Temp\ccTCHFTj.s 			page 19


 495              		.code	16
 496              		.thumb_func
 497              		.type	CyBle_GappStopAdvertisement, %function
 498              	CyBle_GappStopAdvertisement:
 499              	.LFB7:
 531:.\Generated_Source\PSoC4/BLE.c **** 
 532:.\Generated_Source\PSoC4/BLE.c ****     
 533:.\Generated_Source\PSoC4/BLE.c ****     /******************************************************************************
 534:.\Generated_Source\PSoC4/BLE.c ****     ##Function Name: CyBle_GappStopAdvertisement
 535:.\Generated_Source\PSoC4/BLE.c ****     *******************************************************************************
 536:.\Generated_Source\PSoC4/BLE.c ****     
 537:.\Generated_Source\PSoC4/BLE.c ****      Summary:
 538:.\Generated_Source\PSoC4/BLE.c ****       This function can be used to exit from discovery mode. After the execution 
 539:.\Generated_Source\PSoC4/BLE.c ****       of this function, there will no longer be any advertisements. On stopping 
 540:.\Generated_Source\PSoC4/BLE.c ****       advertising, GAP Peripheral receives CYBLE_EVT_GAPP_ADVERTISEMENT_START_STOP
 541:.\Generated_Source\PSoC4/BLE.c ****       event. It is expected that the application layer tracks the function call 
 542:.\Generated_Source\PSoC4/BLE.c ****       performed before occurrence of this event as this event can occur on making 
 543:.\Generated_Source\PSoC4/BLE.c ****       a call to Cy_BleGappStartAdvertisement(), CyBle_GappEnterDiscoveryMode(), 
 544:.\Generated_Source\PSoC4/BLE.c ****       or CyBle_GappStartAdvertisement() functions as well.
 545:.\Generated_Source\PSoC4/BLE.c ****       
 546:.\Generated_Source\PSoC4/BLE.c ****       The following event occurs on invoking this function:
 547:.\Generated_Source\PSoC4/BLE.c ****       * CYBLE_EVT_GAPP_ADVERTISEMENT_START_STOP
 548:.\Generated_Source\PSoC4/BLE.c ****     
 549:.\Generated_Source\PSoC4/BLE.c ****      Parameters:
 550:.\Generated_Source\PSoC4/BLE.c ****       None
 551:.\Generated_Source\PSoC4/BLE.c ****     
 552:.\Generated_Source\PSoC4/BLE.c ****      Return:
 553:.\Generated_Source\PSoC4/BLE.c ****       None
 554:.\Generated_Source\PSoC4/BLE.c ****     
 555:.\Generated_Source\PSoC4/BLE.c ****     ******************************************************************************/
 556:.\Generated_Source\PSoC4/BLE.c ****     void CyBle_GappStopAdvertisement(void)
 557:.\Generated_Source\PSoC4/BLE.c ****     {
 500              		.loc 1 557 0
 501              		.cfi_startproc
 502 0000 80B5     		push	{r7, lr}
 503              		.cfi_def_cfa_offset 8
 504              		.cfi_offset 7, -8
 505              		.cfi_offset 14, -4
 506 0002 00AF     		add	r7, sp, #0
 507              		.cfi_def_cfa_register 7
 558:.\Generated_Source\PSoC4/BLE.c ****         CyBle_GappExitDiscoveryMode();
 508              		.loc 1 558 0
 509 0004 FFF7FEFF 		bl	CyBle_GappExitDiscoveryMode
 559:.\Generated_Source\PSoC4/BLE.c ****         cyBle_eventHandlerFlag |= CYBLE_STOP_FLAG;
 510              		.loc 1 559 0
 511 0008 044B     		ldr	r3, .L24
 512 000a 1B78     		ldrb	r3, [r3]
 513 000c DBB2     		uxtb	r3, r3
 514 000e 0822     		mov	r2, #8
 515 0010 1343     		orr	r3, r2
 516 0012 DAB2     		uxtb	r2, r3
 517 0014 014B     		ldr	r3, .L24
 518 0016 1A70     		strb	r2, [r3]
 560:.\Generated_Source\PSoC4/BLE.c ****     }
 519              		.loc 1 560 0
 520 0018 BD46     		mov	sp, r7
 521              		@ sp needed
ARM GAS  C:\Users\ENESDU~1\AppData\Local\Temp\ccTCHFTj.s 			page 20


 522 001a 80BD     		pop	{r7, pc}
 523              	.L25:
 524              		.align	2
 525              	.L24:
 526 001c 00000000 		.word	cyBle_eventHandlerFlag
 527              		.cfi_endproc
 528              	.LFE7:
 529              		.size	CyBle_GappStopAdvertisement, .-CyBle_GappStopAdvertisement
 530              		.section	.text.CyBle_ChangeAdLocalName,"ax",%progbits
 531              		.align	2
 532              		.code	16
 533              		.thumb_func
 534              		.type	CyBle_ChangeAdLocalName, %function
 535              	CyBle_ChangeAdLocalName:
 536              	.LFB8:
 561:.\Generated_Source\PSoC4/BLE.c ****     
 562:.\Generated_Source\PSoC4/BLE.c **** #endif /* CYBLE_GAP_ROLE_PERIPHERAL || CYBLE_GAP_ROLE_BROADCASTER */
 563:.\Generated_Source\PSoC4/BLE.c **** 
 564:.\Generated_Source\PSoC4/BLE.c **** 
 565:.\Generated_Source\PSoC4/BLE.c **** #if(CYBLE_GAP_ROLE_CENTRAL || CYBLE_GAP_ROLE_OBSERVER)
 566:.\Generated_Source\PSoC4/BLE.c **** 
 567:.\Generated_Source\PSoC4/BLE.c ****     /******************************************************************************
 568:.\Generated_Source\PSoC4/BLE.c ****     ##Function Name: CyBle_GapcStartScan
 569:.\Generated_Source\PSoC4/BLE.c ****     *******************************************************************************
 570:.\Generated_Source\PSoC4/BLE.c ****     
 571:.\Generated_Source\PSoC4/BLE.c ****      Summary:
 572:.\Generated_Source\PSoC4/BLE.c ****       This function is used for discovering GAP peripheral devices that are 
 573:.\Generated_Source\PSoC4/BLE.c ****       available for connection. It performs the scanning routine using the 
 574:.\Generated_Source\PSoC4/BLE.c ****       parameters entered in the component's customizer.
 575:.\Generated_Source\PSoC4/BLE.c ****       
 576:.\Generated_Source\PSoC4/BLE.c ****       As soon as the discovery operation starts, CYBLE_EVT_GAPC_SCAN_START_STOP 
 577:.\Generated_Source\PSoC4/BLE.c ****       event is generated. The CYBLE_EVT_GAPC_SCAN_PROGRESS_RESULT event is 
 578:.\Generated_Source\PSoC4/BLE.c ****       generated when a GAP peripheral device is located. There are three discovery
 579:.\Generated_Source\PSoC4/BLE.c ****       procedures can be selected in the customizer's GUI:
 580:.\Generated_Source\PSoC4/BLE.c ****       
 581:.\Generated_Source\PSoC4/BLE.c ****       * Observation procedure: A device performing the observer role receives only
 582:.\Generated_Source\PSoC4/BLE.c ****                                advertisement data from devices irrespective of 
 583:.\Generated_Source\PSoC4/BLE.c ****                                their discoverable mode settings. Advertisement 
 584:.\Generated_Source\PSoC4/BLE.c ****                                data received is provided by the event,      
 585:.\Generated_Source\PSoC4/BLE.c ****                                CYBLE_EVT_GAPC_SCAN_PROGRESS_RESULT. This procedure
 586:.\Generated_Source\PSoC4/BLE.c ****                                requires the scanType sub parameter to be passive
 587:.\Generated_Source\PSoC4/BLE.c ****                                scanning. 
 588:.\Generated_Source\PSoC4/BLE.c ****       
 589:.\Generated_Source\PSoC4/BLE.c ****       * Limited Discovery procedure: A device performing the limited discovery
 590:.\Generated_Source\PSoC4/BLE.c ****                                      procedure receives advertisement data and 
 591:.\Generated_Source\PSoC4/BLE.c ****                                      scan# response data from devices in the 
 592:.\Generated_Source\PSoC4/BLE.c ****                                      limited discoverable mode only. Received data
 593:.\Generated_Source\PSoC4/BLE.c ****                                      is provided by the event, 
 594:.\Generated_Source\PSoC4/BLE.c ****                                      CYBLE_EVT_GAPC_SCAN_PROGRESS_RESULT. This 
 595:.\Generated_Source\PSoC4/BLE.c ****                                      procedure requires the scanType sub-parameter 
 596:.\Generated_Source\PSoC4/BLE.c ****                                      to be active scanning.
 597:.\Generated_Source\PSoC4/BLE.c ****       
 598:.\Generated_Source\PSoC4/BLE.c ****       * General Discovery procedure: A device performing the general discovery 
 599:.\Generated_Source\PSoC4/BLE.c ****                                      procedure receives the advertisement data and
 600:.\Generated_Source\PSoC4/BLE.c ****                                      scan response data from devices in both 
 601:.\Generated_Source\PSoC4/BLE.c ****                                      limited discoverable mode and the general 
 602:.\Generated_Source\PSoC4/BLE.c ****                                      discoverable mode. Received data is provided
ARM GAS  C:\Users\ENESDU~1\AppData\Local\Temp\ccTCHFTj.s 			page 21


 603:.\Generated_Source\PSoC4/BLE.c ****                                      by the event,
 604:.\Generated_Source\PSoC4/BLE.c ****                                      CYBLE_EVT_GAPC_SCAN_PROGRESS_RESULT. This 
 605:.\Generated_Source\PSoC4/BLE.c ****                                      procedure requires the scanType sub-parameter
 606:.\Generated_Source\PSoC4/BLE.c ****                                      to be active scanning.
 607:.\Generated_Source\PSoC4/BLE.c ****       
 608:.\Generated_Source\PSoC4/BLE.c ****       Every Advertisement / Scan response packet received results in a new event, 
 609:.\Generated_Source\PSoC4/BLE.c ****       CYBLE_EVT_GAPC_SCAN_PROGRESS_RESULT.
 610:.\Generated_Source\PSoC4/BLE.c ****       If 'scanTo' sub-parameter is a non-zero value, then upon commencement of 
 611:.\Generated_Source\PSoC4/BLE.c ****       discovery procedure and elapsed time = 'scanTo', CYBLE_EVT_TIMEOUT event
 612:.\Generated_Source\PSoC4/BLE.c ****       is generated with the event parameter indicating CYBLE_GAP_SCAN_TO.
 613:.\Generated_Source\PSoC4/BLE.c ****       Possible generated events are:
 614:.\Generated_Source\PSoC4/BLE.c ****       * CYBLE_EVT_GAPC_SCAN_START_STOP: If a device started or stopped scanning. 
 615:.\Generated_Source\PSoC4/BLE.c ****                                         Use CyBle_GetState() to determine the 
 616:.\Generated_Source\PSoC4/BLE.c ****                                         state. Sequential scanning could be 
 617:.\Generated_Source\PSoC4/BLE.c ****                                         started when CYBLE_STATE_DISCONNECTED 
 618:.\Generated_Source\PSoC4/BLE.c ****                                         state is returned. 
 619:.\Generated_Source\PSoC4/BLE.c ****       * CYBLE_EVT_GAPC_SCAN_PROGRESS_RESULT 
 620:.\Generated_Source\PSoC4/BLE.c ****       * CYBLE_EVT_TIMEOUT (CYBLE_GAP_SCAN_TO)
 621:.\Generated_Source\PSoC4/BLE.c ****     
 622:.\Generated_Source\PSoC4/BLE.c ****      Parameters:
 623:.\Generated_Source\PSoC4/BLE.c ****       uint8 scanningIntervalType:  Fast or slow scanning interval with
 624:.\Generated_Source\PSoC4/BLE.c ****           timings entered in Scan settings section of the customiser.
 625:.\Generated_Source\PSoC4/BLE.c ****     	  * CYBLE_SCANNING_FAST   0x00u
 626:.\Generated_Source\PSoC4/BLE.c ****     	  * CYBLE_SCANNING_SLOW   0x01u
 627:.\Generated_Source\PSoC4/BLE.c ****     	  * CYBLE_SCANNING_CUSTOM 0x02u
 628:.\Generated_Source\PSoC4/BLE.c ****     
 629:.\Generated_Source\PSoC4/BLE.c ****     Return:
 630:.\Generated_Source\PSoC4/BLE.c ****      CYBLE_API_RESULT_T : Return value indicates if the function succeeded or
 631:.\Generated_Source\PSoC4/BLE.c ****      failed. Following are the possible error codes.
 632:.\Generated_Source\PSoC4/BLE.c ****      <table>
 633:.\Generated_Source\PSoC4/BLE.c ****       Errors codes                        Values  Description
 634:.\Generated_Source\PSoC4/BLE.c ****       ------------                        ------  -----------
 635:.\Generated_Source\PSoC4/BLE.c ****       CYBLE_ERROR_OK                      0x0000  On successful operation.
 636:.\Generated_Source\PSoC4/BLE.c ****       CYBLE_ERROR_STACK_INTERNAL          0x0003  An error occurred in the 
 637:.\Generated_Source\PSoC4/BLE.c ****                                                    BLE stack.
 638:.\Generated_Source\PSoC4/BLE.c ****      </table>
 639:.\Generated_Source\PSoC4/BLE.c ****      
 640:.\Generated_Source\PSoC4/BLE.c ****     ******************************************************************************/
 641:.\Generated_Source\PSoC4/BLE.c ****     CYBLE_API_RESULT_T CyBle_GapcStartScan(uint8 scanningIntervalType)
 642:.\Generated_Source\PSoC4/BLE.c ****     {
 643:.\Generated_Source\PSoC4/BLE.c ****         CYBLE_API_RESULT_T apiResult;
 644:.\Generated_Source\PSoC4/BLE.c **** 
 645:.\Generated_Source\PSoC4/BLE.c ****         if(scanningIntervalType == CYBLE_SCANNING_FAST)
 646:.\Generated_Source\PSoC4/BLE.c ****         {
 647:.\Generated_Source\PSoC4/BLE.c ****             cyBle_discoveryInfo.scanTo = CYBLE_FAST_SCAN_TIMEOUT;
 648:.\Generated_Source\PSoC4/BLE.c ****             cyBle_discoveryInfo.scanIntv = CYBLE_FAST_SCAN_INTERVAL;
 649:.\Generated_Source\PSoC4/BLE.c ****             cyBle_discoveryInfo.scanWindow = CYBLE_FAST_SCAN_WINDOW;
 650:.\Generated_Source\PSoC4/BLE.c ****         }
 651:.\Generated_Source\PSoC4/BLE.c ****         else if(scanningIntervalType == CYBLE_SCANNING_SLOW)
 652:.\Generated_Source\PSoC4/BLE.c ****         {
 653:.\Generated_Source\PSoC4/BLE.c ****             cyBle_discoveryInfo.scanTo = CYBLE_SLOW_SCAN_TIMEOUT;
 654:.\Generated_Source\PSoC4/BLE.c ****             cyBle_discoveryInfo.scanIntv = CYBLE_SLOW_SCAN_INTERVAL;
 655:.\Generated_Source\PSoC4/BLE.c ****             cyBle_discoveryInfo.scanWindow = CYBLE_SLOW_SCAN_WINDOW;
 656:.\Generated_Source\PSoC4/BLE.c ****         }       
 657:.\Generated_Source\PSoC4/BLE.c ****         else /* Do not update scanning intervals */
 658:.\Generated_Source\PSoC4/BLE.c ****         {
 659:.\Generated_Source\PSoC4/BLE.c ****         }
ARM GAS  C:\Users\ENESDU~1\AppData\Local\Temp\ccTCHFTj.s 			page 22


 660:.\Generated_Source\PSoC4/BLE.c ****         
 661:.\Generated_Source\PSoC4/BLE.c ****         cyBle_scanningIntervalType = scanningIntervalType;
 662:.\Generated_Source\PSoC4/BLE.c ****         apiResult = CyBle_GapcStartDiscovery(&cyBle_discoveryInfo);
 663:.\Generated_Source\PSoC4/BLE.c ****     
 664:.\Generated_Source\PSoC4/BLE.c ****         if(CYBLE_ERROR_OK == apiResult)
 665:.\Generated_Source\PSoC4/BLE.c ****         {
 666:.\Generated_Source\PSoC4/BLE.c ****             cyBle_eventHandlerFlag |= CYBLE_START_FLAG;
 667:.\Generated_Source\PSoC4/BLE.c ****         }
 668:.\Generated_Source\PSoC4/BLE.c ****        
 669:.\Generated_Source\PSoC4/BLE.c ****         return (apiResult);
 670:.\Generated_Source\PSoC4/BLE.c ****     }
 671:.\Generated_Source\PSoC4/BLE.c ****     
 672:.\Generated_Source\PSoC4/BLE.c ****     
 673:.\Generated_Source\PSoC4/BLE.c ****     /******************************************************************************
 674:.\Generated_Source\PSoC4/BLE.c ****     ##Function Name: CyBle_GapcStopScan
 675:.\Generated_Source\PSoC4/BLE.c ****     *******************************************************************************
 676:.\Generated_Source\PSoC4/BLE.c ****     
 677:.\Generated_Source\PSoC4/BLE.c ****      Summary:
 678:.\Generated_Source\PSoC4/BLE.c ****       This function used to stop the discovery of devices. On stopping discovery
 679:.\Generated_Source\PSoC4/BLE.c ****       operation, CYBLE_EVT_GAPC_SCAN_START_STOP event is generated. Application
 680:.\Generated_Source\PSoC4/BLE.c ****       layer needs to keep track of the function call made before receiving this
 681:.\Generated_Source\PSoC4/BLE.c ****       event to associate this event with either the start or stop discovery
 682:.\Generated_Source\PSoC4/BLE.c ****       function.
 683:.\Generated_Source\PSoC4/BLE.c ****     
 684:.\Generated_Source\PSoC4/BLE.c ****       Possible events generated are:
 685:.\Generated_Source\PSoC4/BLE.c ****        * CYBLE_EVT_GAPC_SCAN_START_STOP
 686:.\Generated_Source\PSoC4/BLE.c ****     
 687:.\Generated_Source\PSoC4/BLE.c ****      Parameters:
 688:.\Generated_Source\PSoC4/BLE.c ****       None
 689:.\Generated_Source\PSoC4/BLE.c ****     
 690:.\Generated_Source\PSoC4/BLE.c ****      Return:
 691:.\Generated_Source\PSoC4/BLE.c ****       None
 692:.\Generated_Source\PSoC4/BLE.c ****     
 693:.\Generated_Source\PSoC4/BLE.c ****     ******************************************************************************/
 694:.\Generated_Source\PSoC4/BLE.c ****     void CyBle_GapcStopScan(void)
 695:.\Generated_Source\PSoC4/BLE.c ****     {
 696:.\Generated_Source\PSoC4/BLE.c ****         CyBle_GapcStopDiscovery();
 697:.\Generated_Source\PSoC4/BLE.c ****         
 698:.\Generated_Source\PSoC4/BLE.c ****         cyBle_eventHandlerFlag |= CYBLE_STOP_FLAG;
 699:.\Generated_Source\PSoC4/BLE.c ****     }
 700:.\Generated_Source\PSoC4/BLE.c **** 
 701:.\Generated_Source\PSoC4/BLE.c ****     
 702:.\Generated_Source\PSoC4/BLE.c **** #endif /* CYBLE_GAP_ROLE_CENTRAL || CYBLE_GAP_ROLE_OBSERVER */
 703:.\Generated_Source\PSoC4/BLE.c **** 
 704:.\Generated_Source\PSoC4/BLE.c **** 
 705:.\Generated_Source\PSoC4/BLE.c **** #if(CYBLE_GAP_ROLE_CENTRAL)
 706:.\Generated_Source\PSoC4/BLE.c **** 
 707:.\Generated_Source\PSoC4/BLE.c ****     /******************************************************************************
 708:.\Generated_Source\PSoC4/BLE.c ****     ##Function Name: CyBle_GapcConnectDevice
 709:.\Generated_Source\PSoC4/BLE.c ****     *******************************************************************************
 710:.\Generated_Source\PSoC4/BLE.c ****     
 711:.\Generated_Source\PSoC4/BLE.c ****     Summary:
 712:.\Generated_Source\PSoC4/BLE.c ****      This function is used to send a connection request to the remote device with
 713:.\Generated_Source\PSoC4/BLE.c ****      the connection parameters set in the component customizer. This function needs
 714:.\Generated_Source\PSoC4/BLE.c ****      to be called only once after the target device is discovered by 
 715:.\Generated_Source\PSoC4/BLE.c ****      CyBle_GapcStartScan() and further scanning has stopped. Scanning is 
 716:.\Generated_Source\PSoC4/BLE.c ****      successfully stopped on invoking CyBle_GapcStopScan() and then receiving the
ARM GAS  C:\Users\ENESDU~1\AppData\Local\Temp\ccTCHFTj.s 			page 23


 717:.\Generated_Source\PSoC4/BLE.c ****      event CYBLE_EVT_GAPC_SCAN_START_STOP with sub-parameter 'success' = 0x01u.
 718:.\Generated_Source\PSoC4/BLE.c ****      
 719:.\Generated_Source\PSoC4/BLE.c ****      On successful connection, the following events are generated at the GAP 
 720:.\Generated_Source\PSoC4/BLE.c ****      Central device (as well as the GAP Peripheral device), in the following order.
 721:.\Generated_Source\PSoC4/BLE.c ****      * CYBLE_EVT_GATT_CONNECT_IND
 722:.\Generated_Source\PSoC4/BLE.c ****      * CYBLE_EVT_GAP_DEVICE_CONNECTED
 723:.\Generated_Source\PSoC4/BLE.c ****  
 724:.\Generated_Source\PSoC4/BLE.c ****      A procedure is considered to have timed out if a connection response packet is 
 725:.\Generated_Source\PSoC4/BLE.c ****      not received within time set by cyBle_connectingTimeout global variable
 726:.\Generated_Source\PSoC4/BLE.c ****      (30 seconds by default). CYBLE_EVT_TIMEOUT event with CYBLE_GENERIC_TO parameter
 727:.\Generated_Source\PSoC4/BLE.c ****      will indicate about connection procedure timeout. Connection will automatically
 728:.\Generated_Source\PSoC4/BLE.c ****      be cancelled and state will be changed to CYBLE_STATE_DISCONNECTED.
 729:.\Generated_Source\PSoC4/BLE.c ****     
 730:.\Generated_Source\PSoC4/BLE.c ****     Parameters:
 731:.\Generated_Source\PSoC4/BLE.c ****      const CYBLE_GAP_BD_ADDR_T address: The device address of the remote device to 
 732:.\Generated_Source\PSoC4/BLE.c ****                                         connect to. 
 733:.\Generated_Source\PSoC4/BLE.c ****      timeout: Timeout for which timer to be started in seconds.
 734:.\Generated_Source\PSoC4/BLE.c ****  
 735:.\Generated_Source\PSoC4/BLE.c ****     Return:
 736:.\Generated_Source\PSoC4/BLE.c ****      CYBLE_API_RESULT_T : Return value indicates if the function succeeded or 
 737:.\Generated_Source\PSoC4/BLE.c ****      failed. Following are the possible error codes.
 738:.\Generated_Source\PSoC4/BLE.c ****      <table>
 739:.\Generated_Source\PSoC4/BLE.c ****       Errors codes                        Description
 740:.\Generated_Source\PSoC4/BLE.c ****       ------------                        -----------
 741:.\Generated_Source\PSoC4/BLE.c ****       CYBLE_ERROR_OK                      On successful operation.
 742:.\Generated_Source\PSoC4/BLE.c ****       CYBLE_ERROR_STACK_INTERNAL          On error occurred in the 
 743:.\Generated_Source\PSoC4/BLE.c ****                                            BLE stack.
 744:.\Generated_Source\PSoC4/BLE.c ****       CYBLE_ERROR_INVALID_PARAMETER       On specifying NULL as input
 745:.\Generated_Source\PSoC4/BLE.c ****                                            parameter for 'scanInfo' or if
 746:.\Generated_Source\PSoC4/BLE.c ****                                            any element with in 'scanInfo'
 747:.\Generated_Source\PSoC4/BLE.c ****                                            has an invalid value.
 748:.\Generated_Source\PSoC4/BLE.c ****      </table>
 749:.\Generated_Source\PSoC4/BLE.c ****  
 750:.\Generated_Source\PSoC4/BLE.c ****     ******************************************************************************/
 751:.\Generated_Source\PSoC4/BLE.c ****     CYBLE_API_RESULT_T CyBle_GapcConnectDevice(const CYBLE_GAP_BD_ADDR_T * address)
 752:.\Generated_Source\PSoC4/BLE.c ****     {
 753:.\Generated_Source\PSoC4/BLE.c ****         CYBLE_API_RESULT_T apiResult;
 754:.\Generated_Source\PSoC4/BLE.c ****         uint8 i;
 755:.\Generated_Source\PSoC4/BLE.c **** 
 756:.\Generated_Source\PSoC4/BLE.c ****         if(CYBLE_STATE_DISCONNECTED != CyBle_GetState())
 757:.\Generated_Source\PSoC4/BLE.c ****         {
 758:.\Generated_Source\PSoC4/BLE.c ****             apiResult = CYBLE_ERROR_INVALID_STATE;
 759:.\Generated_Source\PSoC4/BLE.c ****         }
 760:.\Generated_Source\PSoC4/BLE.c ****         else if(address == NULL)
 761:.\Generated_Source\PSoC4/BLE.c ****         {
 762:.\Generated_Source\PSoC4/BLE.c ****             apiResult = CYBLE_ERROR_INVALID_PARAMETER;
 763:.\Generated_Source\PSoC4/BLE.c ****         }
 764:.\Generated_Source\PSoC4/BLE.c ****         else
 765:.\Generated_Source\PSoC4/BLE.c ****         {
 766:.\Generated_Source\PSoC4/BLE.c ****             for(i = 0u; i < CYBLE_GAP_BD_ADDR_SIZE; i++)
 767:.\Generated_Source\PSoC4/BLE.c ****             {
 768:.\Generated_Source\PSoC4/BLE.c ****                 cyBle_connectionParameters.peerBdAddr[i] = address->bdAddr[i];
 769:.\Generated_Source\PSoC4/BLE.c ****             }
 770:.\Generated_Source\PSoC4/BLE.c ****             cyBle_connectionParameters.peerAddrType = address -> type;
 771:.\Generated_Source\PSoC4/BLE.c ****             apiResult = CyBle_GapcInitConnection(&cyBle_connectionParameters);
 772:.\Generated_Source\PSoC4/BLE.c ****             
 773:.\Generated_Source\PSoC4/BLE.c ****             if(CYBLE_ERROR_OK == apiResult)
ARM GAS  C:\Users\ENESDU~1\AppData\Local\Temp\ccTCHFTj.s 			page 24


 774:.\Generated_Source\PSoC4/BLE.c ****             {
 775:.\Generated_Source\PSoC4/BLE.c ****                 CyBle_SetState(CYBLE_STATE_CONNECTING);
 776:.\Generated_Source\PSoC4/BLE.c ****                 if(cyBle_connectingTimeout != 0u)
 777:.\Generated_Source\PSoC4/BLE.c ****                 {
 778:.\Generated_Source\PSoC4/BLE.c ****                     (void)CyBle_StartTimer(cyBle_connectingTimeout);
 779:.\Generated_Source\PSoC4/BLE.c ****                 }
 780:.\Generated_Source\PSoC4/BLE.c ****             }
 781:.\Generated_Source\PSoC4/BLE.c ****         }
 782:.\Generated_Source\PSoC4/BLE.c ****         return (apiResult);
 783:.\Generated_Source\PSoC4/BLE.c ****     }
 784:.\Generated_Source\PSoC4/BLE.c ****     
 785:.\Generated_Source\PSoC4/BLE.c **** 
 786:.\Generated_Source\PSoC4/BLE.c ****     /******************************************************************************
 787:.\Generated_Source\PSoC4/BLE.c ****     ##Function Name: CyBle_GapcCancelDeviceConnection
 788:.\Generated_Source\PSoC4/BLE.c ****     *******************************************************************************
 789:.\Generated_Source\PSoC4/BLE.c ****     
 790:.\Generated_Source\PSoC4/BLE.c ****     Summary:
 791:.\Generated_Source\PSoC4/BLE.c ****      This function cancels a previously initiated connection with the remote 
 792:.\Generated_Source\PSoC4/BLE.c ****      device. It is a blocking function. No event is generated on calling this 
 793:.\Generated_Source\PSoC4/BLE.c ****      function. If the devices are already connected then this function should not
 794:.\Generated_Source\PSoC4/BLE.c ****      be used. If you intend to disconnect from an existing connection, the function
 795:.\Generated_Source\PSoC4/BLE.c ****      CyBle_GapDisconnect() should be used.
 796:.\Generated_Source\PSoC4/BLE.c **** 
 797:.\Generated_Source\PSoC4/BLE.c ****     Parameters:
 798:.\Generated_Source\PSoC4/BLE.c ****      None
 799:.\Generated_Source\PSoC4/BLE.c **** 
 800:.\Generated_Source\PSoC4/BLE.c ****     Return:
 801:.\Generated_Source\PSoC4/BLE.c ****      CYBLE_API_RESULT_T : Return value indicates if the function succeeded or 
 802:.\Generated_Source\PSoC4/BLE.c ****      failed. Following are the possible error codes.
 803:.\Generated_Source\PSoC4/BLE.c ****      <table>
 804:.\Generated_Source\PSoC4/BLE.c ****       Errors codes                        Description
 805:.\Generated_Source\PSoC4/BLE.c ****       ------------                        -----------
 806:.\Generated_Source\PSoC4/BLE.c ****       CYBLE_ERROR_OK                      On successful operation.
 807:.\Generated_Source\PSoC4/BLE.c ****       CYBLE_ERROR_STACK_INTERNAL          An error occurred in the 
 808:.\Generated_Source\PSoC4/BLE.c ****                                            BLE stack.
 809:.\Generated_Source\PSoC4/BLE.c ****       CYBLE_ERROR_INVALID_OPERATION       Device is already connected.
 810:.\Generated_Source\PSoC4/BLE.c ****      </table>
 811:.\Generated_Source\PSoC4/BLE.c ****  
 812:.\Generated_Source\PSoC4/BLE.c ****     ******************************************************************************/
 813:.\Generated_Source\PSoC4/BLE.c ****     CYBLE_API_RESULT_T CyBle_GapcCancelDeviceConnection(void)
 814:.\Generated_Source\PSoC4/BLE.c ****     {
 815:.\Generated_Source\PSoC4/BLE.c ****         CYBLE_API_RESULT_T apiResult;
 816:.\Generated_Source\PSoC4/BLE.c ****         
 817:.\Generated_Source\PSoC4/BLE.c ****         apiResult = CyBle_GapcCancelConnection();
 818:.\Generated_Source\PSoC4/BLE.c ****             
 819:.\Generated_Source\PSoC4/BLE.c ****         if(cyBle_connectingTimeout != 0u)
 820:.\Generated_Source\PSoC4/BLE.c ****         {
 821:.\Generated_Source\PSoC4/BLE.c ****             (void)CyBle_StopTimer();
 822:.\Generated_Source\PSoC4/BLE.c ****         }
 823:.\Generated_Source\PSoC4/BLE.c **** 
 824:.\Generated_Source\PSoC4/BLE.c ****         if(CYBLE_ERROR_OK == apiResult)
 825:.\Generated_Source\PSoC4/BLE.c ****         {
 826:.\Generated_Source\PSoC4/BLE.c ****             CyBle_SetState(CYBLE_STATE_DISCONNECTED);
 827:.\Generated_Source\PSoC4/BLE.c ****         }
 828:.\Generated_Source\PSoC4/BLE.c ****         return (apiResult);
 829:.\Generated_Source\PSoC4/BLE.c ****     }    
 830:.\Generated_Source\PSoC4/BLE.c **** 
ARM GAS  C:\Users\ENESDU~1\AppData\Local\Temp\ccTCHFTj.s 			page 25


 831:.\Generated_Source\PSoC4/BLE.c ****     
 832:.\Generated_Source\PSoC4/BLE.c **** #endif /* CYBLE_GAP_ROLE_CENTRAL */
 833:.\Generated_Source\PSoC4/BLE.c **** 
 834:.\Generated_Source\PSoC4/BLE.c **** 
 835:.\Generated_Source\PSoC4/BLE.c **** #if(CYBLE_GATT_ROLE_SERVER)
 836:.\Generated_Source\PSoC4/BLE.c **** 
 837:.\Generated_Source\PSoC4/BLE.c **** #if(CYBLE_GAP_ROLE_PERIPHERAL)
 838:.\Generated_Source\PSoC4/BLE.c **** 
 839:.\Generated_Source\PSoC4/BLE.c ****         /******************************************************************************
 840:.\Generated_Source\PSoC4/BLE.c ****         ##Function Name: CyBle_ChangeAdLocalName
 841:.\Generated_Source\PSoC4/BLE.c ****         *******************************************************************************
 842:.\Generated_Source\PSoC4/BLE.c ****         Summary:
 843:.\Generated_Source\PSoC4/BLE.c ****          This API is used to set the local device name in the advertisement or scan 
 844:.\Generated_Source\PSoC4/BLE.c ****          response data structure.
 845:.\Generated_Source\PSoC4/BLE.c **** 
 846:.\Generated_Source\PSoC4/BLE.c ****         Parameters:
 847:.\Generated_Source\PSoC4/BLE.c ****          char8 name: The local device name string to be set in advertisement data 
 848:.\Generated_Source\PSoC4/BLE.c ****                    structure.
 849:.\Generated_Source\PSoC4/BLE.c ****          uint8 dest: 0 - avrevtisement structure, not zero value selects scan response
 850:.\Generated_Source\PSoC4/BLE.c ****                      structure.
 851:.\Generated_Source\PSoC4/BLE.c **** 
 852:.\Generated_Source\PSoC4/BLE.c ****         Return:
 853:.\Generated_Source\PSoC4/BLE.c ****          None
 854:.\Generated_Source\PSoC4/BLE.c ****      
 855:.\Generated_Source\PSoC4/BLE.c ****         ******************************************************************************/
 856:.\Generated_Source\PSoC4/BLE.c ****         static void CyBle_ChangeAdLocalName(const char8 name[], uint8 dest)
 857:.\Generated_Source\PSoC4/BLE.c ****         {
 537              		.loc 1 857 0
 538              		.cfi_startproc
 539 0000 80B5     		push	{r7, lr}
 540              		.cfi_def_cfa_offset 8
 541              		.cfi_offset 7, -8
 542              		.cfi_offset 14, -4
 543 0002 86B0     		sub	sp, sp, #24
 544              		.cfi_def_cfa_offset 32
 545 0004 00AF     		add	r7, sp, #0
 546              		.cfi_def_cfa_register 7
 547 0006 7860     		str	r0, [r7, #4]
 548 0008 0A1C     		mov	r2, r1
 549 000a FB1C     		add	r3, r7, #3
 550 000c 1A70     		strb	r2, [r3]
 858:.\Generated_Source\PSoC4/BLE.c ****             uint8 i;
 859:.\Generated_Source\PSoC4/BLE.c ****             uint8 flag = 0u;
 551              		.loc 1 859 0
 552 000e 3B1C     		mov	r3, r7
 553 0010 1633     		add	r3, r3, #22
 554 0012 0022     		mov	r2, #0
 555 0014 1A70     		strb	r2, [r3]
 860:.\Generated_Source\PSoC4/BLE.c ****             uint8 adLength = 0u;
 556              		.loc 1 860 0
 557 0016 3B1C     		mov	r3, r7
 558 0018 1533     		add	r3, r3, #21
 559 001a 0022     		mov	r2, #0
 560 001c 1A70     		strb	r2, [r3]
 861:.\Generated_Source\PSoC4/BLE.c ****             uint8 byteCounter = 0u;
 561              		.loc 1 861 0
 562 001e 3B1C     		mov	r3, r7
ARM GAS  C:\Users\ENESDU~1\AppData\Local\Temp\ccTCHFTj.s 			page 26


 563 0020 1433     		add	r3, r3, #20
 564 0022 0022     		mov	r2, #0
 565 0024 1A70     		strb	r2, [r3]
 862:.\Generated_Source\PSoC4/BLE.c ****             uint8 *destBuffer;
 863:.\Generated_Source\PSoC4/BLE.c ****             uint8 maxLength;
 864:.\Generated_Source\PSoC4/BLE.c ****             
 865:.\Generated_Source\PSoC4/BLE.c ****             if(dest == 0u)      /* Destination - advertising structure */
 566              		.loc 1 865 0
 567 0026 FB1C     		add	r3, r7, #3
 568 0028 1B78     		ldrb	r3, [r3]
 569 002a 002B     		cmp	r3, #0
 570 002c 07D1     		bne	.L27
 866:.\Generated_Source\PSoC4/BLE.c ****             {
 867:.\Generated_Source\PSoC4/BLE.c ****                 destBuffer = cyBle_discoveryData.advData;
 571              		.loc 1 867 0
 572 002e 5A4B     		ldr	r3, .L42
 573 0030 3B61     		str	r3, [r7, #16]
 868:.\Generated_Source\PSoC4/BLE.c ****                 maxLength = cyBle_discoveryData.advDataLen;
 574              		.loc 1 868 0
 575 0032 3B1C     		mov	r3, r7
 576 0034 0F33     		add	r3, r3, #15
 577 0036 584A     		ldr	r2, .L42
 578 0038 D27F     		ldrb	r2, [r2, #31]
 579 003a 1A70     		strb	r2, [r3]
 869:.\Generated_Source\PSoC4/BLE.c ****             }
 870:.\Generated_Source\PSoC4/BLE.c ****             else                /* Destination - scan response structure */
 871:.\Generated_Source\PSoC4/BLE.c ****             {
 872:.\Generated_Source\PSoC4/BLE.c ****                 destBuffer = cyBle_scanRspData.scanRspData;
 873:.\Generated_Source\PSoC4/BLE.c ****                 maxLength = cyBle_scanRspData.scanRspDataLen;
 874:.\Generated_Source\PSoC4/BLE.c ****             }
 875:.\Generated_Source\PSoC4/BLE.c ****             
 876:.\Generated_Source\PSoC4/BLE.c ****             while((byteCounter < maxLength) && (0u == flag))
 580              		.loc 1 876 0
 581 003c 3DE0     		b	.L29
 582              	.L27:
 872:.\Generated_Source\PSoC4/BLE.c ****                 destBuffer = cyBle_scanRspData.scanRspData;
 583              		.loc 1 872 0
 584 003e 574B     		ldr	r3, .L42+4
 585 0040 3B61     		str	r3, [r7, #16]
 873:.\Generated_Source\PSoC4/BLE.c ****                 maxLength = cyBle_scanRspData.scanRspDataLen;
 586              		.loc 1 873 0
 587 0042 3B1C     		mov	r3, r7
 588 0044 0F33     		add	r3, r3, #15
 589 0046 554A     		ldr	r2, .L42+4
 590 0048 D27F     		ldrb	r2, [r2, #31]
 591 004a 1A70     		strb	r2, [r3]
 592              		.loc 1 876 0
 593 004c 35E0     		b	.L29
 594              	.L35:
 877:.\Generated_Source\PSoC4/BLE.c ****             {
 878:.\Generated_Source\PSoC4/BLE.c ****                 adLength = destBuffer[byteCounter];
 595              		.loc 1 878 0
 596 004e 3B1C     		mov	r3, r7
 597 0050 1433     		add	r3, r3, #20
 598 0052 1B78     		ldrb	r3, [r3]
 599 0054 3A69     		ldr	r2, [r7, #16]
 600 0056 D218     		add	r2, r2, r3
ARM GAS  C:\Users\ENESDU~1\AppData\Local\Temp\ccTCHFTj.s 			page 27


 601 0058 3B1C     		mov	r3, r7
 602 005a 1533     		add	r3, r3, #21
 603 005c 1278     		ldrb	r2, [r2]
 604 005e 1A70     		strb	r2, [r3]
 879:.\Generated_Source\PSoC4/BLE.c ****                 
 880:.\Generated_Source\PSoC4/BLE.c ****                 if(0u != adLength)
 605              		.loc 1 880 0
 606 0060 3B1C     		mov	r3, r7
 607 0062 1533     		add	r3, r3, #21
 608 0064 1B78     		ldrb	r3, [r3]
 609 0066 002B     		cmp	r3, #0
 610 0068 26D0     		beq	.L30
 881:.\Generated_Source\PSoC4/BLE.c ****                 {
 882:.\Generated_Source\PSoC4/BLE.c ****                     /* Increment byte counter so it can point to AD type */
 883:.\Generated_Source\PSoC4/BLE.c ****                     byteCounter++;
 611              		.loc 1 883 0
 612 006a 3B1C     		mov	r3, r7
 613 006c 1433     		add	r3, r3, #20
 614 006e 1A78     		ldrb	r2, [r3]
 615 0070 3B1C     		mov	r3, r7
 616 0072 1433     		add	r3, r3, #20
 617 0074 0132     		add	r2, r2, #1
 618 0076 1A70     		strb	r2, [r3]
 884:.\Generated_Source\PSoC4/BLE.c ****                     
 885:.\Generated_Source\PSoC4/BLE.c ****                     if((CYBLE_SHORT_LOCAL_NAME == destBuffer[byteCounter]) || 
 619              		.loc 1 885 0
 620 0078 3B1C     		mov	r3, r7
 621 007a 1433     		add	r3, r3, #20
 622 007c 1B78     		ldrb	r3, [r3]
 623 007e 3A69     		ldr	r2, [r7, #16]
 624 0080 D318     		add	r3, r2, r3
 625 0082 1B78     		ldrb	r3, [r3]
 626 0084 082B     		cmp	r3, #8
 627 0086 07D0     		beq	.L31
 886:.\Generated_Source\PSoC4/BLE.c ****                         (CYBLE_COMPLETE_LOCAL_NAME == destBuffer[byteCounter]))
 628              		.loc 1 886 0 discriminator 1
 629 0088 3B1C     		mov	r3, r7
 630 008a 1433     		add	r3, r3, #20
 631 008c 1B78     		ldrb	r3, [r3]
 632 008e 3A69     		ldr	r2, [r7, #16]
 633 0090 D318     		add	r3, r2, r3
 634 0092 1B78     		ldrb	r3, [r3]
 885:.\Generated_Source\PSoC4/BLE.c ****                     if((CYBLE_SHORT_LOCAL_NAME == destBuffer[byteCounter]) || 
 635              		.loc 1 885 0 discriminator 1
 636 0094 092B     		cmp	r3, #9
 637 0096 04D1     		bne	.L32
 638              	.L31:
 887:.\Generated_Source\PSoC4/BLE.c ****                     {
 888:.\Generated_Source\PSoC4/BLE.c ****                         /* Start of the Local Name AD type was fount. Set flag and exit the loop. *
 889:.\Generated_Source\PSoC4/BLE.c ****                         flag = 1u;
 639              		.loc 1 889 0
 640 0098 3B1C     		mov	r3, r7
 641 009a 1633     		add	r3, r3, #22
 642 009c 0122     		mov	r2, #1
 643 009e 1A70     		strb	r2, [r3]
 644 00a0 0BE0     		b	.L29
 645              	.L32:
ARM GAS  C:\Users\ENESDU~1\AppData\Local\Temp\ccTCHFTj.s 			page 28


 890:.\Generated_Source\PSoC4/BLE.c ****                     }
 891:.\Generated_Source\PSoC4/BLE.c ****                     else
 892:.\Generated_Source\PSoC4/BLE.c ****                     {
 893:.\Generated_Source\PSoC4/BLE.c ****                         byteCounter += adLength;
 646              		.loc 1 893 0
 647 00a2 3B1C     		mov	r3, r7
 648 00a4 1433     		add	r3, r3, #20
 649 00a6 391C     		mov	r1, r7
 650 00a8 1431     		add	r1, r1, #20
 651 00aa 3A1C     		mov	r2, r7
 652 00ac 1532     		add	r2, r2, #21
 653 00ae 0978     		ldrb	r1, [r1]
 654 00b0 1278     		ldrb	r2, [r2]
 655 00b2 8A18     		add	r2, r1, r2
 656 00b4 1A70     		strb	r2, [r3]
 657 00b6 00E0     		b	.L29
 658              	.L30:
 894:.\Generated_Source\PSoC4/BLE.c ****                     }
 895:.\Generated_Source\PSoC4/BLE.c ****                 }
 896:.\Generated_Source\PSoC4/BLE.c ****                 else
 897:.\Generated_Source\PSoC4/BLE.c ****                 {
 898:.\Generated_Source\PSoC4/BLE.c ****                     /* The end of advertisement data structure was encountered though exit the 
 899:.\Generated_Source\PSoC4/BLE.c ****                       loop. */
 900:.\Generated_Source\PSoC4/BLE.c ****                     break;
 659              		.loc 1 900 0
 660 00b8 0CE0     		b	.L34
 661              	.L29:
 876:.\Generated_Source\PSoC4/BLE.c ****             while((byteCounter < maxLength) && (0u == flag))
 662              		.loc 1 876 0 discriminator 1
 663 00ba 3A1C     		mov	r2, r7
 664 00bc 1432     		add	r2, r2, #20
 665 00be 3B1C     		mov	r3, r7
 666 00c0 0F33     		add	r3, r3, #15
 667 00c2 1278     		ldrb	r2, [r2]
 668 00c4 1B78     		ldrb	r3, [r3]
 669 00c6 9A42     		cmp	r2, r3
 670 00c8 04D2     		bcs	.L34
 876:.\Generated_Source\PSoC4/BLE.c ****             while((byteCounter < maxLength) && (0u == flag))
 671              		.loc 1 876 0 is_stmt 0 discriminator 2
 672 00ca 3B1C     		mov	r3, r7
 673 00cc 1633     		add	r3, r3, #22
 674 00ce 1B78     		ldrb	r3, [r3]
 675 00d0 002B     		cmp	r3, #0
 676 00d2 BCD0     		beq	.L35
 677              	.L34:
 901:.\Generated_Source\PSoC4/BLE.c ****                 }
 902:.\Generated_Source\PSoC4/BLE.c ****             }
 903:.\Generated_Source\PSoC4/BLE.c ****             
 904:.\Generated_Source\PSoC4/BLE.c ****             if(0u != flag)
 678              		.loc 1 904 0 is_stmt 1
 679 00d4 3B1C     		mov	r3, r7
 680 00d6 1633     		add	r3, r3, #22
 681 00d8 1B78     		ldrb	r3, [r3]
 682 00da 002B     		cmp	r3, #0
 683 00dc 59D0     		beq	.L26
 905:.\Generated_Source\PSoC4/BLE.c ****             {
 906:.\Generated_Source\PSoC4/BLE.c ****                 /* Reuse "adLength" to hold location of the last character of local name in 
ARM GAS  C:\Users\ENESDU~1\AppData\Local\Temp\ccTCHFTj.s 			page 29


 907:.\Generated_Source\PSoC4/BLE.c ****                    AD structure. */
 908:.\Generated_Source\PSoC4/BLE.c ****                 adLength += byteCounter;
 684              		.loc 1 908 0
 685 00de 3B1C     		mov	r3, r7
 686 00e0 1533     		add	r3, r3, #21
 687 00e2 391C     		mov	r1, r7
 688 00e4 1531     		add	r1, r1, #21
 689 00e6 3A1C     		mov	r2, r7
 690 00e8 1432     		add	r2, r2, #20
 691 00ea 0978     		ldrb	r1, [r1]
 692 00ec 1278     		ldrb	r2, [r2]
 693 00ee 8A18     		add	r2, r1, r2
 694 00f0 1A70     		strb	r2, [r3]
 909:.\Generated_Source\PSoC4/BLE.c ****                 
 910:.\Generated_Source\PSoC4/BLE.c ****                 /* Increment byte counter to point to start of the local Name string */
 911:.\Generated_Source\PSoC4/BLE.c ****                 byteCounter++;
 695              		.loc 1 911 0
 696 00f2 3B1C     		mov	r3, r7
 697 00f4 1433     		add	r3, r3, #20
 698 00f6 1A78     		ldrb	r2, [r3]
 699 00f8 3B1C     		mov	r3, r7
 700 00fa 1433     		add	r3, r3, #20
 701 00fc 0132     		add	r2, r2, #1
 702 00fe 1A70     		strb	r2, [r3]
 912:.\Generated_Source\PSoC4/BLE.c ****                 
 913:.\Generated_Source\PSoC4/BLE.c ****                 for(i = byteCounter; ((i < (adLength)) && (CYBLE_NULL_CHARCTER != name[i - byteCoun
 703              		.loc 1 913 0
 704 0100 3B1C     		mov	r3, r7
 705 0102 1733     		add	r3, r3, #23
 706 0104 3A1C     		mov	r2, r7
 707 0106 1432     		add	r2, r2, #20
 708 0108 1278     		ldrb	r2, [r2]
 709 010a 1A70     		strb	r2, [r3]
 710 010c 16E0     		b	.L37
 711              	.L39:
 914:.\Generated_Source\PSoC4/BLE.c ****                 {
 915:.\Generated_Source\PSoC4/BLE.c ****                     destBuffer[i] = (uint8)name[i - byteCounter];
 712              		.loc 1 915 0 discriminator 1
 713 010e 3B1C     		mov	r3, r7
 714 0110 1733     		add	r3, r3, #23
 715 0112 1B78     		ldrb	r3, [r3]
 716 0114 3A69     		ldr	r2, [r7, #16]
 717 0116 D318     		add	r3, r2, r3
 718 0118 3A1C     		mov	r2, r7
 719 011a 1732     		add	r2, r2, #23
 720 011c 1178     		ldrb	r1, [r2]
 721 011e 3A1C     		mov	r2, r7
 722 0120 1432     		add	r2, r2, #20
 723 0122 1278     		ldrb	r2, [r2]
 724 0124 8A1A     		sub	r2, r1, r2
 725 0126 7968     		ldr	r1, [r7, #4]
 726 0128 8A18     		add	r2, r1, r2
 727 012a 1278     		ldrb	r2, [r2]
 728 012c 1A70     		strb	r2, [r3]
 913:.\Generated_Source\PSoC4/BLE.c ****                 for(i = byteCounter; ((i < (adLength)) && (CYBLE_NULL_CHARCTER != name[i - byteCoun
 729              		.loc 1 913 0 discriminator 1
 730 012e 3B1C     		mov	r3, r7
ARM GAS  C:\Users\ENESDU~1\AppData\Local\Temp\ccTCHFTj.s 			page 30


 731 0130 1733     		add	r3, r3, #23
 732 0132 1A78     		ldrb	r2, [r3]
 733 0134 3B1C     		mov	r3, r7
 734 0136 1733     		add	r3, r3, #23
 735 0138 0132     		add	r2, r2, #1
 736 013a 1A70     		strb	r2, [r3]
 737              	.L37:
 738 013c 3A1C     		mov	r2, r7
 739 013e 1732     		add	r2, r2, #23
 740 0140 3B1C     		mov	r3, r7
 741 0142 1533     		add	r3, r3, #21
 742 0144 1278     		ldrb	r2, [r2]
 743 0146 1B78     		ldrb	r3, [r3]
 744 0148 9A42     		cmp	r2, r3
 745 014a 0BD2     		bcs	.L38
 913:.\Generated_Source\PSoC4/BLE.c ****                 for(i = byteCounter; ((i < (adLength)) && (CYBLE_NULL_CHARCTER != name[i - byteCoun
 746              		.loc 1 913 0 is_stmt 0 discriminator 2
 747 014c 3B1C     		mov	r3, r7
 748 014e 1733     		add	r3, r3, #23
 749 0150 1A78     		ldrb	r2, [r3]
 750 0152 3B1C     		mov	r3, r7
 751 0154 1433     		add	r3, r3, #20
 752 0156 1B78     		ldrb	r3, [r3]
 753 0158 D31A     		sub	r3, r2, r3
 754 015a 7A68     		ldr	r2, [r7, #4]
 755 015c D318     		add	r3, r2, r3
 756 015e 1B78     		ldrb	r3, [r3]
 757 0160 002B     		cmp	r3, #0
 758 0162 D4D1     		bne	.L39
 759              	.L38:
 916:.\Generated_Source\PSoC4/BLE.c ****                 }
 917:.\Generated_Source\PSoC4/BLE.c ****                 
 918:.\Generated_Source\PSoC4/BLE.c ****                 /* This loop handles the case when new local name is shorted than old one.
 919:.\Generated_Source\PSoC4/BLE.c ****                    In this case all remaining characters should be null characters. */
 920:.\Generated_Source\PSoC4/BLE.c ****                 while(adLength > i)
 760              		.loc 1 920 0 is_stmt 1
 761 0164 0DE0     		b	.L40
 762              	.L41:
 921:.\Generated_Source\PSoC4/BLE.c ****                 {
 922:.\Generated_Source\PSoC4/BLE.c ****                     /* Terminate string */
 923:.\Generated_Source\PSoC4/BLE.c ****                     destBuffer[i] = (uint8)CYBLE_NULL_CHARCTER;
 763              		.loc 1 923 0
 764 0166 3B1C     		mov	r3, r7
 765 0168 1733     		add	r3, r3, #23
 766 016a 1B78     		ldrb	r3, [r3]
 767 016c 3A69     		ldr	r2, [r7, #16]
 768 016e D318     		add	r3, r2, r3
 769 0170 0022     		mov	r2, #0
 770 0172 1A70     		strb	r2, [r3]
 924:.\Generated_Source\PSoC4/BLE.c ****                     i++;
 771              		.loc 1 924 0
 772 0174 3B1C     		mov	r3, r7
 773 0176 1733     		add	r3, r3, #23
 774 0178 1A78     		ldrb	r2, [r3]
 775 017a 3B1C     		mov	r3, r7
 776 017c 1733     		add	r3, r3, #23
 777 017e 0132     		add	r2, r2, #1
ARM GAS  C:\Users\ENESDU~1\AppData\Local\Temp\ccTCHFTj.s 			page 31


 778 0180 1A70     		strb	r2, [r3]
 779              	.L40:
 920:.\Generated_Source\PSoC4/BLE.c ****                 while(adLength > i)
 780              		.loc 1 920 0 discriminator 1
 781 0182 3A1C     		mov	r2, r7
 782 0184 1532     		add	r2, r2, #21
 783 0186 3B1C     		mov	r3, r7
 784 0188 1733     		add	r3, r3, #23
 785 018a 1278     		ldrb	r2, [r2]
 786 018c 1B78     		ldrb	r3, [r3]
 787 018e 9A42     		cmp	r2, r3
 788 0190 E9D8     		bhi	.L41
 789              	.L26:
 925:.\Generated_Source\PSoC4/BLE.c ****                 }
 926:.\Generated_Source\PSoC4/BLE.c ****             }
 927:.\Generated_Source\PSoC4/BLE.c ****         }
 790              		.loc 1 927 0
 791 0192 BD46     		mov	sp, r7
 792 0194 06B0     		add	sp, sp, #24
 793              		@ sp needed
 794 0196 80BD     		pop	{r7, pc}
 795              	.L43:
 796              		.align	2
 797              	.L42:
 798 0198 00000000 		.word	cyBle_discoveryData
 799 019c 00000000 		.word	cyBle_scanRspData
 800              		.cfi_endproc
 801              	.LFE8:
 802              		.size	CyBle_ChangeAdLocalName, .-CyBle_ChangeAdLocalName
 803              		.section	.text.CyBle_GapSetLocalName,"ax",%progbits
 804              		.align	2
 805              		.global	CyBle_GapSetLocalName
 806              		.code	16
 807              		.thumb_func
 808              		.type	CyBle_GapSetLocalName, %function
 809              	CyBle_GapSetLocalName:
 810              	.LFB9:
 928:.\Generated_Source\PSoC4/BLE.c **** #endif /* (CYBLE_GAP_ROLE_PERIPHERAL) */  
 929:.\Generated_Source\PSoC4/BLE.c ****     
 930:.\Generated_Source\PSoC4/BLE.c ****     
 931:.\Generated_Source\PSoC4/BLE.c ****     /******************************************************************************
 932:.\Generated_Source\PSoC4/BLE.c ****     ##Function Name: CyBle_GapSetLocalName
 933:.\Generated_Source\PSoC4/BLE.c ****     *******************************************************************************
 934:.\Generated_Source\PSoC4/BLE.c ****     Summary:
 935:.\Generated_Source\PSoC4/BLE.c ****      This API is used to set the local device name - a Characteristic of the 
 936:.\Generated_Source\PSoC4/BLE.c ****      GAP Service. If the characteristic length entered in the component customizer
 937:.\Generated_Source\PSoC4/BLE.c ****      is shorter than the string specified by the "name" parameter, the local device
 938:.\Generated_Source\PSoC4/BLE.c ****      name will be cut to the length specified in the customizer.
 939:.\Generated_Source\PSoC4/BLE.c **** 
 940:.\Generated_Source\PSoC4/BLE.c ****     Parameters:
 941:.\Generated_Source\PSoC4/BLE.c ****      char8 name: The local device name string. The name string to be written as
 942:.\Generated_Source\PSoC4/BLE.c ****                  the local device name. It represents a UTF-8 encoded User
 943:.\Generated_Source\PSoC4/BLE.c ****                  Friendly Descriptive Name for the device. The length of the local
 944:.\Generated_Source\PSoC4/BLE.c ****                  device string is entered into the component customizer and it can
 945:.\Generated_Source\PSoC4/BLE.c ****                  be set to a value from 0 to 248 bytes. If the name contained in
 946:.\Generated_Source\PSoC4/BLE.c ****                  the parameter is shorter than the length from the customizer, the
 947:.\Generated_Source\PSoC4/BLE.c ****                  end of the name is indicated by a NULL octet (0x00).
ARM GAS  C:\Users\ENESDU~1\AppData\Local\Temp\ccTCHFTj.s 			page 32


 948:.\Generated_Source\PSoC4/BLE.c **** 
 949:.\Generated_Source\PSoC4/BLE.c ****     Return:
 950:.\Generated_Source\PSoC4/BLE.c ****      CYBLE_API_RESULT_T : Return value indicates if the function succeeded or 
 951:.\Generated_Source\PSoC4/BLE.c ****      failed. Following are the possible error codes.
 952:.\Generated_Source\PSoC4/BLE.c ****      <table>
 953:.\Generated_Source\PSoC4/BLE.c ****       Errors codes                        Description
 954:.\Generated_Source\PSoC4/BLE.c ****       ------------                        -----------
 955:.\Generated_Source\PSoC4/BLE.c ****       CYBLE_ERROR_OK                      Function completed successfully.
 956:.\Generated_Source\PSoC4/BLE.c ****       CYBLE_ERROR_INVALID_PARAMETER       On specifying NULL as input parameter
 957:.\Generated_Source\PSoC4/BLE.c ****      </table>
 958:.\Generated_Source\PSoC4/BLE.c ****  
 959:.\Generated_Source\PSoC4/BLE.c ****     ******************************************************************************/
 960:.\Generated_Source\PSoC4/BLE.c ****     CYBLE_API_RESULT_T CyBle_GapSetLocalName(const char8 name[])
 961:.\Generated_Source\PSoC4/BLE.c ****     {
 811              		.loc 1 961 0
 812              		.cfi_startproc
 813 0000 80B5     		push	{r7, lr}
 814              		.cfi_def_cfa_offset 8
 815              		.cfi_offset 7, -8
 816              		.cfi_offset 14, -4
 817 0002 86B0     		sub	sp, sp, #24
 818              		.cfi_def_cfa_offset 32
 819 0004 00AF     		add	r7, sp, #0
 820              		.cfi_def_cfa_register 7
 821 0006 7860     		str	r0, [r7, #4]
 962:.\Generated_Source\PSoC4/BLE.c ****         CYBLE_API_RESULT_T apiResult = CYBLE_ERROR_OK;
 822              		.loc 1 962 0
 823 0008 3B1C     		mov	r3, r7
 824 000a 1633     		add	r3, r3, #22
 825 000c 0022     		mov	r2, #0
 826 000e 1A80     		strh	r2, [r3]
 963:.\Generated_Source\PSoC4/BLE.c ****         uint8 i;
 964:.\Generated_Source\PSoC4/BLE.c ****         char8 *ptr;
 965:.\Generated_Source\PSoC4/BLE.c ****         uint8 charLen;
 966:.\Generated_Source\PSoC4/BLE.c **** 
 967:.\Generated_Source\PSoC4/BLE.c ****         if(NULL != name)
 827              		.loc 1 967 0
 828 0010 7B68     		ldr	r3, [r7, #4]
 829 0012 002B     		cmp	r3, #0
 830 0014 42D0     		beq	.L45
 968:.\Generated_Source\PSoC4/BLE.c ****         {
 969:.\Generated_Source\PSoC4/BLE.c ****             /* Get the pointer to the Device Name characteristic  */
 970:.\Generated_Source\PSoC4/BLE.c ****             ptr = (char8 *)
 831              		.loc 1 970 0
 832 0016 274B     		ldr	r3, .L51
 833 0018 9B6B     		ldr	r3, [r3, #56]
 834 001a 3B61     		str	r3, [r7, #16]
 971:.\Generated_Source\PSoC4/BLE.c ****                 cyBle_gattDB[CYBLE_GAP_DEVICE_NAME_INDEX].attValue.attFormatValue.attGenericVal;
 972:.\Generated_Source\PSoC4/BLE.c **** 
 973:.\Generated_Source\PSoC4/BLE.c ****             /* First need to get the length of the characteristic data in the GATT
 974:.\Generated_Source\PSoC4/BLE.c ****                 database to make sure there is enough place for the data. The length
 975:.\Generated_Source\PSoC4/BLE.c ****                 can't be longer than 248, so only the LSB of 16 bit of length is to
 976:.\Generated_Source\PSoC4/BLE.c ****                 be used. */
 977:.\Generated_Source\PSoC4/BLE.c ****             charLen = (uint8) cyBle_gattDB[CYBLE_GAP_DEVICE_NAME_INDEX].attValue.attFormatValue.len
 835              		.loc 1 977 0
 836 001c 254B     		ldr	r3, .L51
 837 001e 9A8E     		ldrh	r2, [r3, #52]
ARM GAS  C:\Users\ENESDU~1\AppData\Local\Temp\ccTCHFTj.s 			page 33


 838 0020 3B1C     		mov	r3, r7
 839 0022 0F33     		add	r3, r3, #15
 840 0024 1A70     		strb	r2, [r3]
 978:.\Generated_Source\PSoC4/BLE.c **** 
 979:.\Generated_Source\PSoC4/BLE.c ****             /* Copy name into characteristic */
 980:.\Generated_Source\PSoC4/BLE.c ****             for(i = 0u; ((i < (charLen - 1u)) && (CYBLE_NULL_CHARCTER != name[i])); i++)
 841              		.loc 1 980 0
 842 0026 3B1C     		mov	r3, r7
 843 0028 1533     		add	r3, r3, #21
 844 002a 0022     		mov	r2, #0
 845 002c 1A70     		strb	r2, [r3]
 846 002e 12E0     		b	.L46
 847              	.L48:
 981:.\Generated_Source\PSoC4/BLE.c ****             {
 982:.\Generated_Source\PSoC4/BLE.c ****                 ptr[i] = name[i];
 848              		.loc 1 982 0 discriminator 1
 849 0030 3B1C     		mov	r3, r7
 850 0032 1533     		add	r3, r3, #21
 851 0034 1B78     		ldrb	r3, [r3]
 852 0036 3A69     		ldr	r2, [r7, #16]
 853 0038 D318     		add	r3, r2, r3
 854 003a 3A1C     		mov	r2, r7
 855 003c 1532     		add	r2, r2, #21
 856 003e 1278     		ldrb	r2, [r2]
 857 0040 7968     		ldr	r1, [r7, #4]
 858 0042 8A18     		add	r2, r1, r2
 859 0044 1278     		ldrb	r2, [r2]
 860 0046 1A70     		strb	r2, [r3]
 980:.\Generated_Source\PSoC4/BLE.c ****             for(i = 0u; ((i < (charLen - 1u)) && (CYBLE_NULL_CHARCTER != name[i])); i++)
 861              		.loc 1 980 0 discriminator 1
 862 0048 3B1C     		mov	r3, r7
 863 004a 1533     		add	r3, r3, #21
 864 004c 1A78     		ldrb	r2, [r3]
 865 004e 3B1C     		mov	r3, r7
 866 0050 1533     		add	r3, r3, #21
 867 0052 0132     		add	r2, r2, #1
 868 0054 1A70     		strb	r2, [r3]
 869              	.L46:
 870 0056 3B1C     		mov	r3, r7
 871 0058 1533     		add	r3, r3, #21
 872 005a 1A78     		ldrb	r2, [r3]
 873 005c 3B1C     		mov	r3, r7
 874 005e 0F33     		add	r3, r3, #15
 875 0060 1B78     		ldrb	r3, [r3]
 876 0062 013B     		sub	r3, r3, #1
 877 0064 9A42     		cmp	r2, r3
 878 0066 07D2     		bcs	.L47
 980:.\Generated_Source\PSoC4/BLE.c ****             for(i = 0u; ((i < (charLen - 1u)) && (CYBLE_NULL_CHARCTER != name[i])); i++)
 879              		.loc 1 980 0 is_stmt 0 discriminator 2
 880 0068 3B1C     		mov	r3, r7
 881 006a 1533     		add	r3, r3, #21
 882 006c 1B78     		ldrb	r3, [r3]
 883 006e 7A68     		ldr	r2, [r7, #4]
 884 0070 D318     		add	r3, r2, r3
 885 0072 1B78     		ldrb	r3, [r3]
 886 0074 002B     		cmp	r3, #0
 887 0076 DBD1     		bne	.L48
ARM GAS  C:\Users\ENESDU~1\AppData\Local\Temp\ccTCHFTj.s 			page 34


 888              	.L47:
 983:.\Generated_Source\PSoC4/BLE.c ****             }
 984:.\Generated_Source\PSoC4/BLE.c **** 
 985:.\Generated_Source\PSoC4/BLE.c ****             /* Terminate string */
 986:.\Generated_Source\PSoC4/BLE.c ****             ptr[i] = CYBLE_NULL_CHARCTER;
 889              		.loc 1 986 0 is_stmt 1
 890 0078 3B1C     		mov	r3, r7
 891 007a 1533     		add	r3, r3, #21
 892 007c 1B78     		ldrb	r3, [r3]
 893 007e 3A69     		ldr	r2, [r7, #16]
 894 0080 D318     		add	r3, r2, r3
 895 0082 0022     		mov	r2, #0
 896 0084 1A70     		strb	r2, [r3]
 987:.\Generated_Source\PSoC4/BLE.c ****             
 988:.\Generated_Source\PSoC4/BLE.c ****             /* Update device name in advertising and scan response structure */
 989:.\Generated_Source\PSoC4/BLE.c ****             #if(CYBLE_GAP_ROLE_PERIPHERAL)
 990:.\Generated_Source\PSoC4/BLE.c ****                 CyBle_ChangeAdLocalName(name, 0u);
 897              		.loc 1 990 0
 898 0086 7B68     		ldr	r3, [r7, #4]
 899 0088 181C     		mov	r0, r3
 900 008a 0021     		mov	r1, #0
 901 008c FFF7FEFF 		bl	CyBle_ChangeAdLocalName
 991:.\Generated_Source\PSoC4/BLE.c ****                 CyBle_ChangeAdLocalName(name, 1u);
 902              		.loc 1 991 0
 903 0090 7B68     		ldr	r3, [r7, #4]
 904 0092 181C     		mov	r0, r3
 905 0094 0121     		mov	r1, #1
 906 0096 FFF7FEFF 		bl	CyBle_ChangeAdLocalName
 907 009a 03E0     		b	.L49
 908              	.L45:
 992:.\Generated_Source\PSoC4/BLE.c ****             #endif /* (CYBLE_GAP_ROLE_PERIPHERAL) */
 993:.\Generated_Source\PSoC4/BLE.c ****         }
 994:.\Generated_Source\PSoC4/BLE.c ****         else
 995:.\Generated_Source\PSoC4/BLE.c ****         {
 996:.\Generated_Source\PSoC4/BLE.c ****             apiResult = CYBLE_ERROR_INVALID_PARAMETER;
 909              		.loc 1 996 0
 910 009c 3B1C     		mov	r3, r7
 911 009e 1633     		add	r3, r3, #22
 912 00a0 0122     		mov	r2, #1
 913 00a2 1A80     		strh	r2, [r3]
 914              	.L49:
 997:.\Generated_Source\PSoC4/BLE.c ****         }
 998:.\Generated_Source\PSoC4/BLE.c ****         
 999:.\Generated_Source\PSoC4/BLE.c ****         return(apiResult);
 915              		.loc 1 999 0
 916 00a4 3B1C     		mov	r3, r7
 917 00a6 1633     		add	r3, r3, #22
 918 00a8 1B88     		ldrh	r3, [r3]
1000:.\Generated_Source\PSoC4/BLE.c ****     }
 919              		.loc 1 1000 0
 920 00aa 181C     		mov	r0, r3
 921 00ac BD46     		mov	sp, r7
 922 00ae 06B0     		add	sp, sp, #24
 923              		@ sp needed
 924 00b0 80BD     		pop	{r7, pc}
 925              	.L52:
 926 00b2 C046     		.align	2
ARM GAS  C:\Users\ENESDU~1\AppData\Local\Temp\ccTCHFTj.s 			page 35


 927              	.L51:
 928 00b4 00000000 		.word	cyBle_gattDB
 929              		.cfi_endproc
 930              	.LFE9:
 931              		.size	CyBle_GapSetLocalName, .-CyBle_GapSetLocalName
 932              		.section	.text.CyBle_GapGetLocalName,"ax",%progbits
 933              		.align	2
 934              		.global	CyBle_GapGetLocalName
 935              		.code	16
 936              		.thumb_func
 937              		.type	CyBle_GapGetLocalName, %function
 938              	CyBle_GapGetLocalName:
 939              	.LFB10:
1001:.\Generated_Source\PSoC4/BLE.c **** 
1002:.\Generated_Source\PSoC4/BLE.c **** 
1003:.\Generated_Source\PSoC4/BLE.c ****     /******************************************************************************
1004:.\Generated_Source\PSoC4/BLE.c ****     ##Function Name: CyBle_GapGetLocalName
1005:.\Generated_Source\PSoC4/BLE.c ****     *******************************************************************************
1006:.\Generated_Source\PSoC4/BLE.c ****  
1007:.\Generated_Source\PSoC4/BLE.c ****     Summary:
1008:.\Generated_Source\PSoC4/BLE.c ****      This API is used to read the local device name - a Characteristic of the 
1009:.\Generated_Source\PSoC4/BLE.c ****      GAP Service.
1010:.\Generated_Source\PSoC4/BLE.c **** 
1011:.\Generated_Source\PSoC4/BLE.c ****     Parameters:
1012:.\Generated_Source\PSoC4/BLE.c ****     char8 name: The local device name string. Used to read the local name to the
1013:.\Generated_Source\PSoC4/BLE.c ****                 given string array. It represents a UTF-8 encoded User Friendly 
1014:.\Generated_Source\PSoC4/BLE.c ****                 Descriptive Name for the device. The length of the local device
1015:.\Generated_Source\PSoC4/BLE.c ****                 string is entered into the component customizer and it can be set
1016:.\Generated_Source\PSoC4/BLE.c ****                 to a value from 0 to 248 bytes. If the name contained in the
1017:.\Generated_Source\PSoC4/BLE.c ****                 parameter is shorter than the length from the customizer, the end
1018:.\Generated_Source\PSoC4/BLE.c ****                 of the name is indicated by a NULL octet (0x00).
1019:.\Generated_Source\PSoC4/BLE.c **** 
1020:.\Generated_Source\PSoC4/BLE.c ****     Return:
1021:.\Generated_Source\PSoC4/BLE.c ****      CYBLE_API_RESULT_T : Return value indicates if the function succeeded or 
1022:.\Generated_Source\PSoC4/BLE.c ****      failed. Following are the possible error codes.
1023:.\Generated_Source\PSoC4/BLE.c ****      <table>
1024:.\Generated_Source\PSoC4/BLE.c ****       Errors codes                        Description
1025:.\Generated_Source\PSoC4/BLE.c ****       ------------                        -----------
1026:.\Generated_Source\PSoC4/BLE.c ****       CYBLE_ERROR_OK                      Function completed successfully.
1027:.\Generated_Source\PSoC4/BLE.c ****       CYBLE_ERROR_INVALID_PARAMETER       On specifying NULL as input parameter
1028:.\Generated_Source\PSoC4/BLE.c ****      </table>
1029:.\Generated_Source\PSoC4/BLE.c **** 
1030:.\Generated_Source\PSoC4/BLE.c ****     ******************************************************************************/
1031:.\Generated_Source\PSoC4/BLE.c ****     CYBLE_API_RESULT_T CyBle_GapGetLocalName(char8 name[])
1032:.\Generated_Source\PSoC4/BLE.c ****     {
 940              		.loc 1 1032 0
 941              		.cfi_startproc
 942 0000 80B5     		push	{r7, lr}
 943              		.cfi_def_cfa_offset 8
 944              		.cfi_offset 7, -8
 945              		.cfi_offset 14, -4
 946 0002 86B0     		sub	sp, sp, #24
 947              		.cfi_def_cfa_offset 32
 948 0004 00AF     		add	r7, sp, #0
 949              		.cfi_def_cfa_register 7
 950 0006 7860     		str	r0, [r7, #4]
1033:.\Generated_Source\PSoC4/BLE.c ****         CYBLE_API_RESULT_T apiResult = CYBLE_ERROR_OK;
ARM GAS  C:\Users\ENESDU~1\AppData\Local\Temp\ccTCHFTj.s 			page 36


 951              		.loc 1 1033 0
 952 0008 3B1C     		mov	r3, r7
 953 000a 1633     		add	r3, r3, #22
 954 000c 0022     		mov	r2, #0
 955 000e 1A80     		strh	r2, [r3]
1034:.\Generated_Source\PSoC4/BLE.c ****         uint8 charLen;
1035:.\Generated_Source\PSoC4/BLE.c ****         uint8 i;
1036:.\Generated_Source\PSoC4/BLE.c ****         char8 *ptr;
1037:.\Generated_Source\PSoC4/BLE.c **** 
1038:.\Generated_Source\PSoC4/BLE.c ****         if(NULL != name)
 956              		.loc 1 1038 0
 957 0010 7B68     		ldr	r3, [r7, #4]
 958 0012 002B     		cmp	r3, #0
 959 0014 38D0     		beq	.L54
1039:.\Generated_Source\PSoC4/BLE.c ****         {
1040:.\Generated_Source\PSoC4/BLE.c ****             /* Get the pointer to the Device Name characteristic  */
1041:.\Generated_Source\PSoC4/BLE.c ****             ptr = (char8 *) cyBle_gattDB[CYBLE_GAP_DEVICE_NAME_INDEX].attValue.attFormatValue.attGe
 960              		.loc 1 1041 0
 961 0016 224B     		ldr	r3, .L60
 962 0018 9B6B     		ldr	r3, [r3, #56]
 963 001a 3B61     		str	r3, [r7, #16]
1042:.\Generated_Source\PSoC4/BLE.c **** 
1043:.\Generated_Source\PSoC4/BLE.c ****             /* First need to get the length of the characteristic data in the GATT
1044:.\Generated_Source\PSoC4/BLE.c ****                 database to make sure there is enough place for the data. The length
1045:.\Generated_Source\PSoC4/BLE.c ****                 can't be longer than 248, so only the LSB of 16 bit of length is to
1046:.\Generated_Source\PSoC4/BLE.c ****                 be used. */
1047:.\Generated_Source\PSoC4/BLE.c ****             charLen = (uint8)cyBle_gattDB[CYBLE_GAP_DEVICE_NAME_INDEX].attValue.attFormatValue.leng
 964              		.loc 1 1047 0
 965 001c 204B     		ldr	r3, .L60
 966 001e 9A8E     		ldrh	r2, [r3, #52]
 967 0020 3B1C     		mov	r3, r7
 968 0022 0F33     		add	r3, r3, #15
 969 0024 1A70     		strb	r2, [r3]
1048:.\Generated_Source\PSoC4/BLE.c **** 
1049:.\Generated_Source\PSoC4/BLE.c ****             /* Copy name from characteristic */
1050:.\Generated_Source\PSoC4/BLE.c ****             for(i = 0u; ((i < (charLen - 1u)) && (CYBLE_NULL_CHARCTER != ptr[i])); i++)
 970              		.loc 1 1050 0
 971 0026 3B1C     		mov	r3, r7
 972 0028 1533     		add	r3, r3, #21
 973 002a 0022     		mov	r2, #0
 974 002c 1A70     		strb	r2, [r3]
 975 002e 12E0     		b	.L55
 976              	.L57:
1051:.\Generated_Source\PSoC4/BLE.c ****             {
1052:.\Generated_Source\PSoC4/BLE.c ****                 name[i] = ptr[i];
 977              		.loc 1 1052 0 discriminator 1
 978 0030 3B1C     		mov	r3, r7
 979 0032 1533     		add	r3, r3, #21
 980 0034 1B78     		ldrb	r3, [r3]
 981 0036 7A68     		ldr	r2, [r7, #4]
 982 0038 D318     		add	r3, r2, r3
 983 003a 3A1C     		mov	r2, r7
 984 003c 1532     		add	r2, r2, #21
 985 003e 1278     		ldrb	r2, [r2]
 986 0040 3969     		ldr	r1, [r7, #16]
 987 0042 8A18     		add	r2, r1, r2
 988 0044 1278     		ldrb	r2, [r2]
ARM GAS  C:\Users\ENESDU~1\AppData\Local\Temp\ccTCHFTj.s 			page 37


 989 0046 1A70     		strb	r2, [r3]
1050:.\Generated_Source\PSoC4/BLE.c ****             for(i = 0u; ((i < (charLen - 1u)) && (CYBLE_NULL_CHARCTER != ptr[i])); i++)
 990              		.loc 1 1050 0 discriminator 1
 991 0048 3B1C     		mov	r3, r7
 992 004a 1533     		add	r3, r3, #21
 993 004c 1A78     		ldrb	r2, [r3]
 994 004e 3B1C     		mov	r3, r7
 995 0050 1533     		add	r3, r3, #21
 996 0052 0132     		add	r2, r2, #1
 997 0054 1A70     		strb	r2, [r3]
 998              	.L55:
 999 0056 3B1C     		mov	r3, r7
 1000 0058 1533     		add	r3, r3, #21
 1001 005a 1A78     		ldrb	r2, [r3]
 1002 005c 3B1C     		mov	r3, r7
 1003 005e 0F33     		add	r3, r3, #15
 1004 0060 1B78     		ldrb	r3, [r3]
 1005 0062 013B     		sub	r3, r3, #1
 1006 0064 9A42     		cmp	r2, r3
 1007 0066 07D2     		bcs	.L56
1050:.\Generated_Source\PSoC4/BLE.c ****             for(i = 0u; ((i < (charLen - 1u)) && (CYBLE_NULL_CHARCTER != ptr[i])); i++)
 1008              		.loc 1 1050 0 is_stmt 0 discriminator 2
 1009 0068 3B1C     		mov	r3, r7
 1010 006a 1533     		add	r3, r3, #21
 1011 006c 1B78     		ldrb	r3, [r3]
 1012 006e 3A69     		ldr	r2, [r7, #16]
 1013 0070 D318     		add	r3, r2, r3
 1014 0072 1B78     		ldrb	r3, [r3]
 1015 0074 002B     		cmp	r3, #0
 1016 0076 DBD1     		bne	.L57
 1017              	.L56:
1053:.\Generated_Source\PSoC4/BLE.c ****             }
1054:.\Generated_Source\PSoC4/BLE.c **** 
1055:.\Generated_Source\PSoC4/BLE.c ****             /* Terminate string */
1056:.\Generated_Source\PSoC4/BLE.c ****             name[i] = CYBLE_NULL_CHARCTER;
 1018              		.loc 1 1056 0 is_stmt 1
 1019 0078 3B1C     		mov	r3, r7
 1020 007a 1533     		add	r3, r3, #21
 1021 007c 1B78     		ldrb	r3, [r3]
 1022 007e 7A68     		ldr	r2, [r7, #4]
 1023 0080 D318     		add	r3, r2, r3
 1024 0082 0022     		mov	r2, #0
 1025 0084 1A70     		strb	r2, [r3]
 1026 0086 03E0     		b	.L58
 1027              	.L54:
1057:.\Generated_Source\PSoC4/BLE.c ****         }
1058:.\Generated_Source\PSoC4/BLE.c ****         else
1059:.\Generated_Source\PSoC4/BLE.c ****         {
1060:.\Generated_Source\PSoC4/BLE.c ****             apiResult = CYBLE_ERROR_INVALID_PARAMETER;
 1028              		.loc 1 1060 0
 1029 0088 3B1C     		mov	r3, r7
 1030 008a 1633     		add	r3, r3, #22
 1031 008c 0122     		mov	r2, #1
 1032 008e 1A80     		strh	r2, [r3]
 1033              	.L58:
1061:.\Generated_Source\PSoC4/BLE.c ****         }
1062:.\Generated_Source\PSoC4/BLE.c ****         
ARM GAS  C:\Users\ENESDU~1\AppData\Local\Temp\ccTCHFTj.s 			page 38


1063:.\Generated_Source\PSoC4/BLE.c ****         return(apiResult);
 1034              		.loc 1 1063 0
 1035 0090 3B1C     		mov	r3, r7
 1036 0092 1633     		add	r3, r3, #22
 1037 0094 1B88     		ldrh	r3, [r3]
1064:.\Generated_Source\PSoC4/BLE.c ****     }
 1038              		.loc 1 1064 0
 1039 0096 181C     		mov	r0, r3
 1040 0098 BD46     		mov	sp, r7
 1041 009a 06B0     		add	sp, sp, #24
 1042              		@ sp needed
 1043 009c 80BD     		pop	{r7, pc}
 1044              	.L61:
 1045 009e C046     		.align	2
 1046              	.L60:
 1047 00a0 00000000 		.word	cyBle_gattDB
 1048              		.cfi_endproc
 1049              	.LFE10:
 1050              		.size	CyBle_GapGetLocalName, .-CyBle_GapGetLocalName
 1051              		.section	.text.CyBle_Get16ByPtr,"ax",%progbits
 1052              		.align	2
 1053              		.global	CyBle_Get16ByPtr
 1054              		.code	16
 1055              		.thumb_func
 1056              		.type	CyBle_Get16ByPtr, %function
 1057              	CyBle_Get16ByPtr:
 1058              	.LFB11:
1065:.\Generated_Source\PSoC4/BLE.c **** 
1066:.\Generated_Source\PSoC4/BLE.c **** #endif /* (CYBLE_GATT_ROLE_SERVER) */
1067:.\Generated_Source\PSoC4/BLE.c **** 
1068:.\Generated_Source\PSoC4/BLE.c **** 
1069:.\Generated_Source\PSoC4/BLE.c **** /******************************************************************************
1070:.\Generated_Source\PSoC4/BLE.c **** ##Function Name: CyBle_Get16ByPtr
1071:.\Generated_Source\PSoC4/BLE.c **** *******************************************************************************
1072:.\Generated_Source\PSoC4/BLE.c **** 
1073:.\Generated_Source\PSoC4/BLE.c **** Summary:
1074:.\Generated_Source\PSoC4/BLE.c ****  Returns the two-bytes value by using a pointer to the LSB.
1075:.\Generated_Source\PSoC4/BLE.c **** 
1076:.\Generated_Source\PSoC4/BLE.c **** Parameters:
1077:.\Generated_Source\PSoC4/BLE.c ****  uint8 * ptr: Pointer to the LSB of two-bytes data (little endian).
1078:.\Generated_Source\PSoC4/BLE.c **** 
1079:.\Generated_Source\PSoC4/BLE.c **** Return:
1080:.\Generated_Source\PSoC4/BLE.c ****  uint16 value: Two-bytes data.
1081:.\Generated_Source\PSoC4/BLE.c **** 
1082:.\Generated_Source\PSoC4/BLE.c **** ******************************************************************************/
1083:.\Generated_Source\PSoC4/BLE.c **** uint16 CyBle_Get16ByPtr(const uint8 ptr[])
1084:.\Generated_Source\PSoC4/BLE.c **** {
 1059              		.loc 1 1084 0
 1060              		.cfi_startproc
 1061 0000 80B5     		push	{r7, lr}
 1062              		.cfi_def_cfa_offset 8
 1063              		.cfi_offset 7, -8
 1064              		.cfi_offset 14, -4
 1065 0002 82B0     		sub	sp, sp, #8
 1066              		.cfi_def_cfa_offset 16
 1067 0004 00AF     		add	r7, sp, #0
 1068              		.cfi_def_cfa_register 7
ARM GAS  C:\Users\ENESDU~1\AppData\Local\Temp\ccTCHFTj.s 			page 39


 1069 0006 7860     		str	r0, [r7, #4]
1085:.\Generated_Source\PSoC4/BLE.c ****     return ((uint16) ptr[0u] | ((uint16) (((uint16) ptr[1u]) << 8u)));
 1070              		.loc 1 1085 0
 1071 0008 7B68     		ldr	r3, [r7, #4]
 1072 000a 1B78     		ldrb	r3, [r3]
 1073 000c 1A1C     		mov	r2, r3
 1074 000e 7B68     		ldr	r3, [r7, #4]
 1075 0010 0133     		add	r3, r3, #1
 1076 0012 1B78     		ldrb	r3, [r3]
 1077 0014 1B02     		lsl	r3, r3, #8
 1078 0016 9BB2     		uxth	r3, r3
 1079 0018 1343     		orr	r3, r2
 1080 001a 9BB2     		uxth	r3, r3
1086:.\Generated_Source\PSoC4/BLE.c **** }
 1081              		.loc 1 1086 0
 1082 001c 181C     		mov	r0, r3
 1083 001e BD46     		mov	sp, r7
 1084 0020 02B0     		add	sp, sp, #8
 1085              		@ sp needed
 1086 0022 80BD     		pop	{r7, pc}
 1087              		.cfi_endproc
 1088              	.LFE11:
 1089              		.size	CyBle_Get16ByPtr, .-CyBle_Get16ByPtr
 1090              		.section	.text.CyBle_Set16ByPtr,"ax",%progbits
 1091              		.align	2
 1092              		.global	CyBle_Set16ByPtr
 1093              		.code	16
 1094              		.thumb_func
 1095              		.type	CyBle_Set16ByPtr, %function
 1096              	CyBle_Set16ByPtr:
 1097              	.LFB12:
1087:.\Generated_Source\PSoC4/BLE.c **** 
1088:.\Generated_Source\PSoC4/BLE.c **** 
1089:.\Generated_Source\PSoC4/BLE.c **** /******************************************************************************
1090:.\Generated_Source\PSoC4/BLE.c **** ##Function Name: CyBle_Set16ByPtr
1091:.\Generated_Source\PSoC4/BLE.c **** *******************************************************************************
1092:.\Generated_Source\PSoC4/BLE.c **** 
1093:.\Generated_Source\PSoC4/BLE.c **** Summary:
1094:.\Generated_Source\PSoC4/BLE.c ****  Sets the two-bytes value by using a pointer to the LSB.
1095:.\Generated_Source\PSoC4/BLE.c **** 
1096:.\Generated_Source\PSoC4/BLE.c **** Parameters:
1097:.\Generated_Source\PSoC4/BLE.c ****  uint8 * ptr:   Pointer to the LSB of two-bytes data (little endian).
1098:.\Generated_Source\PSoC4/BLE.c ****  uint16 value:  Two-bytes data to be written.
1099:.\Generated_Source\PSoC4/BLE.c **** 
1100:.\Generated_Source\PSoC4/BLE.c **** Return:
1101:.\Generated_Source\PSoC4/BLE.c ****  None
1102:.\Generated_Source\PSoC4/BLE.c **** 
1103:.\Generated_Source\PSoC4/BLE.c **** ******************************************************************************/
1104:.\Generated_Source\PSoC4/BLE.c **** void CyBle_Set16ByPtr(uint8 ptr[], uint16 value)
1105:.\Generated_Source\PSoC4/BLE.c **** {
 1098              		.loc 1 1105 0
 1099              		.cfi_startproc
 1100 0000 80B5     		push	{r7, lr}
 1101              		.cfi_def_cfa_offset 8
 1102              		.cfi_offset 7, -8
 1103              		.cfi_offset 14, -4
 1104 0002 82B0     		sub	sp, sp, #8
ARM GAS  C:\Users\ENESDU~1\AppData\Local\Temp\ccTCHFTj.s 			page 40


 1105              		.cfi_def_cfa_offset 16
 1106 0004 00AF     		add	r7, sp, #0
 1107              		.cfi_def_cfa_register 7
 1108 0006 7860     		str	r0, [r7, #4]
 1109 0008 0A1C     		mov	r2, r1
 1110 000a BB1C     		add	r3, r7, #2
 1111 000c 1A80     		strh	r2, [r3]
1106:.\Generated_Source\PSoC4/BLE.c ****     ptr[0u] = (uint8) value;
 1112              		.loc 1 1106 0
 1113 000e BB1C     		add	r3, r7, #2
 1114 0010 1B88     		ldrh	r3, [r3]
 1115 0012 DAB2     		uxtb	r2, r3
 1116 0014 7B68     		ldr	r3, [r7, #4]
 1117 0016 1A70     		strb	r2, [r3]
1107:.\Generated_Source\PSoC4/BLE.c ****     ptr[1u] = (uint8) (value >> 8u);
 1118              		.loc 1 1107 0
 1119 0018 7B68     		ldr	r3, [r7, #4]
 1120 001a 0133     		add	r3, r3, #1
 1121 001c BA1C     		add	r2, r7, #2
 1122 001e 1288     		ldrh	r2, [r2]
 1123 0020 120A     		lsr	r2, r2, #8
 1124 0022 92B2     		uxth	r2, r2
 1125 0024 D2B2     		uxtb	r2, r2
 1126 0026 1A70     		strb	r2, [r3]
1108:.\Generated_Source\PSoC4/BLE.c **** }
 1127              		.loc 1 1108 0
 1128 0028 BD46     		mov	sp, r7
 1129 002a 02B0     		add	sp, sp, #8
 1130              		@ sp needed
 1131 002c 80BD     		pop	{r7, pc}
 1132              		.cfi_endproc
 1133              	.LFE12:
 1134              		.size	CyBle_Set16ByPtr, .-CyBle_Set16ByPtr
 1135 002e C046     		.bss
 1136 0001 00000000 		.align	3
 1136      000000
 1137              	cyBle_stackMemoryRam.6017:
 1138 0008 00000000 		.space	3220
 1138      00000000 
 1138      00000000 
 1138      00000000 
 1138      00000000 
 1139 0c9c 00000000 		.text
 1140              	.Letext0:
 1141              		.file 2 ".\\Generated_Source\\PSoC4\\cytypes.h"
 1142              		.file 3 ".\\Generated_Source\\PSoC4\\BLE_Stack.h"
 1143              		.file 4 ".\\Generated_Source\\PSoC4\\BLE_StackGap.h"
 1144              		.file 5 ".\\Generated_Source\\PSoC4\\BLE_StackGattDb.h"
 1145              		.file 6 ".\\Generated_Source\\PSoC4\\BLE.h"
 1146              		.file 7 ".\\Generated_Source\\PSoC4\\BLE_dis.h"
 1147              		.file 8 ".\\Generated_Source\\PSoC4\\BLE_eventHandler.h"
 1148              		.file 9 ".\\Generated_Source\\PSoC4\\BLE_gatt.h"
 1149              		.section	.debug_info,"",%progbits
 1150              	.Ldebug_info0:
 1151 0000 9D090000 		.4byte	0x99d
 1152 0004 0400     		.2byte	0x4
 1153 0006 00000000 		.4byte	.Ldebug_abbrev0
ARM GAS  C:\Users\ENESDU~1\AppData\Local\Temp\ccTCHFTj.s 			page 41


 1154 000a 04       		.byte	0x4
 1155 000b 01       		.uleb128 0x1
 1156 000c A40B0000 		.4byte	.LASF196
 1157 0010 01       		.byte	0x1
 1158 0011 C3000000 		.4byte	.LASF197
 1159 0015 B8050000 		.4byte	.LASF198
 1160 0019 00000000 		.4byte	.Ldebug_ranges0+0
 1161 001d 00000000 		.4byte	0
 1162 0021 00000000 		.4byte	.Ldebug_line0
 1163 0025 02       		.uleb128 0x2
 1164 0026 01       		.byte	0x1
 1165 0027 06       		.byte	0x6
 1166 0028 97030000 		.4byte	.LASF0
 1167 002c 02       		.uleb128 0x2
 1168 002d 01       		.byte	0x1
 1169 002e 08       		.byte	0x8
 1170 002f B20C0000 		.4byte	.LASF1
 1171 0033 02       		.uleb128 0x2
 1172 0034 02       		.byte	0x2
 1173 0035 05       		.byte	0x5
 1174 0036 FF0C0000 		.4byte	.LASF2
 1175 003a 02       		.uleb128 0x2
 1176 003b 02       		.byte	0x2
 1177 003c 07       		.byte	0x7
 1178 003d 770F0000 		.4byte	.LASF3
 1179 0041 02       		.uleb128 0x2
 1180 0042 04       		.byte	0x4
 1181 0043 05       		.byte	0x5
 1182 0044 05020000 		.4byte	.LASF4
 1183 0048 02       		.uleb128 0x2
 1184 0049 04       		.byte	0x4
 1185 004a 07       		.byte	0x7
 1186 004b 5F070000 		.4byte	.LASF5
 1187 004f 02       		.uleb128 0x2
 1188 0050 08       		.byte	0x8
 1189 0051 05       		.byte	0x5
 1190 0052 89030000 		.4byte	.LASF6
 1191 0056 02       		.uleb128 0x2
 1192 0057 08       		.byte	0x8
 1193 0058 07       		.byte	0x7
 1194 0059 A6060000 		.4byte	.LASF7
 1195 005d 03       		.uleb128 0x3
 1196 005e 04       		.byte	0x4
 1197 005f 05       		.byte	0x5
 1198 0060 696E7400 		.ascii	"int\000"
 1199 0064 02       		.uleb128 0x2
 1200 0065 04       		.byte	0x4
 1201 0066 07       		.byte	0x7
 1202 0067 B50E0000 		.4byte	.LASF8
 1203 006b 04       		.uleb128 0x4
 1204 006c 12050000 		.4byte	.LASF9
 1205 0070 02       		.byte	0x2
 1206 0071 A1       		.byte	0xa1
 1207 0072 2C000000 		.4byte	0x2c
 1208 0076 04       		.uleb128 0x4
 1209 0077 C00C0000 		.4byte	.LASF10
 1210 007b 02       		.byte	0x2
ARM GAS  C:\Users\ENESDU~1\AppData\Local\Temp\ccTCHFTj.s 			page 42


 1211 007c A2       		.byte	0xa2
 1212 007d 3A000000 		.4byte	0x3a
 1213 0081 04       		.uleb128 0x4
 1214 0082 B1050000 		.4byte	.LASF11
 1215 0086 02       		.byte	0x2
 1216 0087 A3       		.byte	0xa3
 1217 0088 48000000 		.4byte	0x48
 1218 008c 02       		.uleb128 0x2
 1219 008d 04       		.byte	0x4
 1220 008e 04       		.byte	0x4
 1221 008f 9E0B0000 		.4byte	.LASF12
 1222 0093 02       		.uleb128 0x2
 1223 0094 08       		.byte	0x8
 1224 0095 04       		.byte	0x4
 1225 0096 4A050000 		.4byte	.LASF13
 1226 009a 04       		.uleb128 0x4
 1227 009b E70E0000 		.4byte	.LASF14
 1228 009f 02       		.byte	0x2
 1229 00a0 B2       		.byte	0xb2
 1230 00a1 A5000000 		.4byte	0xa5
 1231 00a5 02       		.uleb128 0x2
 1232 00a6 01       		.byte	0x1
 1233 00a7 08       		.byte	0x8
 1234 00a8 3F0E0000 		.4byte	.LASF15
 1235 00ac 05       		.uleb128 0x5
 1236 00ad 6B000000 		.4byte	0x6b
 1237 00b1 02       		.uleb128 0x2
 1238 00b2 04       		.byte	0x4
 1239 00b3 07       		.byte	0x7
 1240 00b4 410A0000 		.4byte	.LASF16
 1241 00b8 06       		.uleb128 0x6
 1242 00b9 04       		.byte	0x4
 1243 00ba 07       		.uleb128 0x7
 1244 00bb 01       		.byte	0x1
 1245 00bc 03       		.byte	0x3
 1246 00bd 52       		.byte	0x52
 1247 00be 2A020000 		.4byte	0x22a
 1248 00c2 08       		.uleb128 0x8
 1249 00c3 39080000 		.4byte	.LASF17
 1250 00c7 00       		.sleb128 0
 1251 00c8 08       		.uleb128 0x8
 1252 00c9 A3030000 		.4byte	.LASF18
 1253 00cd 01       		.sleb128 1
 1254 00ce 08       		.uleb128 0x8
 1255 00cf F3010000 		.4byte	.LASF19
 1256 00d3 02       		.sleb128 2
 1257 00d4 08       		.uleb128 0x8
 1258 00d5 5E0F0000 		.4byte	.LASF20
 1259 00d9 03       		.sleb128 3
 1260 00da 08       		.uleb128 0x8
 1261 00db 86020000 		.4byte	.LASF21
 1262 00df 04       		.sleb128 4
 1263 00e0 08       		.uleb128 0x8
 1264 00e1 23000000 		.4byte	.LASF22
 1265 00e5 05       		.sleb128 5
 1266 00e6 08       		.uleb128 0x8
 1267 00e7 8C090000 		.4byte	.LASF23
ARM GAS  C:\Users\ENESDU~1\AppData\Local\Temp\ccTCHFTj.s 			page 43


 1268 00eb 20       		.sleb128 32
 1269 00ec 08       		.uleb128 0x8
 1270 00ed 00040000 		.4byte	.LASF24
 1271 00f1 21       		.sleb128 33
 1272 00f2 08       		.uleb128 0x8
 1273 00f3 7C080000 		.4byte	.LASF25
 1274 00f7 22       		.sleb128 34
 1275 00f8 08       		.uleb128 0x8
 1276 00f9 27090000 		.4byte	.LASF26
 1277 00fd 23       		.sleb128 35
 1278 00fe 08       		.uleb128 0x8
 1279 00ff A30A0000 		.4byte	.LASF27
 1280 0103 24       		.sleb128 36
 1281 0104 08       		.uleb128 0x8
 1282 0105 6F0A0000 		.4byte	.LASF28
 1283 0109 25       		.sleb128 37
 1284 010a 08       		.uleb128 0x8
 1285 010b B1040000 		.4byte	.LASF29
 1286 010f 26       		.sleb128 38
 1287 0110 08       		.uleb128 0x8
 1288 0111 A0080000 		.4byte	.LASF30
 1289 0115 27       		.sleb128 39
 1290 0116 08       		.uleb128 0x8
 1291 0117 7B0E0000 		.4byte	.LASF31
 1292 011b 28       		.sleb128 40
 1293 011c 08       		.uleb128 0x8
 1294 011d 31030000 		.4byte	.LASF32
 1295 0121 29       		.sleb128 41
 1296 0122 08       		.uleb128 0x8
 1297 0123 E2000000 		.4byte	.LASF33
 1298 0127 2A       		.sleb128 42
 1299 0128 08       		.uleb128 0x8
 1300 0129 A3020000 		.4byte	.LASF34
 1301 012d 2B       		.sleb128 43
 1302 012e 08       		.uleb128 0x8
 1303 012f 74110000 		.4byte	.LASF35
 1304 0133 2C       		.sleb128 44
 1305 0134 08       		.uleb128 0x8
 1306 0135 2F060000 		.4byte	.LASF36
 1307 0139 C000     		.sleb128 64
 1308 013b 08       		.uleb128 0x8
 1309 013c 4D090000 		.4byte	.LASF37
 1310 0140 C100     		.sleb128 65
 1311 0142 08       		.uleb128 0x8
 1312 0143 06070000 		.4byte	.LASF38
 1313 0147 C200     		.sleb128 66
 1314 0149 08       		.uleb128 0x8
 1315 014a D10F0000 		.4byte	.LASF39
 1316 014e C300     		.sleb128 67
 1317 0150 08       		.uleb128 0x8
 1318 0151 8B070000 		.4byte	.LASF40
 1319 0155 C400     		.sleb128 68
 1320 0157 08       		.uleb128 0x8
 1321 0158 770B0000 		.4byte	.LASF41
 1322 015c C500     		.sleb128 69
 1323 015e 08       		.uleb128 0x8
 1324 015f 080A0000 		.4byte	.LASF42
ARM GAS  C:\Users\ENESDU~1\AppData\Local\Temp\ccTCHFTj.s 			page 44


 1325 0163 C600     		.sleb128 70
 1326 0165 08       		.uleb128 0x8
 1327 0166 50080000 		.4byte	.LASF43
 1328 016a C700     		.sleb128 71
 1329 016c 08       		.uleb128 0x8
 1330 016d 38110000 		.4byte	.LASF44
 1331 0171 C800     		.sleb128 72
 1332 0173 08       		.uleb128 0x8
 1333 0174 22040000 		.4byte	.LASF45
 1334 0178 C900     		.sleb128 73
 1335 017a 08       		.uleb128 0x8
 1336 017b 79100000 		.4byte	.LASF46
 1337 017f CA00     		.sleb128 74
 1338 0181 08       		.uleb128 0x8
 1339 0182 66010000 		.4byte	.LASF47
 1340 0186 CB00     		.sleb128 75
 1341 0188 08       		.uleb128 0x8
 1342 0189 71070000 		.4byte	.LASF48
 1343 018d CC00     		.sleb128 76
 1344 018f 08       		.uleb128 0x8
 1345 0190 890A0000 		.4byte	.LASF49
 1346 0194 CD00     		.sleb128 77
 1347 0196 08       		.uleb128 0x8
 1348 0197 65040000 		.4byte	.LASF50
 1349 019b CE00     		.sleb128 78
 1350 019d 08       		.uleb128 0x8
 1351 019e 6B0D0000 		.4byte	.LASF51
 1352 01a2 CF00     		.sleb128 79
 1353 01a4 08       		.uleb128 0x8
 1354 01a5 85010000 		.4byte	.LASF52
 1355 01a9 D000     		.sleb128 80
 1356 01ab 08       		.uleb128 0x8
 1357 01ac 2B050000 		.4byte	.LASF53
 1358 01b0 D100     		.sleb128 81
 1359 01b2 08       		.uleb128 0x8
 1360 01b3 E70A0000 		.4byte	.LASF54
 1361 01b7 D200     		.sleb128 82
 1362 01b9 08       		.uleb128 0x8
 1363 01ba 090D0000 		.4byte	.LASF55
 1364 01be D300     		.sleb128 83
 1365 01c0 08       		.uleb128 0x8
 1366 01c1 F30D0000 		.4byte	.LASF56
 1367 01c5 D400     		.sleb128 84
 1368 01c7 08       		.uleb128 0x8
 1369 01c8 A9070000 		.4byte	.LASF57
 1370 01cc D500     		.sleb128 85
 1371 01ce 08       		.uleb128 0x8
 1372 01cf 49060000 		.4byte	.LASF58
 1373 01d3 F000     		.sleb128 112
 1374 01d5 08       		.uleb128 0x8
 1375 01d6 D9110000 		.4byte	.LASF59
 1376 01da F100     		.sleb128 113
 1377 01dc 08       		.uleb128 0x8
 1378 01dd 70090000 		.4byte	.LASF60
 1379 01e1 F200     		.sleb128 114
 1380 01e3 08       		.uleb128 0x8
 1381 01e4 EA090000 		.4byte	.LASF61
ARM GAS  C:\Users\ENESDU~1\AppData\Local\Temp\ccTCHFTj.s 			page 45


 1382 01e8 F300     		.sleb128 115
 1383 01ea 08       		.uleb128 0x8
 1384 01eb 590B0000 		.4byte	.LASF62
 1385 01ef F400     		.sleb128 116
 1386 01f1 08       		.uleb128 0x8
 1387 01f2 98110000 		.4byte	.LASF63
 1388 01f6 F500     		.sleb128 117
 1389 01f8 08       		.uleb128 0x8
 1390 01f9 19010000 		.4byte	.LASF64
 1391 01fd F600     		.sleb128 118
 1392 01ff 08       		.uleb128 0x8
 1393 0200 53000000 		.4byte	.LASF65
 1394 0204 F700     		.sleb128 119
 1395 0206 08       		.uleb128 0x8
 1396 0207 00000000 		.4byte	.LASF66
 1397 020b F800     		.sleb128 120
 1398 020d 08       		.uleb128 0x8
 1399 020e 4E030000 		.4byte	.LASF67
 1400 0212 F900     		.sleb128 121
 1401 0214 08       		.uleb128 0x8
 1402 0215 6F060000 		.4byte	.LASF68
 1403 0219 FA00     		.sleb128 122
 1404 021b 08       		.uleb128 0x8
 1405 021c C2020000 		.4byte	.LASF69
 1406 0220 FA01     		.sleb128 250
 1407 0222 08       		.uleb128 0x8
 1408 0223 12060000 		.4byte	.LASF70
 1409 0227 FF01     		.sleb128 255
 1410 0229 00       		.byte	0
 1411 022a 09       		.uleb128 0x9
 1412 022b 02       		.byte	0x2
 1413 022c 03       		.byte	0x3
 1414 022d 8401     		.2byte	0x184
 1415 022f FC020000 		.4byte	0x2fc
 1416 0233 08       		.uleb128 0x8
 1417 0234 20060000 		.4byte	.LASF71
 1418 0238 00       		.sleb128 0
 1419 0239 08       		.uleb128 0x8
 1420 023a 5A050000 		.4byte	.LASF72
 1421 023e 01       		.sleb128 1
 1422 023f 08       		.uleb128 0x8
 1423 0240 A20F0000 		.4byte	.LASF73
 1424 0244 02       		.sleb128 2
 1425 0245 08       		.uleb128 0x8
 1426 0246 C3060000 		.4byte	.LASF74
 1427 024a 03       		.sleb128 3
 1428 024b 08       		.uleb128 0x8
 1429 024c 63020000 		.4byte	.LASF75
 1430 0250 04       		.sleb128 4
 1431 0251 08       		.uleb128 0x8
 1432 0252 E8060000 		.4byte	.LASF76
 1433 0256 05       		.sleb128 5
 1434 0257 08       		.uleb128 0x8
 1435 0258 350D0000 		.4byte	.LASF77
 1436 025c 06       		.sleb128 6
 1437 025d 08       		.uleb128 0x8
 1438 025e D8030000 		.4byte	.LASF78
ARM GAS  C:\Users\ENESDU~1\AppData\Local\Temp\ccTCHFTj.s 			page 46


 1439 0262 07       		.sleb128 7
 1440 0263 08       		.uleb128 0x8
 1441 0264 140E0000 		.4byte	.LASF79
 1442 0268 08       		.sleb128 8
 1443 0269 08       		.uleb128 0x8
 1444 026a 5F110000 		.4byte	.LASF80
 1445 026e 09       		.sleb128 9
 1446 026f 08       		.uleb128 0x8
 1447 0270 820C0000 		.4byte	.LASF81
 1448 0274 0A       		.sleb128 10
 1449 0275 08       		.uleb128 0x8
 1450 0276 5B0E0000 		.4byte	.LASF82
 1451 027a 0B       		.sleb128 11
 1452 027b 08       		.uleb128 0x8
 1453 027c 1A030000 		.4byte	.LASF83
 1454 0280 0C       		.sleb128 12
 1455 0281 08       		.uleb128 0x8
 1456 0282 3E020000 		.4byte	.LASF84
 1457 0286 0D       		.sleb128 13
 1458 0287 08       		.uleb128 0x8
 1459 0288 36070000 		.4byte	.LASF85
 1460 028c 0E       		.sleb128 14
 1461 028d 08       		.uleb128 0x8
 1462 028e E3100000 		.4byte	.LASF86
 1463 0292 0F       		.sleb128 15
 1464 0293 08       		.uleb128 0x8
 1465 0294 300F0000 		.4byte	.LASF87
 1466 0298 10       		.sleb128 16
 1467 0299 08       		.uleb128 0x8
 1468 029a FC070000 		.4byte	.LASF88
 1469 029e 11       		.sleb128 17
 1470 029f 08       		.uleb128 0x8
 1471 02a0 87000000 		.4byte	.LASF89
 1472 02a4 12       		.sleb128 18
 1473 02a5 08       		.uleb128 0x8
 1474 02a6 D9040000 		.4byte	.LASF90
 1475 02aa 13       		.sleb128 19
 1476 02ab 08       		.uleb128 0x8
 1477 02ac 38120000 		.4byte	.LASF91
 1478 02b0 14       		.sleb128 20
 1479 02b1 08       		.uleb128 0x8
 1480 02b2 B6030000 		.4byte	.LASF92
 1481 02b6 27       		.sleb128 39
 1482 02b7 08       		.uleb128 0x8
 1483 02b8 0B0F0000 		.4byte	.LASF93
 1484 02bc 28       		.sleb128 40
 1485 02bd 08       		.uleb128 0x8
 1486 02be C7100000 		.4byte	.LASF94
 1487 02c2 29       		.sleb128 41
 1488 02c3 08       		.uleb128 0x8
 1489 02c4 DA090000 		.4byte	.LASF95
 1490 02c8 FF01     		.sleb128 255
 1491 02ca 08       		.uleb128 0x8
 1492 02cb 83040000 		.4byte	.LASF96
 1493 02cf 8002     		.sleb128 256
 1494 02d1 08       		.uleb128 0x8
 1495 02d2 B9110000 		.4byte	.LASF97
ARM GAS  C:\Users\ENESDU~1\AppData\Local\Temp\ccTCHFTj.s 			page 47


 1496 02d6 8102     		.sleb128 257
 1497 02d8 08       		.uleb128 0x8
 1498 02d9 C4090000 		.4byte	.LASF98
 1499 02dd 8202     		.sleb128 258
 1500 02df 08       		.uleb128 0x8
 1501 02e0 20080000 		.4byte	.LASF99
 1502 02e4 8302     		.sleb128 259
 1503 02e6 08       		.uleb128 0x8
 1504 02e7 080B0000 		.4byte	.LASF100
 1505 02eb 8402     		.sleb128 260
 1506 02ed 08       		.uleb128 0x8
 1507 02ee DC0C0000 		.4byte	.LASF101
 1508 02f2 8502     		.sleb128 261
 1509 02f4 08       		.uleb128 0x8
 1510 02f5 3B040000 		.4byte	.LASF102
 1511 02f9 8602     		.sleb128 262
 1512 02fb 00       		.byte	0
 1513 02fc 0A       		.uleb128 0xa
 1514 02fd C90A0000 		.4byte	.LASF103
 1515 0301 03       		.byte	0x3
 1516 0302 E101     		.2byte	0x1e1
 1517 0304 2A020000 		.4byte	0x22a
 1518 0308 0B       		.uleb128 0xb
 1519 0309 07       		.byte	0x7
 1520 030a 03       		.byte	0x3
 1521 030b 6202     		.2byte	0x262
 1522 030d 2C030000 		.4byte	0x32c
 1523 0311 0C       		.uleb128 0xc
 1524 0312 24050000 		.4byte	.LASF104
 1525 0316 03       		.byte	0x3
 1526 0317 6402     		.2byte	0x264
 1527 0319 2C030000 		.4byte	0x32c
 1528 031d 00       		.byte	0
 1529 031e 0C       		.uleb128 0xc
 1530 031f EE010000 		.4byte	.LASF105
 1531 0323 03       		.byte	0x3
 1532 0324 6502     		.2byte	0x265
 1533 0326 6B000000 		.4byte	0x6b
 1534 032a 06       		.byte	0x6
 1535 032b 00       		.byte	0
 1536 032c 0D       		.uleb128 0xd
 1537 032d 6B000000 		.4byte	0x6b
 1538 0331 3C030000 		.4byte	0x33c
 1539 0335 0E       		.uleb128 0xe
 1540 0336 B1000000 		.4byte	0xb1
 1541 033a 05       		.byte	0x5
 1542 033b 00       		.byte	0
 1543 033c 0A       		.uleb128 0xa
 1544 033d 06030000 		.4byte	.LASF106
 1545 0341 03       		.byte	0x3
 1546 0342 6602     		.2byte	0x266
 1547 0344 08030000 		.4byte	0x308
 1548 0348 07       		.uleb128 0x7
 1549 0349 01       		.byte	0x1
 1550 034a 04       		.byte	0x4
 1551 034b 89       		.byte	0x89
 1552 034c 6F030000 		.4byte	0x36f
ARM GAS  C:\Users\ENESDU~1\AppData\Local\Temp\ccTCHFTj.s 			page 48


 1553 0350 08       		.uleb128 0x8
 1554 0351 E0020000 		.4byte	.LASF107
 1555 0355 00       		.sleb128 0
 1556 0356 08       		.uleb128 0x8
 1557 0357 3A010000 		.4byte	.LASF108
 1558 035b 01       		.sleb128 1
 1559 035c 08       		.uleb128 0x8
 1560 035d B9010000 		.4byte	.LASF109
 1561 0361 02       		.sleb128 2
 1562 0362 08       		.uleb128 0x8
 1563 0363 4F100000 		.4byte	.LASF110
 1564 0367 03       		.sleb128 3
 1565 0368 08       		.uleb128 0x8
 1566 0369 950D0000 		.4byte	.LASF111
 1567 036d 04       		.sleb128 4
 1568 036e 00       		.byte	0
 1569 036f 04       		.uleb128 0x4
 1570 0370 30100000 		.4byte	.LASF112
 1571 0374 04       		.byte	0x4
 1572 0375 99       		.byte	0x99
 1573 0376 48030000 		.4byte	0x348
 1574 037a 0B       		.uleb128 0xb
 1575 037b 10       		.byte	0x10
 1576 037c 04       		.byte	0x4
 1577 037d 6701     		.2byte	0x167
 1578 037f EC030000 		.4byte	0x3ec
 1579 0383 0C       		.uleb128 0xc
 1580 0384 8A0D0000 		.4byte	.LASF113
 1581 0388 04       		.byte	0x4
 1582 0389 6D01     		.2byte	0x16d
 1583 038b 76000000 		.4byte	0x76
 1584 038f 00       		.byte	0
 1585 0390 0C       		.uleb128 0xc
 1586 0391 2A0D0000 		.4byte	.LASF114
 1587 0395 04       		.byte	0x4
 1588 0396 7301     		.2byte	0x173
 1589 0398 76000000 		.4byte	0x76
 1590 039c 02       		.byte	0x2
 1591 039d 0C       		.uleb128 0xc
 1592 039e 9B020000 		.4byte	.LASF115
 1593 03a2 04       		.byte	0x4
 1594 03a3 7C01     		.2byte	0x17c
 1595 03a5 6F030000 		.4byte	0x36f
 1596 03a9 04       		.byte	0x4
 1597 03aa 0C       		.uleb128 0xc
 1598 03ab 630A0000 		.4byte	.LASF116
 1599 03af 04       		.byte	0x4
 1600 03b0 8201     		.2byte	0x182
 1601 03b2 6B000000 		.4byte	0x6b
 1602 03b6 05       		.byte	0x5
 1603 03b7 0C       		.uleb128 0xc
 1604 03b8 730C0000 		.4byte	.LASF117
 1605 03bc 04       		.byte	0x4
 1606 03bd 8901     		.2byte	0x189
 1607 03bf 6B000000 		.4byte	0x6b
 1608 03c3 06       		.byte	0x6
 1609 03c4 0C       		.uleb128 0xc
ARM GAS  C:\Users\ENESDU~1\AppData\Local\Temp\ccTCHFTj.s 			page 49


 1610 03c5 F5030000 		.4byte	.LASF118
 1611 03c9 04       		.byte	0x4
 1612 03ca 8F01     		.2byte	0x18f
 1613 03cc 2C030000 		.4byte	0x32c
 1614 03d0 07       		.byte	0x7
 1615 03d1 0C       		.uleb128 0xc
 1616 03d2 0B010000 		.4byte	.LASF119
 1617 03d6 04       		.byte	0x4
 1618 03d7 9701     		.2byte	0x197
 1619 03d9 6B000000 		.4byte	0x6b
 1620 03dd 0D       		.byte	0xd
 1621 03de 0C       		.uleb128 0xc
 1622 03df 55040000 		.4byte	.LASF120
 1623 03e3 04       		.byte	0x4
 1624 03e4 A301     		.2byte	0x1a3
 1625 03e6 6B000000 		.4byte	0x6b
 1626 03ea 0E       		.byte	0xe
 1627 03eb 00       		.byte	0
 1628 03ec 0A       		.uleb128 0xa
 1629 03ed CF0E0000 		.4byte	.LASF121
 1630 03f1 04       		.byte	0x4
 1631 03f2 A501     		.2byte	0x1a5
 1632 03f4 7A030000 		.4byte	0x37a
 1633 03f8 0B       		.uleb128 0xb
 1634 03f9 20       		.byte	0x20
 1635 03fa 04       		.byte	0x4
 1636 03fb A801     		.2byte	0x1a8
 1637 03fd 1C040000 		.4byte	0x41c
 1638 0401 0C       		.uleb128 0xc
 1639 0402 C00D0000 		.4byte	.LASF122
 1640 0406 04       		.byte	0x4
 1641 0407 AB01     		.2byte	0x1ab
 1642 0409 1C040000 		.4byte	0x41c
 1643 040d 00       		.byte	0
 1644 040e 0C       		.uleb128 0xc
 1645 040f 9B060000 		.4byte	.LASF123
 1646 0413 04       		.byte	0x4
 1647 0414 AE01     		.2byte	0x1ae
 1648 0416 6B000000 		.4byte	0x6b
 1649 041a 1F       		.byte	0x1f
 1650 041b 00       		.byte	0
 1651 041c 0D       		.uleb128 0xd
 1652 041d 6B000000 		.4byte	0x6b
 1653 0421 2C040000 		.4byte	0x42c
 1654 0425 0E       		.uleb128 0xe
 1655 0426 B1000000 		.4byte	0xb1
 1656 042a 1E       		.byte	0x1e
 1657 042b 00       		.byte	0
 1658 042c 0A       		.uleb128 0xa
 1659 042d AC000000 		.4byte	.LASF124
 1660 0431 04       		.byte	0x4
 1661 0432 B001     		.2byte	0x1b0
 1662 0434 F8030000 		.4byte	0x3f8
 1663 0438 0B       		.uleb128 0xb
 1664 0439 20       		.byte	0x20
 1665 043a 04       		.byte	0x4
 1666 043b B301     		.2byte	0x1b3
ARM GAS  C:\Users\ENESDU~1\AppData\Local\Temp\ccTCHFTj.s 			page 50


 1667 043d 5C040000 		.4byte	0x45c
 1668 0441 0C       		.uleb128 0xc
 1669 0442 18050000 		.4byte	.LASF125
 1670 0446 04       		.byte	0x4
 1671 0447 B701     		.2byte	0x1b7
 1672 0449 1C040000 		.4byte	0x41c
 1673 044d 00       		.byte	0
 1674 044e 0C       		.uleb128 0xc
 1675 044f D9080000 		.4byte	.LASF126
 1676 0453 04       		.byte	0x4
 1677 0454 BA01     		.2byte	0x1ba
 1678 0456 6B000000 		.4byte	0x6b
 1679 045a 1F       		.byte	0x1f
 1680 045b 00       		.byte	0
 1681 045c 0A       		.uleb128 0xa
 1682 045d E1070000 		.4byte	.LASF127
 1683 0461 04       		.byte	0x4
 1684 0462 BC01     		.2byte	0x1bc
 1685 0464 38040000 		.4byte	0x438
 1686 0468 0B       		.uleb128 0xb
 1687 0469 14       		.byte	0x14
 1688 046a 04       		.byte	0x4
 1689 046b BF01     		.2byte	0x1bf
 1690 046d B3040000 		.4byte	0x4b3
 1691 0471 0C       		.uleb128 0xc
 1692 0472 51050000 		.4byte	.LASF128
 1693 0476 04       		.byte	0x4
 1694 0477 C701     		.2byte	0x1c7
 1695 0479 6B000000 		.4byte	0x6b
 1696 047d 00       		.byte	0
 1697 047e 0C       		.uleb128 0xc
 1698 047f 17100000 		.4byte	.LASF129
 1699 0483 04       		.byte	0x4
 1700 0484 CA01     		.2byte	0x1ca
 1701 0486 B3040000 		.4byte	0x4b3
 1702 048a 04       		.byte	0x4
 1703 048b 0C       		.uleb128 0xc
 1704 048c C00D0000 		.4byte	.LASF122
 1705 0490 04       		.byte	0x4
 1706 0491 CC01     		.2byte	0x1cc
 1707 0493 B9040000 		.4byte	0x4b9
 1708 0497 08       		.byte	0x8
 1709 0498 0C       		.uleb128 0xc
 1710 0499 18050000 		.4byte	.LASF125
 1711 049d 04       		.byte	0x4
 1712 049e CE01     		.2byte	0x1ce
 1713 04a0 BF040000 		.4byte	0x4bf
 1714 04a4 0C       		.byte	0xc
 1715 04a5 0C       		.uleb128 0xc
 1716 04a6 32120000 		.4byte	.LASF130
 1717 04aa 04       		.byte	0x4
 1718 04ab D801     		.2byte	0x1d8
 1719 04ad 76000000 		.4byte	0x76
 1720 04b1 10       		.byte	0x10
 1721 04b2 00       		.byte	0
 1722 04b3 0F       		.uleb128 0xf
 1723 04b4 04       		.byte	0x4
ARM GAS  C:\Users\ENESDU~1\AppData\Local\Temp\ccTCHFTj.s 			page 51


 1724 04b5 EC030000 		.4byte	0x3ec
 1725 04b9 0F       		.uleb128 0xf
 1726 04ba 04       		.byte	0x4
 1727 04bb 2C040000 		.4byte	0x42c
 1728 04bf 0F       		.uleb128 0xf
 1729 04c0 04       		.byte	0x4
 1730 04c1 5C040000 		.4byte	0x45c
 1731 04c5 0A       		.uleb128 0xa
 1732 04c6 FB0F0000 		.4byte	.LASF131
 1733 04ca 04       		.byte	0x4
 1734 04cb DA01     		.2byte	0x1da
 1735 04cd 68040000 		.4byte	0x468
 1736 04d1 0F       		.uleb128 0xf
 1737 04d2 04       		.byte	0x4
 1738 04d3 6B000000 		.4byte	0x6b
 1739 04d7 10       		.uleb128 0x10
 1740 04d8 08       		.byte	0x8
 1741 04d9 05       		.byte	0x5
 1742 04da B8       		.byte	0xb8
 1743 04db F8040000 		.4byte	0x4f8
 1744 04df 11       		.uleb128 0x11
 1745 04e0 9B0F0000 		.4byte	.LASF132
 1746 04e4 05       		.byte	0x5
 1747 04e5 BB       		.byte	0xbb
 1748 04e6 76000000 		.4byte	0x76
 1749 04ea 00       		.byte	0
 1750 04eb 11       		.uleb128 0x11
 1751 04ec 4B0B0000 		.4byte	.LASF133
 1752 04f0 05       		.byte	0x5
 1753 04f1 C0       		.byte	0xc0
 1754 04f2 B8000000 		.4byte	0xb8
 1755 04f6 04       		.byte	0x4
 1756 04f7 00       		.byte	0
 1757 04f8 04       		.uleb128 0x4
 1758 04f9 ED0E0000 		.4byte	.LASF134
 1759 04fd 05       		.byte	0x5
 1760 04fe C2       		.byte	0xc2
 1761 04ff D7040000 		.4byte	0x4d7
 1762 0503 12       		.uleb128 0x12
 1763 0504 08       		.byte	0x8
 1764 0505 05       		.byte	0x5
 1765 0506 C5       		.byte	0xc5
 1766 0507 22050000 		.4byte	0x522
 1767 050b 13       		.uleb128 0x13
 1768 050c D2070000 		.4byte	.LASF135
 1769 0510 05       		.byte	0x5
 1770 0511 CC       		.byte	0xcc
 1771 0512 F8040000 		.4byte	0x4f8
 1772 0516 13       		.uleb128 0x13
 1773 0517 260B0000 		.4byte	.LASF136
 1774 051b 05       		.byte	0x5
 1775 051c CF       		.byte	0xcf
 1776 051d 76000000 		.4byte	0x76
 1777 0521 00       		.byte	0
 1778 0522 04       		.uleb128 0x4
 1779 0523 78050000 		.4byte	.LASF137
 1780 0527 05       		.byte	0x5
ARM GAS  C:\Users\ENESDU~1\AppData\Local\Temp\ccTCHFTj.s 			page 52


 1781 0528 D1       		.byte	0xd1
 1782 0529 03050000 		.4byte	0x503
 1783 052d 10       		.uleb128 0x10
 1784 052e 14       		.byte	0x14
 1785 052f 05       		.byte	0x5
 1786 0530 D4       		.byte	0xd4
 1787 0531 72050000 		.4byte	0x572
 1788 0535 11       		.uleb128 0x11
 1789 0536 A7050000 		.4byte	.LASF138
 1790 053a 05       		.byte	0x5
 1791 053b D7       		.byte	0xd7
 1792 053c 76000000 		.4byte	0x76
 1793 0540 00       		.byte	0
 1794 0541 11       		.uleb128 0x11
 1795 0542 93060000 		.4byte	.LASF139
 1796 0546 05       		.byte	0x5
 1797 0547 DD       		.byte	0xdd
 1798 0548 76000000 		.4byte	0x76
 1799 054c 02       		.byte	0x2
 1800 054d 11       		.uleb128 0x11
 1801 054e 17040000 		.4byte	.LASF140
 1802 0552 05       		.byte	0x5
 1803 0553 E7       		.byte	0xe7
 1804 0554 81000000 		.4byte	0x81
 1805 0558 04       		.byte	0x4
 1806 0559 11       		.uleb128 0x11
 1807 055a C20E0000 		.4byte	.LASF141
 1808 055e 05       		.byte	0x5
 1809 055f EA       		.byte	0xea
 1810 0560 76000000 		.4byte	0x76
 1811 0564 08       		.byte	0x8
 1812 0565 11       		.uleb128 0x11
 1813 0566 A90C0000 		.4byte	.LASF142
 1814 056a 05       		.byte	0x5
 1815 056b F3       		.byte	0xf3
 1816 056c 22050000 		.4byte	0x522
 1817 0570 0C       		.byte	0xc
 1818 0571 00       		.byte	0
 1819 0572 04       		.uleb128 0x4
 1820 0573 8A0F0000 		.4byte	.LASF143
 1821 0577 05       		.byte	0x5
 1822 0578 F4       		.byte	0xf4
 1823 0579 2D050000 		.4byte	0x52d
 1824 057d 04       		.uleb128 0x4
 1825 057e C00F0000 		.4byte	.LASF144
 1826 0582 06       		.byte	0x6
 1827 0583 F9       		.byte	0xf9
 1828 0584 88050000 		.4byte	0x588
 1829 0588 0F       		.uleb128 0xf
 1830 0589 04       		.byte	0x4
 1831 058a 8E050000 		.4byte	0x58e
 1832 058e 14       		.uleb128 0x14
 1833 058f 9E050000 		.4byte	0x59e
 1834 0593 15       		.uleb128 0x15
 1835 0594 81000000 		.4byte	0x81
 1836 0598 15       		.uleb128 0x15
 1837 0599 B8000000 		.4byte	0xb8
ARM GAS  C:\Users\ENESDU~1\AppData\Local\Temp\ccTCHFTj.s 			page 53


 1838 059d 00       		.byte	0
 1839 059e 07       		.uleb128 0x7
 1840 059f 01       		.byte	0x1
 1841 05a0 07       		.byte	0x7
 1842 05a1 1D       		.byte	0x1d
 1843 05a2 E3050000 		.4byte	0x5e3
 1844 05a6 08       		.uleb128 0x8
 1845 05a7 16120000 		.4byte	.LASF145
 1846 05ab 00       		.sleb128 0
 1847 05ac 08       		.uleb128 0x8
 1848 05ad 440E0000 		.4byte	.LASF146
 1849 05b1 01       		.sleb128 1
 1850 05b2 08       		.uleb128 0x8
 1851 05b3 5B0C0000 		.4byte	.LASF147
 1852 05b7 02       		.sleb128 2
 1853 05b8 08       		.uleb128 0x8
 1854 05b9 FB050000 		.4byte	.LASF148
 1855 05bd 03       		.sleb128 3
 1856 05be 08       		.uleb128 0x8
 1857 05bf 90050000 		.4byte	.LASF149
 1858 05c3 04       		.sleb128 4
 1859 05c4 08       		.uleb128 0x8
 1860 05c5 540D0000 		.4byte	.LASF150
 1861 05c9 05       		.sleb128 5
 1862 05ca 08       		.uleb128 0x8
 1863 05cb B0090000 		.4byte	.LASF151
 1864 05cf 06       		.sleb128 6
 1865 05d0 08       		.uleb128 0x8
 1866 05d1 330B0000 		.4byte	.LASF152
 1867 05d5 07       		.sleb128 7
 1868 05d6 08       		.uleb128 0x8
 1869 05d7 0A090000 		.4byte	.LASF153
 1870 05db 08       		.sleb128 8
 1871 05dc 08       		.uleb128 0x8
 1872 05dd C70C0000 		.4byte	.LASF154
 1873 05e1 09       		.sleb128 9
 1874 05e2 00       		.byte	0
 1875 05e3 09       		.uleb128 0x9
 1876 05e4 01       		.byte	0x1
 1877 05e5 08       		.byte	0x8
 1878 05e6 F004     		.2byte	0x4f0
 1879 05e8 0B060000 		.4byte	0x60b
 1880 05ec 08       		.uleb128 0x8
 1881 05ed 3F000000 		.4byte	.LASF155
 1882 05f1 00       		.sleb128 0
 1883 05f2 08       		.uleb128 0x8
 1884 05f3 4A0A0000 		.4byte	.LASF156
 1885 05f7 01       		.sleb128 1
 1886 05f8 08       		.uleb128 0x8
 1887 05f9 22110000 		.4byte	.LASF157
 1888 05fd 02       		.sleb128 2
 1889 05fe 08       		.uleb128 0x8
 1890 05ff 71030000 		.4byte	.LASF158
 1891 0603 03       		.sleb128 3
 1892 0604 08       		.uleb128 0x8
 1893 0605 98040000 		.4byte	.LASF159
 1894 0609 04       		.sleb128 4
ARM GAS  C:\Users\ENESDU~1\AppData\Local\Temp\ccTCHFTj.s 			page 54


 1895 060a 00       		.byte	0
 1896 060b 0A       		.uleb128 0xa
 1897 060c 41100000 		.4byte	.LASF160
 1898 0610 08       		.byte	0x8
 1899 0611 FE04     		.2byte	0x4fe
 1900 0613 E3050000 		.4byte	0x5e3
 1901 0617 16       		.uleb128 0x16
 1902 0618 CE110000 		.4byte	.LASF161
 1903 061c 01       		.byte	0x1
 1904 061d 81       		.byte	0x81
 1905 061e 00000000 		.4byte	.LFB2
 1906 0622 2C000000 		.4byte	.LFE2-.LFB2
 1907 0626 01       		.uleb128 0x1
 1908 0627 9C       		.byte	0x9c
 1909 0628 16       		.uleb128 0x16
 1910 0629 24070000 		.4byte	.LASF162
 1911 062d 01       		.byte	0x1
 1912 062e B7       		.byte	0xb7
 1913 062f 00000000 		.4byte	.LFB3
 1914 0633 10000000 		.4byte	.LFE3-.LFB3
 1915 0637 01       		.uleb128 0x1
 1916 0638 9C       		.byte	0x9c
 1917 0639 17       		.uleb128 0x17
 1918 063a E8080000 		.4byte	.LASF166
 1919 063e 01       		.byte	0x1
 1920 063f 3701     		.2byte	0x137
 1921 0641 FC020000 		.4byte	0x2fc
 1922 0645 00000000 		.4byte	.LFB4
 1923 0649 90000000 		.4byte	.LFE4-.LFB4
 1924 064d 01       		.uleb128 0x1
 1925 064e 9C       		.byte	0x9c
 1926 064f 84060000 		.4byte	0x684
 1927 0653 18       		.uleb128 0x18
 1928 0654 9C0C0000 		.4byte	.LASF168
 1929 0658 01       		.byte	0x1
 1930 0659 3701     		.2byte	0x137
 1931 065b 7D050000 		.4byte	0x57d
 1932 065f 02       		.uleb128 0x2
 1933 0660 91       		.byte	0x91
 1934 0661 64       		.sleb128 -28
 1935 0662 19       		.uleb128 0x19
 1936 0663 BF0A0000 		.4byte	.LASF163
 1937 0667 01       		.byte	0x1
 1938 0668 3901     		.2byte	0x139
 1939 066a FC020000 		.4byte	0x2fc
 1940 066e 02       		.uleb128 0x2
 1941 066f 91       		.byte	0x91
 1942 0670 6E       		.sleb128 -18
 1943 0671 19       		.uleb128 0x19
 1944 0672 A4010000 		.4byte	.LASF164
 1945 0676 01       		.byte	0x1
 1946 0677 3C01     		.2byte	0x13c
 1947 0679 84060000 		.4byte	0x684
 1948 067d 05       		.uleb128 0x5
 1949 067e 03       		.byte	0x3
 1950 067f 08000000 		.4byte	cyBle_stackMemoryRam.6017
 1951 0683 00       		.byte	0
ARM GAS  C:\Users\ENESDU~1\AppData\Local\Temp\ccTCHFTj.s 			page 55


 1952 0684 0D       		.uleb128 0xd
 1953 0685 6B000000 		.4byte	0x6b
 1954 0689 95060000 		.4byte	0x695
 1955 068d 1A       		.uleb128 0x1a
 1956 068e B1000000 		.4byte	0xb1
 1957 0692 930C     		.2byte	0xc93
 1958 0694 00       		.byte	0
 1959 0695 1B       		.uleb128 0x1b
 1960 0696 DC0A0000 		.4byte	.LASF165
 1961 069a 01       		.byte	0x1
 1962 069b 6D01     		.2byte	0x16d
 1963 069d 00000000 		.4byte	.LFB5
 1964 06a1 1C000000 		.4byte	.LFE5-.LFB5
 1965 06a5 01       		.uleb128 0x1
 1966 06a6 9C       		.byte	0x9c
 1967 06a7 17       		.uleb128 0x17
 1968 06a8 3E0C0000 		.4byte	.LASF167
 1969 06ac 01       		.byte	0x1
 1970 06ad EF01     		.2byte	0x1ef
 1971 06af FC020000 		.4byte	0x2fc
 1972 06b3 00000000 		.4byte	.LFB6
 1973 06b7 C4000000 		.4byte	.LFE6-.LFB6
 1974 06bb 01       		.uleb128 0x1
 1975 06bc 9C       		.byte	0x9c
 1976 06bd E0060000 		.4byte	0x6e0
 1977 06c1 18       		.uleb128 0x18
 1978 06c2 9D0E0000 		.4byte	.LASF169
 1979 06c6 01       		.byte	0x1
 1980 06c7 EF01     		.2byte	0x1ef
 1981 06c9 6B000000 		.4byte	0x6b
 1982 06cd 02       		.uleb128 0x2
 1983 06ce 91       		.byte	0x91
 1984 06cf 67       		.sleb128 -25
 1985 06d0 19       		.uleb128 0x19
 1986 06d1 BF0A0000 		.4byte	.LASF163
 1987 06d5 01       		.byte	0x1
 1988 06d6 F101     		.2byte	0x1f1
 1989 06d8 FC020000 		.4byte	0x2fc
 1990 06dc 02       		.uleb128 0x2
 1991 06dd 91       		.byte	0x91
 1992 06de 6E       		.sleb128 -18
 1993 06df 00       		.byte	0
 1994 06e0 1B       		.uleb128 0x1b
 1995 06e1 0E020000 		.4byte	.LASF170
 1996 06e5 01       		.byte	0x1
 1997 06e6 2C02     		.2byte	0x22c
 1998 06e8 00000000 		.4byte	.LFB7
 1999 06ec 20000000 		.4byte	.LFE7-.LFB7
 2000 06f0 01       		.uleb128 0x1
 2001 06f1 9C       		.byte	0x9c
 2002 06f2 1C       		.uleb128 0x1c
 2003 06f3 DB0D0000 		.4byte	.LASF199
 2004 06f7 01       		.byte	0x1
 2005 06f8 5803     		.2byte	0x358
 2006 06fa 00000000 		.4byte	.LFB8
 2007 06fe A0010000 		.4byte	.LFE8-.LFB8
 2008 0702 01       		.uleb128 0x1
ARM GAS  C:\Users\ENESDU~1\AppData\Local\Temp\ccTCHFTj.s 			page 56


 2009 0703 9C       		.byte	0x9c
 2010 0704 7F070000 		.4byte	0x77f
 2011 0708 18       		.uleb128 0x18
 2012 0709 CD070000 		.4byte	.LASF171
 2013 070d 01       		.byte	0x1
 2014 070e 5803     		.2byte	0x358
 2015 0710 7F070000 		.4byte	0x77f
 2016 0714 02       		.uleb128 0x2
 2017 0715 91       		.byte	0x91
 2018 0716 64       		.sleb128 -28
 2019 0717 18       		.uleb128 0x18
 2020 0718 210B0000 		.4byte	.LASF172
 2021 071c 01       		.byte	0x1
 2022 071d 5803     		.2byte	0x358
 2023 071f 6B000000 		.4byte	0x6b
 2024 0723 02       		.uleb128 0x2
 2025 0724 91       		.byte	0x91
 2026 0725 63       		.sleb128 -29
 2027 0726 1D       		.uleb128 0x1d
 2028 0727 6900     		.ascii	"i\000"
 2029 0729 01       		.byte	0x1
 2030 072a 5A03     		.2byte	0x35a
 2031 072c 6B000000 		.4byte	0x6b
 2032 0730 02       		.uleb128 0x2
 2033 0731 91       		.byte	0x91
 2034 0732 77       		.sleb128 -9
 2035 0733 19       		.uleb128 0x19
 2036 0734 4F0D0000 		.4byte	.LASF173
 2037 0738 01       		.byte	0x1
 2038 0739 5B03     		.2byte	0x35b
 2039 073b 6B000000 		.4byte	0x6b
 2040 073f 02       		.uleb128 0x2
 2041 0740 91       		.byte	0x91
 2042 0741 76       		.sleb128 -10
 2043 0742 19       		.uleb128 0x19
 2044 0743 BF080000 		.4byte	.LASF174
 2045 0747 01       		.byte	0x1
 2046 0748 5C03     		.2byte	0x35c
 2047 074a 6B000000 		.4byte	0x6b
 2048 074e 02       		.uleb128 0x2
 2049 074f 91       		.byte	0x91
 2050 0750 75       		.sleb128 -11
 2051 0751 19       		.uleb128 0x19
 2052 0752 EF0F0000 		.4byte	.LASF175
 2053 0756 01       		.byte	0x1
 2054 0757 5D03     		.2byte	0x35d
 2055 0759 6B000000 		.4byte	0x6b
 2056 075d 02       		.uleb128 0x2
 2057 075e 91       		.byte	0x91
 2058 075f 74       		.sleb128 -12
 2059 0760 19       		.uleb128 0x19
 2060 0761 F0050000 		.4byte	.LASF176
 2061 0765 01       		.byte	0x1
 2062 0766 5E03     		.2byte	0x35e
 2063 0768 D1040000 		.4byte	0x4d1
 2064 076c 02       		.uleb128 0x2
 2065 076d 91       		.byte	0x91
ARM GAS  C:\Users\ENESDU~1\AppData\Local\Temp\ccTCHFTj.s 			page 57


 2066 076e 70       		.sleb128 -16
 2067 076f 19       		.uleb128 0x19
 2068 0770 97100000 		.4byte	.LASF177
 2069 0774 01       		.byte	0x1
 2070 0775 5F03     		.2byte	0x35f
 2071 0777 6B000000 		.4byte	0x6b
 2072 077b 02       		.uleb128 0x2
 2073 077c 91       		.byte	0x91
 2074 077d 6F       		.sleb128 -17
 2075 077e 00       		.byte	0
 2076 077f 0F       		.uleb128 0xf
 2077 0780 04       		.byte	0x4
 2078 0781 85070000 		.4byte	0x785
 2079 0785 1E       		.uleb128 0x1e
 2080 0786 9A000000 		.4byte	0x9a
 2081 078a 17       		.uleb128 0x17
 2082 078b FC040000 		.4byte	.LASF178
 2083 078f 01       		.byte	0x1
 2084 0790 C003     		.2byte	0x3c0
 2085 0792 FC020000 		.4byte	0x2fc
 2086 0796 00000000 		.4byte	.LFB9
 2087 079a B8000000 		.4byte	.LFE9-.LFB9
 2088 079e 01       		.uleb128 0x1
 2089 079f 9C       		.byte	0x9c
 2090 07a0 EE070000 		.4byte	0x7ee
 2091 07a4 18       		.uleb128 0x18
 2092 07a5 CD070000 		.4byte	.LASF171
 2093 07a9 01       		.byte	0x1
 2094 07aa C003     		.2byte	0x3c0
 2095 07ac 7F070000 		.4byte	0x77f
 2096 07b0 02       		.uleb128 0x2
 2097 07b1 91       		.byte	0x91
 2098 07b2 64       		.sleb128 -28
 2099 07b3 19       		.uleb128 0x19
 2100 07b4 BF0A0000 		.4byte	.LASF163
 2101 07b8 01       		.byte	0x1
 2102 07b9 C203     		.2byte	0x3c2
 2103 07bb FC020000 		.4byte	0x2fc
 2104 07bf 02       		.uleb128 0x2
 2105 07c0 91       		.byte	0x91
 2106 07c1 76       		.sleb128 -10
 2107 07c2 1D       		.uleb128 0x1d
 2108 07c3 6900     		.ascii	"i\000"
 2109 07c5 01       		.byte	0x1
 2110 07c6 C303     		.2byte	0x3c3
 2111 07c8 6B000000 		.4byte	0x6b
 2112 07cc 02       		.uleb128 0x2
 2113 07cd 91       		.byte	0x91
 2114 07ce 75       		.sleb128 -11
 2115 07cf 1D       		.uleb128 0x1d
 2116 07d0 70747200 		.ascii	"ptr\000"
 2117 07d4 01       		.byte	0x1
 2118 07d5 C403     		.2byte	0x3c4
 2119 07d7 EE070000 		.4byte	0x7ee
 2120 07db 02       		.uleb128 0x2
 2121 07dc 91       		.byte	0x91
 2122 07dd 70       		.sleb128 -16
ARM GAS  C:\Users\ENESDU~1\AppData\Local\Temp\ccTCHFTj.s 			page 58


 2123 07de 19       		.uleb128 0x19
 2124 07df 68090000 		.4byte	.LASF179
 2125 07e3 01       		.byte	0x1
 2126 07e4 C503     		.2byte	0x3c5
 2127 07e6 6B000000 		.4byte	0x6b
 2128 07ea 02       		.uleb128 0x2
 2129 07eb 91       		.byte	0x91
 2130 07ec 6F       		.sleb128 -17
 2131 07ed 00       		.byte	0
 2132 07ee 0F       		.uleb128 0xf
 2133 07ef 04       		.byte	0x4
 2134 07f0 9A000000 		.4byte	0x9a
 2135 07f4 1F       		.uleb128 0x1f
 2136 07f5 F4080000 		.4byte	.LASF180
 2137 07f9 01       		.byte	0x1
 2138 07fa 0704     		.2byte	0x407
 2139 07fc FC020000 		.4byte	0x2fc
 2140 0800 00000000 		.4byte	.LFB10
 2141 0804 A4000000 		.4byte	.LFE10-.LFB10
 2142 0808 01       		.uleb128 0x1
 2143 0809 9C       		.byte	0x9c
 2144 080a 58080000 		.4byte	0x858
 2145 080e 18       		.uleb128 0x18
 2146 080f CD070000 		.4byte	.LASF171
 2147 0813 01       		.byte	0x1
 2148 0814 0704     		.2byte	0x407
 2149 0816 EE070000 		.4byte	0x7ee
 2150 081a 02       		.uleb128 0x2
 2151 081b 91       		.byte	0x91
 2152 081c 64       		.sleb128 -28
 2153 081d 19       		.uleb128 0x19
 2154 081e BF0A0000 		.4byte	.LASF163
 2155 0822 01       		.byte	0x1
 2156 0823 0904     		.2byte	0x409
 2157 0825 FC020000 		.4byte	0x2fc
 2158 0829 02       		.uleb128 0x2
 2159 082a 91       		.byte	0x91
 2160 082b 76       		.sleb128 -10
 2161 082c 19       		.uleb128 0x19
 2162 082d 68090000 		.4byte	.LASF179
 2163 0831 01       		.byte	0x1
 2164 0832 0A04     		.2byte	0x40a
 2165 0834 6B000000 		.4byte	0x6b
 2166 0838 02       		.uleb128 0x2
 2167 0839 91       		.byte	0x91
 2168 083a 6F       		.sleb128 -17
 2169 083b 1D       		.uleb128 0x1d
 2170 083c 6900     		.ascii	"i\000"
 2171 083e 01       		.byte	0x1
 2172 083f 0B04     		.2byte	0x40b
 2173 0841 6B000000 		.4byte	0x6b
 2174 0845 02       		.uleb128 0x2
 2175 0846 91       		.byte	0x91
 2176 0847 75       		.sleb128 -11
 2177 0848 1D       		.uleb128 0x1d
 2178 0849 70747200 		.ascii	"ptr\000"
 2179 084d 01       		.byte	0x1
ARM GAS  C:\Users\ENESDU~1\AppData\Local\Temp\ccTCHFTj.s 			page 59


 2180 084e 0C04     		.2byte	0x40c
 2181 0850 EE070000 		.4byte	0x7ee
 2182 0854 02       		.uleb128 0x2
 2183 0855 91       		.byte	0x91
 2184 0856 70       		.sleb128 -16
 2185 0857 00       		.byte	0
 2186 0858 1F       		.uleb128 0x1f
 2187 0859 DD010000 		.4byte	.LASF181
 2188 085d 01       		.byte	0x1
 2189 085e 3B04     		.2byte	0x43b
 2190 0860 76000000 		.4byte	0x76
 2191 0864 00000000 		.4byte	.LFB11
 2192 0868 24000000 		.4byte	.LFE11-.LFB11
 2193 086c 01       		.uleb128 0x1
 2194 086d 9C       		.byte	0x9c
 2195 086e 82080000 		.4byte	0x882
 2196 0872 20       		.uleb128 0x20
 2197 0873 70747200 		.ascii	"ptr\000"
 2198 0877 01       		.byte	0x1
 2199 0878 3B04     		.2byte	0x43b
 2200 087a 82080000 		.4byte	0x882
 2201 087e 02       		.uleb128 0x2
 2202 087f 91       		.byte	0x91
 2203 0880 74       		.sleb128 -12
 2204 0881 00       		.byte	0
 2205 0882 0F       		.uleb128 0xf
 2206 0883 04       		.byte	0x4
 2207 0884 88080000 		.4byte	0x888
 2208 0888 1E       		.uleb128 0x1e
 2209 0889 6B000000 		.4byte	0x6b
 2210 088d 21       		.uleb128 0x21
 2211 088e C8080000 		.4byte	.LASF200
 2212 0892 01       		.byte	0x1
 2213 0893 5004     		.2byte	0x450
 2214 0895 00000000 		.4byte	.LFB12
 2215 0899 2E000000 		.4byte	.LFE12-.LFB12
 2216 089d 01       		.uleb128 0x1
 2217 089e 9C       		.byte	0x9c
 2218 089f C2080000 		.4byte	0x8c2
 2219 08a3 20       		.uleb128 0x20
 2220 08a4 70747200 		.ascii	"ptr\000"
 2221 08a8 01       		.byte	0x1
 2222 08a9 5004     		.2byte	0x450
 2223 08ab D1040000 		.4byte	0x4d1
 2224 08af 02       		.uleb128 0x2
 2225 08b0 91       		.byte	0x91
 2226 08b1 74       		.sleb128 -12
 2227 08b2 18       		.uleb128 0x18
 2228 08b3 BD060000 		.4byte	.LASF182
 2229 08b7 01       		.byte	0x1
 2230 08b8 5004     		.2byte	0x450
 2231 08ba 76000000 		.4byte	0x76
 2232 08be 02       		.uleb128 0x2
 2233 08bf 91       		.byte	0x91
 2234 08c0 72       		.sleb128 -14
 2235 08c1 00       		.byte	0
 2236 08c2 22       		.uleb128 0x22
ARM GAS  C:\Users\ENESDU~1\AppData\Local\Temp\ccTCHFTj.s 			page 60


 2237 08c3 C80D0000 		.4byte	.LASF183
 2238 08c7 01       		.byte	0x1
 2239 08c8 24       		.byte	0x24
 2240 08c9 7D050000 		.4byte	0x57d
 2241 08cd 05       		.uleb128 0x5
 2242 08ce 03       		.byte	0x3
 2243 08cf 00000000 		.4byte	CyBle_ApplCallback
 2244 08d3 22       		.uleb128 0x22
 2245 08d4 6E080000 		.4byte	.LASF184
 2246 08d8 01       		.byte	0x1
 2247 08d9 22       		.byte	0x22
 2248 08da 6B000000 		.4byte	0x6b
 2249 08de 05       		.uleb128 0x5
 2250 08df 03       		.byte	0x3
 2251 08e0 00000000 		.4byte	cyBle_initVar
 2252 08e4 23       		.uleb128 0x23
 2253 08e5 FF110000 		.4byte	.LASF185
 2254 08e9 06       		.byte	0x6
 2255 08ea 6601     		.2byte	0x166
 2256 08ec AC000000 		.4byte	0xac
 2257 08f0 22       		.uleb128 0x22
 2258 08f1 A1100000 		.4byte	.LASF186
 2259 08f5 01       		.byte	0x1
 2260 08f6 26       		.byte	0x26
 2261 08f7 3C030000 		.4byte	0x33c
 2262 08fb 05       		.uleb128 0x5
 2263 08fc 03       		.byte	0x3
 2264 08fd 00000000 		.4byte	cyBle_deviceAddress
 2265 0901 22       		.uleb128 0x22
 2266 0902 08110000 		.4byte	.LASF187
 2267 0906 01       		.byte	0x1
 2268 0907 27       		.byte	0x27
 2269 0908 12090000 		.4byte	0x912
 2270 090c 05       		.uleb128 0x5
 2271 090d 03       		.byte	0x3
 2272 090e 00000000 		.4byte	cyBle_sflashDeviceAddress
 2273 0912 0F       		.uleb128 0xf
 2274 0913 04       		.byte	0x4
 2275 0914 3C030000 		.4byte	0x33c
 2276 0918 22       		.uleb128 0x22
 2277 0919 72000000 		.4byte	.LASF188
 2278 091d 01       		.byte	0x1
 2279 091e 2B       		.byte	0x2b
 2280 091f EC030000 		.4byte	0x3ec
 2281 0923 05       		.uleb128 0x5
 2282 0924 03       		.byte	0x3
 2283 0925 00000000 		.4byte	cyBle_discoveryParam
 2284 0929 22       		.uleb128 0x22
 2285 092a 2A020000 		.4byte	.LASF189
 2286 092e 01       		.byte	0x1
 2287 092f 37       		.byte	0x37
 2288 0930 2C040000 		.4byte	0x42c
 2289 0934 05       		.uleb128 0x5
 2290 0935 03       		.byte	0x3
 2291 0936 00000000 		.4byte	cyBle_discoveryData
 2292 093a 22       		.uleb128 0x22
 2293 093b B5100000 		.4byte	.LASF190
ARM GAS  C:\Users\ENESDU~1\AppData\Local\Temp\ccTCHFTj.s 			page 61


 2294 093f 01       		.byte	0x1
 2295 0940 40       		.byte	0x40
 2296 0941 5C040000 		.4byte	0x45c
 2297 0945 05       		.uleb128 0x5
 2298 0946 03       		.byte	0x3
 2299 0947 00000000 		.4byte	cyBle_scanRspData
 2300 094b 22       		.uleb128 0x22
 2301 094c 290A0000 		.4byte	.LASF191
 2302 0950 01       		.byte	0x1
 2303 0951 50       		.byte	0x50
 2304 0952 C5040000 		.4byte	0x4c5
 2305 0956 05       		.uleb128 0x5
 2306 0957 03       		.byte	0x3
 2307 0958 00000000 		.4byte	cyBle_discoveryModeInfo
 2308 095c 0D       		.uleb128 0xd
 2309 095d 72050000 		.4byte	0x572
 2310 0961 6C090000 		.4byte	0x96c
 2311 0965 0E       		.uleb128 0xe
 2312 0966 B1000000 		.4byte	0xb1
 2313 096a 20       		.byte	0x20
 2314 096b 00       		.byte	0
 2315 096c 24       		.uleb128 0x24
 2316 096d 320E0000 		.4byte	.LASF192
 2317 0971 09       		.byte	0x9
 2318 0972 B4       		.byte	0xb4
 2319 0973 77090000 		.4byte	0x977
 2320 0977 1E       		.uleb128 0x1e
 2321 0978 5C090000 		.4byte	0x95c
 2322 097c 23       		.uleb128 0x23
 2323 097d 1B090000 		.4byte	.LASF193
 2324 0981 08       		.byte	0x8
 2325 0982 6406     		.2byte	0x664
 2326 0984 0B060000 		.4byte	0x60b
 2327 0988 23       		.uleb128 0x23
 2328 0989 20100000 		.4byte	.LASF194
 2329 098d 08       		.byte	0x8
 2330 098e 6606     		.2byte	0x666
 2331 0990 AC000000 		.4byte	0xac
 2332 0994 23       		.uleb128 0x23
 2333 0995 200C0000 		.4byte	.LASF195
 2334 0999 08       		.byte	0x8
 2335 099a 6906     		.2byte	0x669
 2336 099c 6B000000 		.4byte	0x6b
 2337 09a0 00       		.byte	0
 2338              		.section	.debug_abbrev,"",%progbits
 2339              	.Ldebug_abbrev0:
 2340 0000 01       		.uleb128 0x1
 2341 0001 11       		.uleb128 0x11
 2342 0002 01       		.byte	0x1
 2343 0003 25       		.uleb128 0x25
 2344 0004 0E       		.uleb128 0xe
 2345 0005 13       		.uleb128 0x13
 2346 0006 0B       		.uleb128 0xb
 2347 0007 03       		.uleb128 0x3
 2348 0008 0E       		.uleb128 0xe
 2349 0009 1B       		.uleb128 0x1b
 2350 000a 0E       		.uleb128 0xe
ARM GAS  C:\Users\ENESDU~1\AppData\Local\Temp\ccTCHFTj.s 			page 62


 2351 000b 55       		.uleb128 0x55
 2352 000c 17       		.uleb128 0x17
 2353 000d 11       		.uleb128 0x11
 2354 000e 01       		.uleb128 0x1
 2355 000f 10       		.uleb128 0x10
 2356 0010 17       		.uleb128 0x17
 2357 0011 00       		.byte	0
 2358 0012 00       		.byte	0
 2359 0013 02       		.uleb128 0x2
 2360 0014 24       		.uleb128 0x24
 2361 0015 00       		.byte	0
 2362 0016 0B       		.uleb128 0xb
 2363 0017 0B       		.uleb128 0xb
 2364 0018 3E       		.uleb128 0x3e
 2365 0019 0B       		.uleb128 0xb
 2366 001a 03       		.uleb128 0x3
 2367 001b 0E       		.uleb128 0xe
 2368 001c 00       		.byte	0
 2369 001d 00       		.byte	0
 2370 001e 03       		.uleb128 0x3
 2371 001f 24       		.uleb128 0x24
 2372 0020 00       		.byte	0
 2373 0021 0B       		.uleb128 0xb
 2374 0022 0B       		.uleb128 0xb
 2375 0023 3E       		.uleb128 0x3e
 2376 0024 0B       		.uleb128 0xb
 2377 0025 03       		.uleb128 0x3
 2378 0026 08       		.uleb128 0x8
 2379 0027 00       		.byte	0
 2380 0028 00       		.byte	0
 2381 0029 04       		.uleb128 0x4
 2382 002a 16       		.uleb128 0x16
 2383 002b 00       		.byte	0
 2384 002c 03       		.uleb128 0x3
 2385 002d 0E       		.uleb128 0xe
 2386 002e 3A       		.uleb128 0x3a
 2387 002f 0B       		.uleb128 0xb
 2388 0030 3B       		.uleb128 0x3b
 2389 0031 0B       		.uleb128 0xb
 2390 0032 49       		.uleb128 0x49
 2391 0033 13       		.uleb128 0x13
 2392 0034 00       		.byte	0
 2393 0035 00       		.byte	0
 2394 0036 05       		.uleb128 0x5
 2395 0037 35       		.uleb128 0x35
 2396 0038 00       		.byte	0
 2397 0039 49       		.uleb128 0x49
 2398 003a 13       		.uleb128 0x13
 2399 003b 00       		.byte	0
 2400 003c 00       		.byte	0
 2401 003d 06       		.uleb128 0x6
 2402 003e 0F       		.uleb128 0xf
 2403 003f 00       		.byte	0
 2404 0040 0B       		.uleb128 0xb
 2405 0041 0B       		.uleb128 0xb
 2406 0042 00       		.byte	0
 2407 0043 00       		.byte	0
ARM GAS  C:\Users\ENESDU~1\AppData\Local\Temp\ccTCHFTj.s 			page 63


 2408 0044 07       		.uleb128 0x7
 2409 0045 04       		.uleb128 0x4
 2410 0046 01       		.byte	0x1
 2411 0047 0B       		.uleb128 0xb
 2412 0048 0B       		.uleb128 0xb
 2413 0049 3A       		.uleb128 0x3a
 2414 004a 0B       		.uleb128 0xb
 2415 004b 3B       		.uleb128 0x3b
 2416 004c 0B       		.uleb128 0xb
 2417 004d 01       		.uleb128 0x1
 2418 004e 13       		.uleb128 0x13
 2419 004f 00       		.byte	0
 2420 0050 00       		.byte	0
 2421 0051 08       		.uleb128 0x8
 2422 0052 28       		.uleb128 0x28
 2423 0053 00       		.byte	0
 2424 0054 03       		.uleb128 0x3
 2425 0055 0E       		.uleb128 0xe
 2426 0056 1C       		.uleb128 0x1c
 2427 0057 0D       		.uleb128 0xd
 2428 0058 00       		.byte	0
 2429 0059 00       		.byte	0
 2430 005a 09       		.uleb128 0x9
 2431 005b 04       		.uleb128 0x4
 2432 005c 01       		.byte	0x1
 2433 005d 0B       		.uleb128 0xb
 2434 005e 0B       		.uleb128 0xb
 2435 005f 3A       		.uleb128 0x3a
 2436 0060 0B       		.uleb128 0xb
 2437 0061 3B       		.uleb128 0x3b
 2438 0062 05       		.uleb128 0x5
 2439 0063 01       		.uleb128 0x1
 2440 0064 13       		.uleb128 0x13
 2441 0065 00       		.byte	0
 2442 0066 00       		.byte	0
 2443 0067 0A       		.uleb128 0xa
 2444 0068 16       		.uleb128 0x16
 2445 0069 00       		.byte	0
 2446 006a 03       		.uleb128 0x3
 2447 006b 0E       		.uleb128 0xe
 2448 006c 3A       		.uleb128 0x3a
 2449 006d 0B       		.uleb128 0xb
 2450 006e 3B       		.uleb128 0x3b
 2451 006f 05       		.uleb128 0x5
 2452 0070 49       		.uleb128 0x49
 2453 0071 13       		.uleb128 0x13
 2454 0072 00       		.byte	0
 2455 0073 00       		.byte	0
 2456 0074 0B       		.uleb128 0xb
 2457 0075 13       		.uleb128 0x13
 2458 0076 01       		.byte	0x1
 2459 0077 0B       		.uleb128 0xb
 2460 0078 0B       		.uleb128 0xb
 2461 0079 3A       		.uleb128 0x3a
 2462 007a 0B       		.uleb128 0xb
 2463 007b 3B       		.uleb128 0x3b
 2464 007c 05       		.uleb128 0x5
ARM GAS  C:\Users\ENESDU~1\AppData\Local\Temp\ccTCHFTj.s 			page 64


 2465 007d 01       		.uleb128 0x1
 2466 007e 13       		.uleb128 0x13
 2467 007f 00       		.byte	0
 2468 0080 00       		.byte	0
 2469 0081 0C       		.uleb128 0xc
 2470 0082 0D       		.uleb128 0xd
 2471 0083 00       		.byte	0
 2472 0084 03       		.uleb128 0x3
 2473 0085 0E       		.uleb128 0xe
 2474 0086 3A       		.uleb128 0x3a
 2475 0087 0B       		.uleb128 0xb
 2476 0088 3B       		.uleb128 0x3b
 2477 0089 05       		.uleb128 0x5
 2478 008a 49       		.uleb128 0x49
 2479 008b 13       		.uleb128 0x13
 2480 008c 38       		.uleb128 0x38
 2481 008d 0B       		.uleb128 0xb
 2482 008e 00       		.byte	0
 2483 008f 00       		.byte	0
 2484 0090 0D       		.uleb128 0xd
 2485 0091 01       		.uleb128 0x1
 2486 0092 01       		.byte	0x1
 2487 0093 49       		.uleb128 0x49
 2488 0094 13       		.uleb128 0x13
 2489 0095 01       		.uleb128 0x1
 2490 0096 13       		.uleb128 0x13
 2491 0097 00       		.byte	0
 2492 0098 00       		.byte	0
 2493 0099 0E       		.uleb128 0xe
 2494 009a 21       		.uleb128 0x21
 2495 009b 00       		.byte	0
 2496 009c 49       		.uleb128 0x49
 2497 009d 13       		.uleb128 0x13
 2498 009e 2F       		.uleb128 0x2f
 2499 009f 0B       		.uleb128 0xb
 2500 00a0 00       		.byte	0
 2501 00a1 00       		.byte	0
 2502 00a2 0F       		.uleb128 0xf
 2503 00a3 0F       		.uleb128 0xf
 2504 00a4 00       		.byte	0
 2505 00a5 0B       		.uleb128 0xb
 2506 00a6 0B       		.uleb128 0xb
 2507 00a7 49       		.uleb128 0x49
 2508 00a8 13       		.uleb128 0x13
 2509 00a9 00       		.byte	0
 2510 00aa 00       		.byte	0
 2511 00ab 10       		.uleb128 0x10
 2512 00ac 13       		.uleb128 0x13
 2513 00ad 01       		.byte	0x1
 2514 00ae 0B       		.uleb128 0xb
 2515 00af 0B       		.uleb128 0xb
 2516 00b0 3A       		.uleb128 0x3a
 2517 00b1 0B       		.uleb128 0xb
 2518 00b2 3B       		.uleb128 0x3b
 2519 00b3 0B       		.uleb128 0xb
 2520 00b4 01       		.uleb128 0x1
 2521 00b5 13       		.uleb128 0x13
ARM GAS  C:\Users\ENESDU~1\AppData\Local\Temp\ccTCHFTj.s 			page 65


 2522 00b6 00       		.byte	0
 2523 00b7 00       		.byte	0
 2524 00b8 11       		.uleb128 0x11
 2525 00b9 0D       		.uleb128 0xd
 2526 00ba 00       		.byte	0
 2527 00bb 03       		.uleb128 0x3
 2528 00bc 0E       		.uleb128 0xe
 2529 00bd 3A       		.uleb128 0x3a
 2530 00be 0B       		.uleb128 0xb
 2531 00bf 3B       		.uleb128 0x3b
 2532 00c0 0B       		.uleb128 0xb
 2533 00c1 49       		.uleb128 0x49
 2534 00c2 13       		.uleb128 0x13
 2535 00c3 38       		.uleb128 0x38
 2536 00c4 0B       		.uleb128 0xb
 2537 00c5 00       		.byte	0
 2538 00c6 00       		.byte	0
 2539 00c7 12       		.uleb128 0x12
 2540 00c8 17       		.uleb128 0x17
 2541 00c9 01       		.byte	0x1
 2542 00ca 0B       		.uleb128 0xb
 2543 00cb 0B       		.uleb128 0xb
 2544 00cc 3A       		.uleb128 0x3a
 2545 00cd 0B       		.uleb128 0xb
 2546 00ce 3B       		.uleb128 0x3b
 2547 00cf 0B       		.uleb128 0xb
 2548 00d0 01       		.uleb128 0x1
 2549 00d1 13       		.uleb128 0x13
 2550 00d2 00       		.byte	0
 2551 00d3 00       		.byte	0
 2552 00d4 13       		.uleb128 0x13
 2553 00d5 0D       		.uleb128 0xd
 2554 00d6 00       		.byte	0
 2555 00d7 03       		.uleb128 0x3
 2556 00d8 0E       		.uleb128 0xe
 2557 00d9 3A       		.uleb128 0x3a
 2558 00da 0B       		.uleb128 0xb
 2559 00db 3B       		.uleb128 0x3b
 2560 00dc 0B       		.uleb128 0xb
 2561 00dd 49       		.uleb128 0x49
 2562 00de 13       		.uleb128 0x13
 2563 00df 00       		.byte	0
 2564 00e0 00       		.byte	0
 2565 00e1 14       		.uleb128 0x14
 2566 00e2 15       		.uleb128 0x15
 2567 00e3 01       		.byte	0x1
 2568 00e4 27       		.uleb128 0x27
 2569 00e5 19       		.uleb128 0x19
 2570 00e6 01       		.uleb128 0x1
 2571 00e7 13       		.uleb128 0x13
 2572 00e8 00       		.byte	0
 2573 00e9 00       		.byte	0
 2574 00ea 15       		.uleb128 0x15
 2575 00eb 05       		.uleb128 0x5
 2576 00ec 00       		.byte	0
 2577 00ed 49       		.uleb128 0x49
 2578 00ee 13       		.uleb128 0x13
ARM GAS  C:\Users\ENESDU~1\AppData\Local\Temp\ccTCHFTj.s 			page 66


 2579 00ef 00       		.byte	0
 2580 00f0 00       		.byte	0
 2581 00f1 16       		.uleb128 0x16
 2582 00f2 2E       		.uleb128 0x2e
 2583 00f3 00       		.byte	0
 2584 00f4 3F       		.uleb128 0x3f
 2585 00f5 19       		.uleb128 0x19
 2586 00f6 03       		.uleb128 0x3
 2587 00f7 0E       		.uleb128 0xe
 2588 00f8 3A       		.uleb128 0x3a
 2589 00f9 0B       		.uleb128 0xb
 2590 00fa 3B       		.uleb128 0x3b
 2591 00fb 0B       		.uleb128 0xb
 2592 00fc 27       		.uleb128 0x27
 2593 00fd 19       		.uleb128 0x19
 2594 00fe 11       		.uleb128 0x11
 2595 00ff 01       		.uleb128 0x1
 2596 0100 12       		.uleb128 0x12
 2597 0101 06       		.uleb128 0x6
 2598 0102 40       		.uleb128 0x40
 2599 0103 18       		.uleb128 0x18
 2600 0104 9642     		.uleb128 0x2116
 2601 0106 19       		.uleb128 0x19
 2602 0107 00       		.byte	0
 2603 0108 00       		.byte	0
 2604 0109 17       		.uleb128 0x17
 2605 010a 2E       		.uleb128 0x2e
 2606 010b 01       		.byte	0x1
 2607 010c 3F       		.uleb128 0x3f
 2608 010d 19       		.uleb128 0x19
 2609 010e 03       		.uleb128 0x3
 2610 010f 0E       		.uleb128 0xe
 2611 0110 3A       		.uleb128 0x3a
 2612 0111 0B       		.uleb128 0xb
 2613 0112 3B       		.uleb128 0x3b
 2614 0113 05       		.uleb128 0x5
 2615 0114 27       		.uleb128 0x27
 2616 0115 19       		.uleb128 0x19
 2617 0116 49       		.uleb128 0x49
 2618 0117 13       		.uleb128 0x13
 2619 0118 11       		.uleb128 0x11
 2620 0119 01       		.uleb128 0x1
 2621 011a 12       		.uleb128 0x12
 2622 011b 06       		.uleb128 0x6
 2623 011c 40       		.uleb128 0x40
 2624 011d 18       		.uleb128 0x18
 2625 011e 9642     		.uleb128 0x2116
 2626 0120 19       		.uleb128 0x19
 2627 0121 01       		.uleb128 0x1
 2628 0122 13       		.uleb128 0x13
 2629 0123 00       		.byte	0
 2630 0124 00       		.byte	0
 2631 0125 18       		.uleb128 0x18
 2632 0126 05       		.uleb128 0x5
 2633 0127 00       		.byte	0
 2634 0128 03       		.uleb128 0x3
 2635 0129 0E       		.uleb128 0xe
ARM GAS  C:\Users\ENESDU~1\AppData\Local\Temp\ccTCHFTj.s 			page 67


 2636 012a 3A       		.uleb128 0x3a
 2637 012b 0B       		.uleb128 0xb
 2638 012c 3B       		.uleb128 0x3b
 2639 012d 05       		.uleb128 0x5
 2640 012e 49       		.uleb128 0x49
 2641 012f 13       		.uleb128 0x13
 2642 0130 02       		.uleb128 0x2
 2643 0131 18       		.uleb128 0x18
 2644 0132 00       		.byte	0
 2645 0133 00       		.byte	0
 2646 0134 19       		.uleb128 0x19
 2647 0135 34       		.uleb128 0x34
 2648 0136 00       		.byte	0
 2649 0137 03       		.uleb128 0x3
 2650 0138 0E       		.uleb128 0xe
 2651 0139 3A       		.uleb128 0x3a
 2652 013a 0B       		.uleb128 0xb
 2653 013b 3B       		.uleb128 0x3b
 2654 013c 05       		.uleb128 0x5
 2655 013d 49       		.uleb128 0x49
 2656 013e 13       		.uleb128 0x13
 2657 013f 02       		.uleb128 0x2
 2658 0140 18       		.uleb128 0x18
 2659 0141 00       		.byte	0
 2660 0142 00       		.byte	0
 2661 0143 1A       		.uleb128 0x1a
 2662 0144 21       		.uleb128 0x21
 2663 0145 00       		.byte	0
 2664 0146 49       		.uleb128 0x49
 2665 0147 13       		.uleb128 0x13
 2666 0148 2F       		.uleb128 0x2f
 2667 0149 05       		.uleb128 0x5
 2668 014a 00       		.byte	0
 2669 014b 00       		.byte	0
 2670 014c 1B       		.uleb128 0x1b
 2671 014d 2E       		.uleb128 0x2e
 2672 014e 00       		.byte	0
 2673 014f 3F       		.uleb128 0x3f
 2674 0150 19       		.uleb128 0x19
 2675 0151 03       		.uleb128 0x3
 2676 0152 0E       		.uleb128 0xe
 2677 0153 3A       		.uleb128 0x3a
 2678 0154 0B       		.uleb128 0xb
 2679 0155 3B       		.uleb128 0x3b
 2680 0156 05       		.uleb128 0x5
 2681 0157 27       		.uleb128 0x27
 2682 0158 19       		.uleb128 0x19
 2683 0159 11       		.uleb128 0x11
 2684 015a 01       		.uleb128 0x1
 2685 015b 12       		.uleb128 0x12
 2686 015c 06       		.uleb128 0x6
 2687 015d 40       		.uleb128 0x40
 2688 015e 18       		.uleb128 0x18
 2689 015f 9642     		.uleb128 0x2116
 2690 0161 19       		.uleb128 0x19
 2691 0162 00       		.byte	0
 2692 0163 00       		.byte	0
ARM GAS  C:\Users\ENESDU~1\AppData\Local\Temp\ccTCHFTj.s 			page 68


 2693 0164 1C       		.uleb128 0x1c
 2694 0165 2E       		.uleb128 0x2e
 2695 0166 01       		.byte	0x1
 2696 0167 03       		.uleb128 0x3
 2697 0168 0E       		.uleb128 0xe
 2698 0169 3A       		.uleb128 0x3a
 2699 016a 0B       		.uleb128 0xb
 2700 016b 3B       		.uleb128 0x3b
 2701 016c 05       		.uleb128 0x5
 2702 016d 27       		.uleb128 0x27
 2703 016e 19       		.uleb128 0x19
 2704 016f 11       		.uleb128 0x11
 2705 0170 01       		.uleb128 0x1
 2706 0171 12       		.uleb128 0x12
 2707 0172 06       		.uleb128 0x6
 2708 0173 40       		.uleb128 0x40
 2709 0174 18       		.uleb128 0x18
 2710 0175 9742     		.uleb128 0x2117
 2711 0177 19       		.uleb128 0x19
 2712 0178 01       		.uleb128 0x1
 2713 0179 13       		.uleb128 0x13
 2714 017a 00       		.byte	0
 2715 017b 00       		.byte	0
 2716 017c 1D       		.uleb128 0x1d
 2717 017d 34       		.uleb128 0x34
 2718 017e 00       		.byte	0
 2719 017f 03       		.uleb128 0x3
 2720 0180 08       		.uleb128 0x8
 2721 0181 3A       		.uleb128 0x3a
 2722 0182 0B       		.uleb128 0xb
 2723 0183 3B       		.uleb128 0x3b
 2724 0184 05       		.uleb128 0x5
 2725 0185 49       		.uleb128 0x49
 2726 0186 13       		.uleb128 0x13
 2727 0187 02       		.uleb128 0x2
 2728 0188 18       		.uleb128 0x18
 2729 0189 00       		.byte	0
 2730 018a 00       		.byte	0
 2731 018b 1E       		.uleb128 0x1e
 2732 018c 26       		.uleb128 0x26
 2733 018d 00       		.byte	0
 2734 018e 49       		.uleb128 0x49
 2735 018f 13       		.uleb128 0x13
 2736 0190 00       		.byte	0
 2737 0191 00       		.byte	0
 2738 0192 1F       		.uleb128 0x1f
 2739 0193 2E       		.uleb128 0x2e
 2740 0194 01       		.byte	0x1
 2741 0195 3F       		.uleb128 0x3f
 2742 0196 19       		.uleb128 0x19
 2743 0197 03       		.uleb128 0x3
 2744 0198 0E       		.uleb128 0xe
 2745 0199 3A       		.uleb128 0x3a
 2746 019a 0B       		.uleb128 0xb
 2747 019b 3B       		.uleb128 0x3b
 2748 019c 05       		.uleb128 0x5
 2749 019d 27       		.uleb128 0x27
ARM GAS  C:\Users\ENESDU~1\AppData\Local\Temp\ccTCHFTj.s 			page 69


 2750 019e 19       		.uleb128 0x19
 2751 019f 49       		.uleb128 0x49
 2752 01a0 13       		.uleb128 0x13
 2753 01a1 11       		.uleb128 0x11
 2754 01a2 01       		.uleb128 0x1
 2755 01a3 12       		.uleb128 0x12
 2756 01a4 06       		.uleb128 0x6
 2757 01a5 40       		.uleb128 0x40
 2758 01a6 18       		.uleb128 0x18
 2759 01a7 9742     		.uleb128 0x2117
 2760 01a9 19       		.uleb128 0x19
 2761 01aa 01       		.uleb128 0x1
 2762 01ab 13       		.uleb128 0x13
 2763 01ac 00       		.byte	0
 2764 01ad 00       		.byte	0
 2765 01ae 20       		.uleb128 0x20
 2766 01af 05       		.uleb128 0x5
 2767 01b0 00       		.byte	0
 2768 01b1 03       		.uleb128 0x3
 2769 01b2 08       		.uleb128 0x8
 2770 01b3 3A       		.uleb128 0x3a
 2771 01b4 0B       		.uleb128 0xb
 2772 01b5 3B       		.uleb128 0x3b
 2773 01b6 05       		.uleb128 0x5
 2774 01b7 49       		.uleb128 0x49
 2775 01b8 13       		.uleb128 0x13
 2776 01b9 02       		.uleb128 0x2
 2777 01ba 18       		.uleb128 0x18
 2778 01bb 00       		.byte	0
 2779 01bc 00       		.byte	0
 2780 01bd 21       		.uleb128 0x21
 2781 01be 2E       		.uleb128 0x2e
 2782 01bf 01       		.byte	0x1
 2783 01c0 3F       		.uleb128 0x3f
 2784 01c1 19       		.uleb128 0x19
 2785 01c2 03       		.uleb128 0x3
 2786 01c3 0E       		.uleb128 0xe
 2787 01c4 3A       		.uleb128 0x3a
 2788 01c5 0B       		.uleb128 0xb
 2789 01c6 3B       		.uleb128 0x3b
 2790 01c7 05       		.uleb128 0x5
 2791 01c8 27       		.uleb128 0x27
 2792 01c9 19       		.uleb128 0x19
 2793 01ca 11       		.uleb128 0x11
 2794 01cb 01       		.uleb128 0x1
 2795 01cc 12       		.uleb128 0x12
 2796 01cd 06       		.uleb128 0x6
 2797 01ce 40       		.uleb128 0x40
 2798 01cf 18       		.uleb128 0x18
 2799 01d0 9742     		.uleb128 0x2117
 2800 01d2 19       		.uleb128 0x19
 2801 01d3 01       		.uleb128 0x1
 2802 01d4 13       		.uleb128 0x13
 2803 01d5 00       		.byte	0
 2804 01d6 00       		.byte	0
 2805 01d7 22       		.uleb128 0x22
 2806 01d8 34       		.uleb128 0x34
ARM GAS  C:\Users\ENESDU~1\AppData\Local\Temp\ccTCHFTj.s 			page 70


 2807 01d9 00       		.byte	0
 2808 01da 03       		.uleb128 0x3
 2809 01db 0E       		.uleb128 0xe
 2810 01dc 3A       		.uleb128 0x3a
 2811 01dd 0B       		.uleb128 0xb
 2812 01de 3B       		.uleb128 0x3b
 2813 01df 0B       		.uleb128 0xb
 2814 01e0 49       		.uleb128 0x49
 2815 01e1 13       		.uleb128 0x13
 2816 01e2 3F       		.uleb128 0x3f
 2817 01e3 19       		.uleb128 0x19
 2818 01e4 02       		.uleb128 0x2
 2819 01e5 18       		.uleb128 0x18
 2820 01e6 00       		.byte	0
 2821 01e7 00       		.byte	0
 2822 01e8 23       		.uleb128 0x23
 2823 01e9 34       		.uleb128 0x34
 2824 01ea 00       		.byte	0
 2825 01eb 03       		.uleb128 0x3
 2826 01ec 0E       		.uleb128 0xe
 2827 01ed 3A       		.uleb128 0x3a
 2828 01ee 0B       		.uleb128 0xb
 2829 01ef 3B       		.uleb128 0x3b
 2830 01f0 05       		.uleb128 0x5
 2831 01f1 49       		.uleb128 0x49
 2832 01f2 13       		.uleb128 0x13
 2833 01f3 3F       		.uleb128 0x3f
 2834 01f4 19       		.uleb128 0x19
 2835 01f5 3C       		.uleb128 0x3c
 2836 01f6 19       		.uleb128 0x19
 2837 01f7 00       		.byte	0
 2838 01f8 00       		.byte	0
 2839 01f9 24       		.uleb128 0x24
 2840 01fa 34       		.uleb128 0x34
 2841 01fb 00       		.byte	0
 2842 01fc 03       		.uleb128 0x3
 2843 01fd 0E       		.uleb128 0xe
 2844 01fe 3A       		.uleb128 0x3a
 2845 01ff 0B       		.uleb128 0xb
 2846 0200 3B       		.uleb128 0x3b
 2847 0201 0B       		.uleb128 0xb
 2848 0202 49       		.uleb128 0x49
 2849 0203 13       		.uleb128 0x13
 2850 0204 3F       		.uleb128 0x3f
 2851 0205 19       		.uleb128 0x19
 2852 0206 3C       		.uleb128 0x3c
 2853 0207 19       		.uleb128 0x19
 2854 0208 00       		.byte	0
 2855 0209 00       		.byte	0
 2856 020a 00       		.byte	0
 2857              		.section	.debug_aranges,"",%progbits
 2858 0000 6C000000 		.4byte	0x6c
 2859 0004 0200     		.2byte	0x2
 2860 0006 00000000 		.4byte	.Ldebug_info0
 2861 000a 04       		.byte	0x4
 2862 000b 00       		.byte	0
 2863 000c 0000     		.2byte	0
ARM GAS  C:\Users\ENESDU~1\AppData\Local\Temp\ccTCHFTj.s 			page 71


 2864 000e 0000     		.2byte	0
 2865 0010 00000000 		.4byte	.LFB2
 2866 0014 2C000000 		.4byte	.LFE2-.LFB2
 2867 0018 00000000 		.4byte	.LFB3
 2868 001c 10000000 		.4byte	.LFE3-.LFB3
 2869 0020 00000000 		.4byte	.LFB4
 2870 0024 90000000 		.4byte	.LFE4-.LFB4
 2871 0028 00000000 		.4byte	.LFB5
 2872 002c 1C000000 		.4byte	.LFE5-.LFB5
 2873 0030 00000000 		.4byte	.LFB6
 2874 0034 C4000000 		.4byte	.LFE6-.LFB6
 2875 0038 00000000 		.4byte	.LFB7
 2876 003c 20000000 		.4byte	.LFE7-.LFB7
 2877 0040 00000000 		.4byte	.LFB8
 2878 0044 A0010000 		.4byte	.LFE8-.LFB8
 2879 0048 00000000 		.4byte	.LFB9
 2880 004c B8000000 		.4byte	.LFE9-.LFB9
 2881 0050 00000000 		.4byte	.LFB10
 2882 0054 A4000000 		.4byte	.LFE10-.LFB10
 2883 0058 00000000 		.4byte	.LFB11
 2884 005c 24000000 		.4byte	.LFE11-.LFB11
 2885 0060 00000000 		.4byte	.LFB12
 2886 0064 2E000000 		.4byte	.LFE12-.LFB12
 2887 0068 00000000 		.4byte	0
 2888 006c 00000000 		.4byte	0
 2889              		.section	.debug_ranges,"",%progbits
 2890              	.Ldebug_ranges0:
 2891 0000 00000000 		.4byte	.LFB2
 2892 0004 2C000000 		.4byte	.LFE2
 2893 0008 00000000 		.4byte	.LFB3
 2894 000c 10000000 		.4byte	.LFE3
 2895 0010 00000000 		.4byte	.LFB4
 2896 0014 90000000 		.4byte	.LFE4
 2897 0018 00000000 		.4byte	.LFB5
 2898 001c 1C000000 		.4byte	.LFE5
 2899 0020 00000000 		.4byte	.LFB6
 2900 0024 C4000000 		.4byte	.LFE6
 2901 0028 00000000 		.4byte	.LFB7
 2902 002c 20000000 		.4byte	.LFE7
 2903 0030 00000000 		.4byte	.LFB8
 2904 0034 A0010000 		.4byte	.LFE8
 2905 0038 00000000 		.4byte	.LFB9
 2906 003c B8000000 		.4byte	.LFE9
 2907 0040 00000000 		.4byte	.LFB10
 2908 0044 A4000000 		.4byte	.LFE10
 2909 0048 00000000 		.4byte	.LFB11
 2910 004c 24000000 		.4byte	.LFE11
 2911 0050 00000000 		.4byte	.LFB12
 2912 0054 2E000000 		.4byte	.LFE12
 2913 0058 00000000 		.4byte	0
 2914 005c 00000000 		.4byte	0
 2915              		.section	.debug_line,"",%progbits
 2916              	.Ldebug_line0:
 2917 0000 2D020000 		.section	.debug_str,"MS",%progbits,1
 2917      0200B200 
 2917      00000201 
 2917      FB0E0D00 
ARM GAS  C:\Users\ENESDU~1\AppData\Local\Temp\ccTCHFTj.s 			page 72


 2917      01010101 
 2918              	.LASF66:
 2919 0000 4359424C 		.ascii	"CYBLE_EVT_L2CAP_CBFC_RX_CREDIT_IND\000"
 2919      455F4556 
 2919      545F4C32 
 2919      4341505F 
 2919      43424643 
 2920              	.LASF22:
 2921 0023 4359424C 		.ascii	"CYBLE_EVT_STACK_BUSY_STATUS\000"
 2921      455F4556 
 2921      545F5354 
 2921      41434B5F 
 2921      42555359 
 2922              	.LASF155:
 2923 003f 4359424C 		.ascii	"CYBLE_STATE_STOPPED\000"
 2923      455F5354 
 2923      4154455F 
 2923      53544F50 
 2923      50454400 
 2924              	.LASF65:
 2925 0053 4359424C 		.ascii	"CYBLE_EVT_L2CAP_CBFC_DATA_READ\000"
 2925      455F4556 
 2925      545F4C32 
 2925      4341505F 
 2925      43424643 
 2926              	.LASF188:
 2927 0072 6379426C 		.ascii	"cyBle_discoveryParam\000"
 2927      655F6469 
 2927      73636F76 
 2927      65727950 
 2927      6172616D 
 2928              	.LASF89:
 2929 0087 4359424C 		.ascii	"CYBLE_ERROR_L2CAP_NOT_ENOUGH_CREDITS\000"
 2929      455F4552 
 2929      524F525F 
 2929      4C324341 
 2929      505F4E4F 
 2930              	.LASF124:
 2931 00ac 4359424C 		.ascii	"CYBLE_GAPP_DISC_DATA_T\000"
 2931      455F4741 
 2931      50505F44 
 2931      4953435F 
 2931      44415441 
 2932              	.LASF197:
 2933 00c3 2E5C4765 		.ascii	".\\Generated_Source\\PSoC4\\BLE.c\000"
 2933      6E657261 
 2933      7465645F 
 2933      536F7572 
 2933      63655C50 
 2934              	.LASF33:
 2935 00e2 4359424C 		.ascii	"CYBLE_EVT_GAP_CONNECTION_UPDATE_COMPLETE\000"
 2935      455F4556 
 2935      545F4741 
 2935      505F434F 
 2935      4E4E4543 
 2936              	.LASF119:
 2937 010b 61647643 		.ascii	"advChannelMap\000"
ARM GAS  C:\Users\ENESDU~1\AppData\Local\Temp\ccTCHFTj.s 			page 73


 2937      68616E6E 
 2937      656C4D61 
 2937      7000
 2938              	.LASF64:
 2939 0119 4359424C 		.ascii	"CYBLE_EVT_L2CAP_CBFC_DISCONN_CNF\000"
 2939      455F4556 
 2939      545F4C32 
 2939      4341505F 
 2939      43424643 
 2940              	.LASF108:
 2941 013a 4359424C 		.ascii	"CYBLE_GAPP_CONNECTABLE_HIGH_DC_DIRECTED_ADV\000"
 2941      455F4741 
 2941      50505F43 
 2941      4F4E4E45 
 2941      43544142 
 2942              	.LASF47:
 2943 0166 4359424C 		.ascii	"CYBLE_EVT_GATTC_READ_MULTI_RSP\000"
 2943      455F4556 
 2943      545F4741 
 2943      5454435F 
 2943      52454144 
 2944              	.LASF52:
 2945 0185 4359424C 		.ascii	"CYBLE_EVT_GATTS_EXEC_WRITE_REQ\000"
 2945      455F4556 
 2945      545F4741 
 2945      5454535F 
 2945      45584543 
 2946              	.LASF164:
 2947 01a4 6379426C 		.ascii	"cyBle_stackMemoryRam\000"
 2947      655F7374 
 2947      61636B4D 
 2947      656D6F72 
 2947      7952616D 
 2948              	.LASF109:
 2949 01b9 4359424C 		.ascii	"CYBLE_GAPP_SCANNABLE_UNDIRECTED_ADV\000"
 2949      455F4741 
 2949      50505F53 
 2949      43414E4E 
 2949      41424C45 
 2950              	.LASF181:
 2951 01dd 4379426C 		.ascii	"CyBle_Get16ByPtr\000"
 2951      655F4765 
 2951      74313642 
 2951      79507472 
 2951      00
 2952              	.LASF105:
 2953 01ee 74797065 		.ascii	"type\000"
 2953      00
 2954              	.LASF19:
 2955 01f3 4359424C 		.ascii	"CYBLE_EVT_TIMEOUT\000"
 2955      455F4556 
 2955      545F5449 
 2955      4D454F55 
 2955      5400
 2956              	.LASF4:
 2957 0205 6C6F6E67 		.ascii	"long int\000"
 2957      20696E74 
ARM GAS  C:\Users\ENESDU~1\AppData\Local\Temp\ccTCHFTj.s 			page 74


 2957      00
 2958              	.LASF170:
 2959 020e 4379426C 		.ascii	"CyBle_GappStopAdvertisement\000"
 2959      655F4761 
 2959      70705374 
 2959      6F704164 
 2959      76657274 
 2960              	.LASF189:
 2961 022a 6379426C 		.ascii	"cyBle_discoveryData\000"
 2961      655F6469 
 2961      73636F76 
 2961      65727944 
 2961      61746100 
 2962              	.LASF84:
 2963 023e 4359424C 		.ascii	"CYBLE_ERROR_L2CAP_PSM_WRONG_ENCODING\000"
 2963      455F4552 
 2963      524F525F 
 2963      4C324341 
 2963      505F5053 
 2964              	.LASF75:
 2965 0263 4359424C 		.ascii	"CYBLE_ERROR_INSUFFICIENT_RESOURCES\000"
 2965      455F4552 
 2965      524F525F 
 2965      494E5355 
 2965      46464943 
 2966              	.LASF21:
 2967 0286 4359424C 		.ascii	"CYBLE_EVT_HCI_STATUS\000"
 2967      455F4556 
 2967      545F4843 
 2967      495F5354 
 2967      41545553 
 2968              	.LASF115:
 2969 029b 61647654 		.ascii	"advType\000"
 2969      79706500 
 2970              	.LASF34:
 2971 02a3 4359424C 		.ascii	"CYBLE_EVT_GAPC_SCAN_START_STOP\000"
 2971      455F4556 
 2971      545F4741 
 2971      50435F53 
 2971      43414E5F 
 2972              	.LASF69:
 2973 02c2 4359424C 		.ascii	"CYBLE_EVT_PENDING_FLASH_WRITE\000"
 2973      455F4556 
 2973      545F5045 
 2973      4E44494E 
 2973      475F464C 
 2974              	.LASF107:
 2975 02e0 4359424C 		.ascii	"CYBLE_GAPP_CONNECTABLE_UNDIRECTED_ADV\000"
 2975      455F4741 
 2975      50505F43 
 2975      4F4E4E45 
 2975      43544142 
 2976              	.LASF106:
 2977 0306 4359424C 		.ascii	"CYBLE_GAP_BD_ADDR_T\000"
 2977      455F4741 
 2977      505F4244 
 2977      5F414444 
ARM GAS  C:\Users\ENESDU~1\AppData\Local\Temp\ccTCHFTj.s 			page 75


 2977      525F5400 
 2978              	.LASF83:
 2979 031a 4359424C 		.ascii	"CYBLE_ERROR_SEC_FAILED\000"
 2979      455F4552 
 2979      524F525F 
 2979      5345435F 
 2979      4641494C 
 2980              	.LASF32:
 2981 0331 4359424C 		.ascii	"CYBLE_EVT_GAP_ENCRYPT_CHANGE\000"
 2981      455F4556 
 2981      545F4741 
 2981      505F454E 
 2981      43525950 
 2982              	.LASF67:
 2983 034e 4359424C 		.ascii	"CYBLE_EVT_L2CAP_CBFC_TX_CREDIT_IND\000"
 2983      455F4556 
 2983      545F4C32 
 2983      4341505F 
 2983      43424643 
 2984              	.LASF158:
 2985 0371 4359424C 		.ascii	"CYBLE_STATE_ADVERTISING\000"
 2985      455F5354 
 2985      4154455F 
 2985      41445645 
 2985      52544953 
 2986              	.LASF6:
 2987 0389 6C6F6E67 		.ascii	"long long int\000"
 2987      206C6F6E 
 2987      6720696E 
 2987      7400
 2988              	.LASF0:
 2989 0397 7369676E 		.ascii	"signed char\000"
 2989      65642063 
 2989      68617200 
 2990              	.LASF18:
 2991 03a3 4359424C 		.ascii	"CYBLE_EVT_STACK_ON\000"
 2991      455F4556 
 2991      545F5354 
 2991      41434B5F 
 2991      4F4E00
 2992              	.LASF92:
 2993 03b6 4359424C 		.ascii	"CYBLE_ERROR_DEVICE_ALREADY_EXISTS\000"
 2993      455F4552 
 2993      524F525F 
 2993      44455649 
 2993      43455F41 
 2994              	.LASF78:
 2995 03d8 4359424C 		.ascii	"CYBLE_ERROR_NO_DEVICE_ENTITY\000"
 2995      455F4552 
 2995      524F525F 
 2995      4E4F5F44 
 2995      45564943 
 2996              	.LASF118:
 2997 03f5 64697265 		.ascii	"directAddr\000"
 2997      63744164 
 2997      647200
 2998              	.LASF24:
ARM GAS  C:\Users\ENESDU~1\AppData\Local\Temp\ccTCHFTj.s 			page 76


 2999 0400 4359424C 		.ascii	"CYBLE_EVT_GAP_AUTH_REQ\000"
 2999      455F4556 
 2999      545F4741 
 2999      505F4155 
 2999      54485F52 
 3000              	.LASF140:
 3001 0417 7065726D 		.ascii	"permission\000"
 3001      69737369 
 3001      6F6E00
 3002              	.LASF45:
 3003 0422 4359424C 		.ascii	"CYBLE_EVT_GATTC_READ_RSP\000"
 3003      455F4556 
 3003      545F4741 
 3003      5454435F 
 3003      52454144 
 3004              	.LASF102:
 3005 043b 4359424C 		.ascii	"CYBLE_ERROR_INVALID_STATE\000"
 3005      455F4552 
 3005      524F525F 
 3005      494E5641 
 3005      4C49445F 
 3006              	.LASF120:
 3007 0455 61647646 		.ascii	"advFilterPolicy\000"
 3007      696C7465 
 3007      72506F6C 
 3007      69637900 
 3008              	.LASF50:
 3009 0465 4359424C 		.ascii	"CYBLE_EVT_GATTS_WRITE_CMD_REQ\000"
 3009      455F4556 
 3009      545F4741 
 3009      5454535F 
 3009      57524954 
 3010              	.LASF96:
 3011 0483 4359424C 		.ascii	"CYBLE_INCL_DISC_DONE\000"
 3011      455F494E 
 3011      434C5F44 
 3011      4953435F 
 3011      444F4E45 
 3012              	.LASF159:
 3013 0498 4359424C 		.ascii	"CYBLE_STATE_DISCONNECTED\000"
 3013      455F5354 
 3013      4154455F 
 3013      44495343 
 3013      4F4E4E45 
 3014              	.LASF29:
 3015 04b1 4359424C 		.ascii	"CYBLE_EVT_GAPP_ADVERTISEMENT_START_STOP\000"
 3015      455F4556 
 3015      545F4741 
 3015      50505F41 
 3015      44564552 
 3016              	.LASF90:
 3017 04d9 4359424C 		.ascii	"CYBLE_ERROR_L2CAP_PSM_NOT_IN_RANGE\000"
 3017      455F4552 
 3017      524F525F 
 3017      4C324341 
 3017      505F5053 
 3018              	.LASF178:
ARM GAS  C:\Users\ENESDU~1\AppData\Local\Temp\ccTCHFTj.s 			page 77


 3019 04fc 4379426C 		.ascii	"CyBle_GapSetLocalName\000"
 3019      655F4761 
 3019      70536574 
 3019      4C6F6361 
 3019      6C4E616D 
 3020              	.LASF9:
 3021 0512 75696E74 		.ascii	"uint8\000"
 3021      3800
 3022              	.LASF125:
 3023 0518 7363616E 		.ascii	"scanRspData\000"
 3023      52737044 
 3023      61746100 
 3024              	.LASF104:
 3025 0524 62644164 		.ascii	"bdAddr\000"
 3025      647200
 3026              	.LASF53:
 3027 052b 4359424C 		.ascii	"CYBLE_EVT_GATTC_EXEC_WRITE_RSP\000"
 3027      455F4556 
 3027      545F4741 
 3027      5454435F 
 3027      45584543 
 3028              	.LASF13:
 3029 054a 646F7562 		.ascii	"double\000"
 3029      6C6500
 3030              	.LASF128:
 3031 0551 64697363 		.ascii	"discMode\000"
 3031      4D6F6465 
 3031      00
 3032              	.LASF72:
 3033 055a 4359424C 		.ascii	"CYBLE_ERROR_INVALID_PARAMETER\000"
 3033      455F4552 
 3033      524F525F 
 3033      494E5641 
 3033      4C49445F 
 3034              	.LASF137:
 3035 0578 4359424C 		.ascii	"CYBLE_GATTS_ATT_VALUE_T\000"
 3035      455F4741 
 3035      5454535F 
 3035      4154545F 
 3035      56414C55 
 3036              	.LASF149:
 3037 0590 4359424C 		.ascii	"CYBLE_DIS_FIRMWARE_REV\000"
 3037      455F4449 
 3037      535F4649 
 3037      524D5741 
 3037      52455F52 
 3038              	.LASF138:
 3039 05a7 61747448 		.ascii	"attHandle\000"
 3039      616E646C 
 3039      6500
 3040              	.LASF11:
 3041 05b1 75696E74 		.ascii	"uint32\000"
 3041      333200
 3042              	.LASF198:
 3043 05b8 433A5C55 		.ascii	"C:\\Users\\Enes Dullovi\\Desktop\\BLE Lab 2\\BLE La"
 3043      73657273 
 3043      5C456E65 
ARM GAS  C:\Users\ENESDU~1\AppData\Local\Temp\ccTCHFTj.s 			page 78


 3043      73204475 
 3043      6C6C6F76 
 3044 05e6 6220322E 		.ascii	"b 2.cydsn\000"
 3044      63796473 
 3044      6E00
 3045              	.LASF176:
 3046 05f0 64657374 		.ascii	"destBuffer\000"
 3046      42756666 
 3046      657200
 3047              	.LASF148:
 3048 05fb 4359424C 		.ascii	"CYBLE_DIS_HARDWARE_REV\000"
 3048      455F4449 
 3048      535F4841 
 3048      52445741 
 3048      52455F52 
 3049              	.LASF70:
 3050 0612 4359424C 		.ascii	"CYBLE_EVT_MAX\000"
 3050      455F4556 
 3050      545F4D41 
 3050      5800
 3051              	.LASF71:
 3052 0620 4359424C 		.ascii	"CYBLE_ERROR_OK\000"
 3052      455F4552 
 3052      524F525F 
 3052      4F4B00
 3053              	.LASF36:
 3054 062f 4359424C 		.ascii	"CYBLE_EVT_GATTC_ERROR_RSP\000"
 3054      455F4556 
 3054      545F4741 
 3054      5454435F 
 3054      4552524F 
 3055              	.LASF58:
 3056 0649 4359424C 		.ascii	"CYBLE_EVT_L2CAP_CONN_PARAM_UPDATE_REQ\000"
 3056      455F4556 
 3056      545F4C32 
 3056      4341505F 
 3056      434F4E4E 
 3057              	.LASF68:
 3058 066f 4359424C 		.ascii	"CYBLE_EVT_L2CAP_CBFC_DATA_WRITE_IND\000"
 3058      455F4556 
 3058      545F4C32 
 3058      4341505F 
 3058      43424643 
 3059              	.LASF139:
 3060 0693 61747454 		.ascii	"attType\000"
 3060      79706500 
 3061              	.LASF123:
 3062 069b 61647644 		.ascii	"advDataLen\000"
 3062      6174614C 
 3062      656E00
 3063              	.LASF7:
 3064 06a6 6C6F6E67 		.ascii	"long long unsigned int\000"
 3064      206C6F6E 
 3064      6720756E 
 3064      7369676E 
 3064      65642069 
 3065              	.LASF182:
ARM GAS  C:\Users\ENESDU~1\AppData\Local\Temp\ccTCHFTj.s 			page 79


 3066 06bd 76616C75 		.ascii	"value\000"
 3066      6500
 3067              	.LASF74:
 3068 06c3 4359424C 		.ascii	"CYBLE_ERROR_MEMORY_ALLOCATION_FAILED\000"
 3068      455F4552 
 3068      524F525F 
 3068      4D454D4F 
 3068      52595F41 
 3069              	.LASF76:
 3070 06e8 4359424C 		.ascii	"CYBLE_ERROR_OOB_NOT_AVAILABLE\000"
 3070      455F4552 
 3070      524F525F 
 3070      4F4F425F 
 3070      4E4F545F 
 3071              	.LASF38:
 3072 0706 4359424C 		.ascii	"CYBLE_EVT_GATT_DISCONNECT_IND\000"
 3072      455F4556 
 3072      545F4741 
 3072      54545F44 
 3072      4953434F 
 3073              	.LASF162:
 3074 0724 4379426C 		.ascii	"CyBle_ServiceInit\000"
 3074      655F5365 
 3074      72766963 
 3074      65496E69 
 3074      7400
 3075              	.LASF85:
 3076 0736 4359424C 		.ascii	"CYBLE_ERROR_L2CAP_PSM_ALREADY_REGISTERED\000"
 3076      455F4552 
 3076      524F525F 
 3076      4C324341 
 3076      505F5053 
 3077              	.LASF5:
 3078 075f 6C6F6E67 		.ascii	"long unsigned int\000"
 3078      20756E73 
 3078      69676E65 
 3078      6420696E 
 3078      7400
 3079              	.LASF48:
 3080 0771 4359424C 		.ascii	"CYBLE_EVT_GATTS_WRITE_REQ\000"
 3080      455F4556 
 3080      545F4741 
 3080      5454535F 
 3080      57524954 
 3081              	.LASF40:
 3082 078b 4359424C 		.ascii	"CYBLE_EVT_GATTC_XCHNG_MTU_RSP\000"
 3082      455F4556 
 3082      545F4741 
 3082      5454435F 
 3082      5843484E 
 3083              	.LASF57:
 3084 07a9 4359424C 		.ascii	"CYBLE_EVT_GATTS_DATA_SIGNED_CMD_REQ\000"
 3084      455F4556 
 3084      545F4741 
 3084      5454535F 
 3084      44415441 
 3085              	.LASF171:
ARM GAS  C:\Users\ENESDU~1\AppData\Local\Temp\ccTCHFTj.s 			page 80


 3086 07cd 6E616D65 		.ascii	"name\000"
 3086      00
 3087              	.LASF135:
 3088 07d2 61747446 		.ascii	"attFormatValue\000"
 3088      6F726D61 
 3088      7456616C 
 3088      756500
 3089              	.LASF127:
 3090 07e1 4359424C 		.ascii	"CYBLE_GAPP_SCAN_RSP_DATA_T\000"
 3090      455F4741 
 3090      50505F53 
 3090      43414E5F 
 3090      5253505F 
 3091              	.LASF88:
 3092 07fc 4359424C 		.ascii	"CYBLE_ERROR_L2CAP_CHANNEL_NOT_FOUND\000"
 3092      455F4552 
 3092      524F525F 
 3092      4C324341 
 3092      505F4348 
 3093              	.LASF99:
 3094 0820 4359424C 		.ascii	"CYBLE_ERROR_NTF_DISABLED\000"
 3094      455F4552 
 3094      524F525F 
 3094      4E54465F 
 3094      44495341 
 3095              	.LASF17:
 3096 0839 4359424C 		.ascii	"CYBLE_EVT_HOST_INVALID\000"
 3096      455F4556 
 3096      545F484F 
 3096      53545F49 
 3096      4E56414C 
 3097              	.LASF43:
 3098 0850 4359424C 		.ascii	"CYBLE_EVT_GATTC_FIND_INFO_RSP\000"
 3098      455F4556 
 3098      545F4741 
 3098      5454435F 
 3098      46494E44 
 3099              	.LASF184:
 3100 086e 6379426C 		.ascii	"cyBle_initVar\000"
 3100      655F696E 
 3100      69745661 
 3100      7200
 3101              	.LASF25:
 3102 087c 4359424C 		.ascii	"CYBLE_EVT_GAP_PASSKEY_ENTRY_REQUEST\000"
 3102      455F4556 
 3102      545F4741 
 3102      505F5041 
 3102      53534B45 
 3103              	.LASF30:
 3104 08a0 4359424C 		.ascii	"CYBLE_EVT_GAP_DEVICE_CONNECTED\000"
 3104      455F4556 
 3104      545F4741 
 3104      505F4445 
 3104      56494345 
 3105              	.LASF174:
 3106 08bf 61644C65 		.ascii	"adLength\000"
 3106      6E677468 
ARM GAS  C:\Users\ENESDU~1\AppData\Local\Temp\ccTCHFTj.s 			page 81


 3106      00
 3107              	.LASF200:
 3108 08c8 4379426C 		.ascii	"CyBle_Set16ByPtr\000"
 3108      655F5365 
 3108      74313642 
 3108      79507472 
 3108      00
 3109              	.LASF126:
 3110 08d9 7363616E 		.ascii	"scanRspDataLen\000"
 3110      52737044 
 3110      6174614C 
 3110      656E00
 3111              	.LASF166:
 3112 08e8 4379426C 		.ascii	"CyBle_Start\000"
 3112      655F5374 
 3112      61727400 
 3113              	.LASF180:
 3114 08f4 4379426C 		.ascii	"CyBle_GapGetLocalName\000"
 3114      655F4761 
 3114      70476574 
 3114      4C6F6361 
 3114      6C4E616D 
 3115              	.LASF153:
 3116 090a 4359424C 		.ascii	"CYBLE_DIS_PNP_ID\000"
 3116      455F4449 
 3116      535F504E 
 3116      505F4944 
 3116      00
 3117              	.LASF193:
 3118 091b 6379426C 		.ascii	"cyBle_state\000"
 3118      655F7374 
 3118      61746500 
 3119              	.LASF26:
 3120 0927 4359424C 		.ascii	"CYBLE_EVT_GAP_PASSKEY_DISPLAY_REQUEST\000"
 3120      455F4556 
 3120      545F4741 
 3120      505F5041 
 3120      53534B45 
 3121              	.LASF37:
 3122 094d 4359424C 		.ascii	"CYBLE_EVT_GATT_CONNECT_IND\000"
 3122      455F4556 
 3122      545F4741 
 3122      54545F43 
 3122      4F4E4E45 
 3123              	.LASF179:
 3124 0968 63686172 		.ascii	"charLen\000"
 3124      4C656E00 
 3125              	.LASF60:
 3126 0970 4359424C 		.ascii	"CYBLE_EVT_L2CAP_COMMAND_REJ\000"
 3126      455F4556 
 3126      545F4C32 
 3126      4341505F 
 3126      434F4D4D 
 3127              	.LASF23:
 3128 098c 4359424C 		.ascii	"CYBLE_EVT_GAPC_SCAN_PROGRESS_RESULT\000"
 3128      455F4556 
 3128      545F4741 
ARM GAS  C:\Users\ENESDU~1\AppData\Local\Temp\ccTCHFTj.s 			page 82


 3128      50435F53 
 3128      43414E5F 
 3129              	.LASF151:
 3130 09b0 4359424C 		.ascii	"CYBLE_DIS_SYSTEM_ID\000"
 3130      455F4449 
 3130      535F5359 
 3130      5354454D 
 3130      5F494400 
 3131              	.LASF98:
 3132 09c4 4359424C 		.ascii	"CYBLE_DESCR_DISC_DONE\000"
 3132      455F4445 
 3132      5343525F 
 3132      44495343 
 3132      5F444F4E 
 3133              	.LASF95:
 3134 09da 4359424C 		.ascii	"CYBLE_ERROR_MAX\000"
 3134      455F4552 
 3134      524F525F 
 3134      4D415800 
 3135              	.LASF61:
 3136 09ea 4359424C 		.ascii	"CYBLE_EVT_L2CAP_CBFC_CONN_IND\000"
 3136      455F4556 
 3136      545F4C32 
 3136      4341505F 
 3136      43424643 
 3137              	.LASF42:
 3138 0a08 4359424C 		.ascii	"CYBLE_EVT_GATTC_READ_BY_TYPE_RSP\000"
 3138      455F4556 
 3138      545F4741 
 3138      5454435F 
 3138      52454144 
 3139              	.LASF191:
 3140 0a29 6379426C 		.ascii	"cyBle_discoveryModeInfo\000"
 3140      655F6469 
 3140      73636F76 
 3140      6572794D 
 3140      6F646549 
 3141              	.LASF16:
 3142 0a41 73697A65 		.ascii	"sizetype\000"
 3142      74797065 
 3142      00
 3143              	.LASF156:
 3144 0a4a 4359424C 		.ascii	"CYBLE_STATE_INITIALIZING\000"
 3144      455F5354 
 3144      4154455F 
 3144      494E4954 
 3144      49414C49 
 3145              	.LASF116:
 3146 0a63 6F776E41 		.ascii	"ownAddrType\000"
 3146      64647254 
 3146      79706500 
 3147              	.LASF28:
 3148 0a6f 4359424C 		.ascii	"CYBLE_EVT_GAP_AUTH_FAILED\000"
 3148      455F4556 
 3148      545F4741 
 3148      505F4155 
 3148      54485F46 
ARM GAS  C:\Users\ENESDU~1\AppData\Local\Temp\ccTCHFTj.s 			page 83


 3149              	.LASF49:
 3150 0a89 4359424C 		.ascii	"CYBLE_EVT_GATTC_WRITE_RSP\000"
 3150      455F4556 
 3150      545F4741 
 3150      5454435F 
 3150      57524954 
 3151              	.LASF27:
 3152 0aa3 4359424C 		.ascii	"CYBLE_EVT_GAP_AUTH_COMPLETE\000"
 3152      455F4556 
 3152      545F4741 
 3152      505F4155 
 3152      54485F43 
 3153              	.LASF163:
 3154 0abf 61706952 		.ascii	"apiResult\000"
 3154      6573756C 
 3154      7400
 3155              	.LASF103:
 3156 0ac9 4359424C 		.ascii	"CYBLE_API_RESULT_T\000"
 3156      455F4150 
 3156      495F5245 
 3156      53554C54 
 3156      5F5400
 3157              	.LASF165:
 3158 0adc 4379426C 		.ascii	"CyBle_Stop\000"
 3158      655F5374 
 3158      6F7000
 3159              	.LASF54:
 3160 0ae7 4359424C 		.ascii	"CYBLE_EVT_GATTC_HANDLE_VALUE_NTF\000"
 3160      455F4556 
 3160      545F4741 
 3160      5454435F 
 3160      48414E44 
 3161              	.LASF100:
 3162 0b08 4359424C 		.ascii	"CYBLE_ERROR_IND_DISABLED\000"
 3162      455F4552 
 3162      524F525F 
 3162      494E445F 
 3162      44495341 
 3163              	.LASF172:
 3164 0b21 64657374 		.ascii	"dest\000"
 3164      00
 3165              	.LASF136:
 3166 0b26 61747456 		.ascii	"attValueUuid\000"
 3166      616C7565 
 3166      55756964 
 3166      00
 3167              	.LASF152:
 3168 0b33 4359424C 		.ascii	"CYBLE_DIS_REG_CERT_DATA\000"
 3168      455F4449 
 3168      535F5245 
 3168      475F4345 
 3168      52545F44 
 3169              	.LASF133:
 3170 0b4b 61747447 		.ascii	"attGenericVal\000"
 3170      656E6572 
 3170      69635661 
 3170      6C00
ARM GAS  C:\Users\ENESDU~1\AppData\Local\Temp\ccTCHFTj.s 			page 84


 3171              	.LASF62:
 3172 0b59 4359424C 		.ascii	"CYBLE_EVT_L2CAP_CBFC_CONN_CNF\000"
 3172      455F4556 
 3172      545F4C32 
 3172      4341505F 
 3172      43424643 
 3173              	.LASF41:
 3174 0b77 4359424C 		.ascii	"CYBLE_EVT_GATTC_READ_BY_GROUP_TYPE_RSP\000"
 3174      455F4556 
 3174      545F4741 
 3174      5454435F 
 3174      52454144 
 3175              	.LASF12:
 3176 0b9e 666C6F61 		.ascii	"float\000"
 3176      7400
 3177              	.LASF196:
 3178 0ba4 474E5520 		.ascii	"GNU C 4.8.4 20140526 (release) [ARM/embedded-4_8-br"
 3178      4320342E 
 3178      382E3420 
 3178      32303134 
 3178      30353236 
 3179 0bd7 616E6368 		.ascii	"anch revision 211358] -mcpu=cortex-m0 -mthumb -g -O"
 3179      20726576 
 3179      6973696F 
 3179      6E203231 
 3179      31333538 
 3180 0c0a 30202D66 		.ascii	"0 -ffunction-sections\000"
 3180      66756E63 
 3180      74696F6E 
 3180      2D736563 
 3180      74696F6E 
 3181              	.LASF195:
 3182 0c20 6379426C 		.ascii	"cyBle_advertisingIntervalType\000"
 3182      655F6164 
 3182      76657274 
 3182      6973696E 
 3182      67496E74 
 3183              	.LASF167:
 3184 0c3e 4379426C 		.ascii	"CyBle_GappStartAdvertisement\000"
 3184      655F4761 
 3184      70705374 
 3184      61727441 
 3184      64766572 
 3185              	.LASF147:
 3186 0c5b 4359424C 		.ascii	"CYBLE_DIS_SERIAL_NUMBER\000"
 3186      455F4449 
 3186      535F5345 
 3186      5249414C 
 3186      5F4E554D 
 3187              	.LASF117:
 3188 0c73 64697265 		.ascii	"directAddrType\000"
 3188      63744164 
 3188      64725479 
 3188      706500
 3189              	.LASF81:
 3190 0c82 4359424C 		.ascii	"CYBLE_ERROR_TX_POWER_READ\000"
 3190      455F4552 
ARM GAS  C:\Users\ENESDU~1\AppData\Local\Temp\ccTCHFTj.s 			page 85


 3190      524F525F 
 3190      54585F50 
 3190      4F574552 
 3191              	.LASF168:
 3192 0c9c 63616C6C 		.ascii	"callbackFunc\000"
 3192      6261636B 
 3192      46756E63 
 3192      00
 3193              	.LASF142:
 3194 0ca9 61747456 		.ascii	"attValue\000"
 3194      616C7565 
 3194      00
 3195              	.LASF1:
 3196 0cb2 756E7369 		.ascii	"unsigned char\000"
 3196      676E6564 
 3196      20636861 
 3196      7200
 3197              	.LASF10:
 3198 0cc0 75696E74 		.ascii	"uint16\000"
 3198      313600
 3199              	.LASF154:
 3200 0cc7 4359424C 		.ascii	"CYBLE_DIS_CHAR_COUNT\000"
 3200      455F4449 
 3200      535F4348 
 3200      41525F43 
 3200      4F554E54 
 3201              	.LASF101:
 3202 0cdc 4359424C 		.ascii	"CYBLE_ERROR_CHAR_IS_NOT_DISCOVERED\000"
 3202      455F4552 
 3202      524F525F 
 3202      43484152 
 3202      5F49535F 
 3203              	.LASF2:
 3204 0cff 73686F72 		.ascii	"short int\000"
 3204      7420696E 
 3204      7400
 3205              	.LASF55:
 3206 0d09 4359424C 		.ascii	"CYBLE_EVT_GATTC_HANDLE_VALUE_IND\000"
 3206      455F4556 
 3206      545F4741 
 3206      5454435F 
 3206      48414E44 
 3207              	.LASF114:
 3208 0d2a 61647649 		.ascii	"advIntvMax\000"
 3208      6E74764D 
 3208      617800
 3209              	.LASF77:
 3210 0d35 4359424C 		.ascii	"CYBLE_ERROR_NO_CONNECTION\000"
 3210      455F4552 
 3210      524F525F 
 3210      4E4F5F43 
 3210      4F4E4E45 
 3211              	.LASF173:
 3212 0d4f 666C6167 		.ascii	"flag\000"
 3212      00
 3213              	.LASF150:
 3214 0d54 4359424C 		.ascii	"CYBLE_DIS_SOFTWARE_REV\000"
ARM GAS  C:\Users\ENESDU~1\AppData\Local\Temp\ccTCHFTj.s 			page 86


 3214      455F4449 
 3214      535F534F 
 3214      46545741 
 3214      52455F52 
 3215              	.LASF51:
 3216 0d6b 4359424C 		.ascii	"CYBLE_EVT_GATTS_PREP_WRITE_REQ\000"
 3216      455F4556 
 3216      545F4741 
 3216      5454535F 
 3216      50524550 
 3217              	.LASF113:
 3218 0d8a 61647649 		.ascii	"advIntvMin\000"
 3218      6E74764D 
 3218      696E00
 3219              	.LASF111:
 3220 0d95 4359424C 		.ascii	"CYBLE_GAPP_CONNECTABLE_LOW_DC_DIRECTED_ADV\000"
 3220      455F4741 
 3220      50505F43 
 3220      4F4E4E45 
 3220      43544142 
 3221              	.LASF122:
 3222 0dc0 61647644 		.ascii	"advData\000"
 3222      61746100 
 3223              	.LASF183:
 3224 0dc8 4379426C 		.ascii	"CyBle_ApplCallback\000"
 3224      655F4170 
 3224      706C4361 
 3224      6C6C6261 
 3224      636B00
 3225              	.LASF199:
 3226 0ddb 4379426C 		.ascii	"CyBle_ChangeAdLocalName\000"
 3226      655F4368 
 3226      616E6765 
 3226      41644C6F 
 3226      63616C4E 
 3227              	.LASF56:
 3228 0df3 4359424C 		.ascii	"CYBLE_EVT_GATTS_HANDLE_VALUE_CNF\000"
 3228      455F4556 
 3228      545F4741 
 3228      5454535F 
 3228      48414E44 
 3229              	.LASF79:
 3230 0e14 4359424C 		.ascii	"CYBLE_ERROR_REPEATED_ATTEMPTS\000"
 3230      455F4552 
 3230      524F525F 
 3230      52455045 
 3230      41544544 
 3231              	.LASF192:
 3232 0e32 6379426C 		.ascii	"cyBle_gattDB\000"
 3232      655F6761 
 3232      74744442 
 3232      00
 3233              	.LASF15:
 3234 0e3f 63686172 		.ascii	"char\000"
 3234      00
 3235              	.LASF146:
 3236 0e44 4359424C 		.ascii	"CYBLE_DIS_MODEL_NUMBER\000"
ARM GAS  C:\Users\ENESDU~1\AppData\Local\Temp\ccTCHFTj.s 			page 87


 3236      455F4449 
 3236      535F4D4F 
 3236      44454C5F 
 3236      4E554D42 
 3237              	.LASF82:
 3238 0e5b 4359424C 		.ascii	"CYBLE_ERROR_BT_ON_NOT_COMPLETED\000"
 3238      455F4552 
 3238      524F525F 
 3238      42545F4F 
 3238      4E5F4E4F 
 3239              	.LASF31:
 3240 0e7b 4359424C 		.ascii	"CYBLE_EVT_GAP_DEVICE_DISCONNECTED\000"
 3240      455F4556 
 3240      545F4741 
 3240      505F4445 
 3240      56494345 
 3241              	.LASF169:
 3242 0e9d 61647665 		.ascii	"advertisingIntervalType\000"
 3242      72746973 
 3242      696E6749 
 3242      6E746572 
 3242      76616C54 
 3243              	.LASF8:
 3244 0eb5 756E7369 		.ascii	"unsigned int\000"
 3244      676E6564 
 3244      20696E74 
 3244      00
 3245              	.LASF141:
 3246 0ec2 61747445 		.ascii	"attEndHandle\000"
 3246      6E644861 
 3246      6E646C65 
 3246      00
 3247              	.LASF121:
 3248 0ecf 4359424C 		.ascii	"CYBLE_GAPP_DISC_PARAM_T\000"
 3248      455F4741 
 3248      50505F44 
 3248      4953435F 
 3248      50415241 
 3249              	.LASF14:
 3250 0ee7 63686172 		.ascii	"char8\000"
 3250      3800
 3251              	.LASF134:
 3252 0eed 4359424C 		.ascii	"CYBLE_GATTS_ATT_GENERIC_VAL_T\000"
 3252      455F4741 
 3252      5454535F 
 3252      4154545F 
 3252      47454E45 
 3253              	.LASF93:
 3254 0f0b 4359424C 		.ascii	"CYBLE_ERROR_FLASH_WRITE_NOT_PERMITED\000"
 3254      455F4552 
 3254      524F525F 
 3254      464C4153 
 3254      485F5752 
 3255              	.LASF87:
 3256 0f30 4359424C 		.ascii	"CYBLE_ERROR_L2CAP_CONNECTION_ENTITY_NOT_FOUND\000"
 3256      455F4552 
 3256      524F525F 
ARM GAS  C:\Users\ENESDU~1\AppData\Local\Temp\ccTCHFTj.s 			page 88


 3256      4C324341 
 3256      505F434F 
 3257              	.LASF20:
 3258 0f5e 4359424C 		.ascii	"CYBLE_EVT_HARDWARE_ERROR\000"
 3258      455F4556 
 3258      545F4841 
 3258      52445741 
 3258      52455F45 
 3259              	.LASF3:
 3260 0f77 73686F72 		.ascii	"short unsigned int\000"
 3260      7420756E 
 3260      7369676E 
 3260      65642069 
 3260      6E7400
 3261              	.LASF143:
 3262 0f8a 4359424C 		.ascii	"CYBLE_GATTS_DB_T\000"
 3262      455F4741 
 3262      5454535F 
 3262      44425F54 
 3262      00
 3263              	.LASF132:
 3264 0f9b 6C656E67 		.ascii	"length\000"
 3264      746800
 3265              	.LASF73:
 3266 0fa2 4359424C 		.ascii	"CYBLE_ERROR_INVALID_OPERATION\000"
 3266      455F4552 
 3266      524F525F 
 3266      494E5641 
 3266      4C49445F 
 3267              	.LASF144:
 3268 0fc0 4359424C 		.ascii	"CYBLE_CALLBACK_T\000"
 3268      455F4341 
 3268      4C4C4241 
 3268      434B5F54 
 3268      00
 3269              	.LASF39:
 3270 0fd1 4359424C 		.ascii	"CYBLE_EVT_GATTS_XCNHG_MTU_REQ\000"
 3270      455F4556 
 3270      545F4741 
 3270      5454535F 
 3270      58434E48 
 3271              	.LASF175:
 3272 0fef 62797465 		.ascii	"byteCounter\000"
 3272      436F756E 
 3272      74657200 
 3273              	.LASF131:
 3274 0ffb 4359424C 		.ascii	"CYBLE_GAPP_DISC_MODE_INFO_T\000"
 3274      455F4741 
 3274      50505F44 
 3274      4953435F 
 3274      4D4F4445 
 3275              	.LASF129:
 3276 1017 61647650 		.ascii	"advParam\000"
 3276      6172616D 
 3276      00
 3277              	.LASF194:
 3278 1020 6379426C 		.ascii	"cyBle_busStatus\000"
ARM GAS  C:\Users\ENESDU~1\AppData\Local\Temp\ccTCHFTj.s 			page 89


 3278      655F6275 
 3278      73537461 
 3278      74757300 
 3279              	.LASF112:
 3280 1030 4359424C 		.ascii	"CYBLE_GAPP_ADV_T\000"
 3280      455F4741 
 3280      50505F41 
 3280      44565F54 
 3280      00
 3281              	.LASF160:
 3282 1041 4359424C 		.ascii	"CYBLE_STATE_T\000"
 3282      455F5354 
 3282      4154455F 
 3282      5400
 3283              	.LASF110:
 3284 104f 4359424C 		.ascii	"CYBLE_GAPP_NON_CONNECTABLE_UNDIRECTED_ADV\000"
 3284      455F4741 
 3284      50505F4E 
 3284      4F4E5F43 
 3284      4F4E4E45 
 3285              	.LASF46:
 3286 1079 4359424C 		.ascii	"CYBLE_EVT_GATTC_READ_BLOB_RSP\000"
 3286      455F4556 
 3286      545F4741 
 3286      5454435F 
 3286      52454144 
 3287              	.LASF177:
 3288 1097 6D61784C 		.ascii	"maxLength\000"
 3288      656E6774 
 3288      6800
 3289              	.LASF186:
 3290 10a1 6379426C 		.ascii	"cyBle_deviceAddress\000"
 3290      655F6465 
 3290      76696365 
 3290      41646472 
 3290      65737300 
 3291              	.LASF190:
 3292 10b5 6379426C 		.ascii	"cyBle_scanRspData\000"
 3292      655F7363 
 3292      616E5273 
 3292      70446174 
 3292      6100
 3293              	.LASF94:
 3294 10c7 4359424C 		.ascii	"CYBLE_ERROR_MIC_AUTH_FAILED\000"
 3294      455F4552 
 3294      524F525F 
 3294      4D49435F 
 3294      41555448 
 3295              	.LASF86:
 3296 10e3 4359424C 		.ascii	"CYBLE_ERROR_L2CAP_PSM_NOT_REGISTERED\000"
 3296      455F4552 
 3296      524F525F 
 3296      4C324341 
 3296      505F5053 
 3297              	.LASF187:
 3298 1108 6379426C 		.ascii	"cyBle_sflashDeviceAddress\000"
 3298      655F7366 
ARM GAS  C:\Users\ENESDU~1\AppData\Local\Temp\ccTCHFTj.s 			page 90


 3298      6C617368 
 3298      44657669 
 3298      63654164 
 3299              	.LASF157:
 3300 1122 4359424C 		.ascii	"CYBLE_STATE_CONNECTED\000"
 3300      455F5354 
 3300      4154455F 
 3300      434F4E4E 
 3300      45435445 
 3301              	.LASF44:
 3302 1138 4359424C 		.ascii	"CYBLE_EVT_GATTC_FIND_BY_TYPE_VALUE_RSP\000"
 3302      455F4556 
 3302      545F4741 
 3302      5454435F 
 3302      46494E44 
 3303              	.LASF80:
 3304 115f 4359424C 		.ascii	"CYBLE_ERROR_GAP_ROLE\000"
 3304      455F4552 
 3304      524F525F 
 3304      4741505F 
 3304      524F4C45 
 3305              	.LASF35:
 3306 1174 4359424C 		.ascii	"CYBLE_EVT_GAP_KEYINFO_EXCHNGE_CMPLT\000"
 3306      455F4556 
 3306      545F4741 
 3306      505F4B45 
 3306      59494E46 
 3307              	.LASF63:
 3308 1198 4359424C 		.ascii	"CYBLE_EVT_L2CAP_CBFC_DISCONN_IND\000"
 3308      455F4556 
 3308      545F4C32 
 3308      4341505F 
 3308      43424643 
 3309              	.LASF97:
 3310 11b9 4359424C 		.ascii	"CYBLE_CHAR_DISC_DONE\000"
 3310      455F4348 
 3310      41525F44 
 3310      4953435F 
 3310      444F4E45 
 3311              	.LASF161:
 3312 11ce 4379426C 		.ascii	"CyBle_Init\000"
 3312      655F496E 
 3312      697400
 3313              	.LASF59:
 3314 11d9 4359424C 		.ascii	"CYBLE_EVT_L2CAP_CONN_PARAM_UPDATE_RSP\000"
 3314      455F4556 
 3314      545F4C32 
 3314      4341505F 
 3314      434F4E4E 
 3315              	.LASF185:
 3316 11ff 6379426C 		.ascii	"cyBle_eventHandlerFlag\000"
 3316      655F6576 
 3316      656E7448 
 3316      616E646C 
 3316      6572466C 
 3317              	.LASF145:
 3318 1216 4359424C 		.ascii	"CYBLE_DIS_MANUFACTURER_NAME\000"
ARM GAS  C:\Users\ENESDU~1\AppData\Local\Temp\ccTCHFTj.s 			page 91


 3318      455F4449 
 3318      535F4D41 
 3318      4E554641 
 3318      43545552 
 3319              	.LASF130:
 3320 1232 61647654 		.ascii	"advTo\000"
 3320      6F00
 3321              	.LASF91:
 3322 1238 4359424C 		.ascii	"CYBLE_ERROR_GATT_DB_INVALID_ATTR_HANDLE\000"
 3322      455F4552 
 3322      524F525F 
 3322      47415454 
 3322      5F44425F 
 3323              		.ident	"GCC: (GNU Tools for ARM Embedded Processors) 4.8.4 20140526 (release) [ARM/embedded-4_8-br
